---
triple:          'arm64-apple-darwin'
binary-path:     'bin/tests'
relocations:
  - { offsetInCU: 0x1D3, offset: 0x1D3, size: 0x8, addend: 0x0, symName: __ZN5Catch12_GLOBAL__N_142catch_internal_RegistrarForCompactReporterE, symObjAddr: 0x708E00, symBinAddr: 0x10011C2C0, symSize: 0x0 }
  - { offsetInCU: 0x1ED, offset: 0x1ED, size: 0x8, addend: 0x0, symName: __ZN5Catch12_GLOBAL__N_142catch_internal_RegistrarForConsoleReporterE, symObjAddr: 0x708E01, symBinAddr: 0x10011C2C1, symSize: 0x0 }
  - { offsetInCU: 0x26E, offset: 0x26E, size: 0x8, addend: 0x0, symName: __ZN5Catch12_GLOBAL__N_140catch_internal_RegistrarForJunitReporterE, symObjAddr: 0x708E02, symBinAddr: 0x10011C2C2, symSize: 0x0 }
  - { offsetInCU: 0x288, offset: 0x288, size: 0x8, addend: 0x0, symName: __ZN5Catch12_GLOBAL__N_138catch_internal_RegistrarForXmlReporterE, symObjAddr: 0x708E03, symBinAddr: 0x10011C2C3, symSize: 0x0 }
  - { offsetInCU: 0x35E, offset: 0x35E, size: 0x8, addend: 0x0, symName: __ZN5Catch12_GLOBAL__N_113getSingletonsEv, symObjAddr: 0x17D00, symBinAddr: 0x10001B7A0, symSize: 0x58 }
  - { offsetInCU: 0x389, offset: 0x389, size: 0x8, addend: 0x0, symName: __ZZN5Catch12_GLOBAL__N_113getSingletonsEvE12g_singletons, symObjAddr: 0x708E20, symBinAddr: 0x10011C2E0, symSize: 0x0 }
  - { offsetInCU: 0x393, offset: 0x393, size: 0x8, addend: 0x0, symName: __ZN5Catch12_GLOBAL__N_123estimateClockResolutionEv, symObjAddr: 0x207F8, symBinAddr: 0x100024298, symSize: 0x104 }
  - { offsetInCU: 0x3BE, offset: 0x3BE, size: 0x8, addend: 0x0, symName: __ZZN5Catch12_GLOBAL__N_123estimateClockResolutionEvE10iterations, symObjAddr: 0xFEB98, symBinAddr: 0x1001069E8, symSize: 0x0 }
  - { offsetInCU: 0x657, offset: 0x657, size: 0x8, addend: 0x0, symName: __ZN5Catch12_GLOBAL__N_1lsERNSt3__113basic_ostreamIcNS1_11char_traitsIcEEEERKNS_20ITransientExpressionE, symObjAddr: 0xC30, symBinAddr: 0x1000046D0, symSize: 0x38 }
  - { offsetInCU: 0x694, offset: 0x694, size: 0x8, addend: 0x0, symName: __ZN5Catch12_GLOBAL__N_122platformColourInstanceEv, symObjAddr: 0x6D1C, symBinAddr: 0x10000A7BC, symSize: 0x178 }
  - { offsetInCU: 0x6E0, offset: 0x6E0, size: 0x8, addend: 0x0, symName: __ZN5Catch12_GLOBAL__N_115almostEqualUlpsIfEEbT_S2_y, symObjAddr: 0xDE74, symBinAddr: 0x100011914, symSize: 0x104 }
  - { offsetInCU: 0x762, offset: 0x762, size: 0x8, addend: 0x0, symName: __ZN5Catch12_GLOBAL__N_115almostEqualUlpsIdEEbT_S2_y, symObjAddr: 0xDF78, symBinAddr: 0x100011A18, symSize: 0x104 }
  - { offsetInCU: 0x7E4, offset: 0x7E4, size: 0x8, addend: 0x0, symName: __ZN5Catch12_GLOBAL__N_15writeIfEEvRNSt3__113basic_ostreamIcNS2_11char_traitsIcEEEET_, symObjAddr: 0xE4C4, symBinAddr: 0x100011F64, symSize: 0x58 }
  - { offsetInCU: 0x826, offset: 0x826, size: 0x8, addend: 0x0, symName: __ZN5Catch12_GLOBAL__N_15writeIdEEvRNSt3__113basic_ostreamIcNS2_11char_traitsIcEEEET_, symObjAddr: 0xE51C, symBinAddr: 0x100011FBC, symSize: 0x58 }
  - { offsetInCU: 0x868, offset: 0x868, size: 0x8, addend: 0x0, symName: __ZN5Catch12_GLOBAL__N_14stepIdEET_S2_S2_y, symObjAddr: 0xE574, symBinAddr: 0x100012014, symSize: 0x6C }
  - { offsetInCU: 0x8DA, offset: 0x8DA, size: 0x8, addend: 0x0, symName: __ZN5Catch12_GLOBAL__N_14stepIfEET_S2_S2_y, symObjAddr: 0xE5E0, symBinAddr: 0x100012080, symSize: 0x6C }
  - { offsetInCU: 0x94C, offset: 0x94C, size: 0x8, addend: 0x0, symName: __ZN5Catch12_GLOBAL__N_116marginComparisonEddd, symObjAddr: 0xE9E8, symBinAddr: 0x100012488, symSize: 0x68 }
  - { offsetInCU: 0x998, offset: 0x998, size: 0x8, addend: 0x0, symName: __ZN5Catch12_GLOBAL__N_112rotate_rightEjj, symObjAddr: 0x117F4, symBinAddr: 0x100015294, symSize: 0x50 }
  - { offsetInCU: 0x9E4, offset: 0x9E4, size: 0x8, addend: 0x0, symName: __ZN5Catch12_GLOBAL__N_120applyFilenamesAsTagsERKNS_7IConfigE, symObjAddr: 0x17678, symBinAddr: 0x10001B118, symSize: 0x1FC }
  - { offsetInCU: 0xB25, offset: 0xB25, size: 0x8, addend: 0x0, symName: __ZN5Catch12_GLOBAL__N_19toLowerChEc, symObjAddr: 0x18A54, symBinAddr: 0x10001C4F4, symSize: 0x28 }
  - { offsetInCU: 0xB53, offset: 0xB53, size: 0x8, addend: 0x0, symName: __ZN5Catch12_GLOBAL__N_115parseSpecialTagERKNSt3__112basic_stringIcNS1_11char_traitsIcEENS1_9allocatorIcEEEE, symObjAddr: 0x1A25C, symBinAddr: 0x10001DCFC, symSize: 0x114 }
  - { offsetInCU: 0xB81, offset: 0xB81, size: 0x8, addend: 0x0, symName: __ZN5Catch12_GLOBAL__N_121enforceNotReservedTagERKNSt3__112basic_stringIcNS1_11char_traitsIcEENS1_9allocatorIcEEEERKNS_14SourceLineInfoE, symObjAddr: 0x1A370, symBinAddr: 0x10001DE10, symSize: 0x110 }
  - { offsetInCU: 0xC0D, offset: 0xC0D, size: 0x8, addend: 0x0, symName: __ZN5Catch12_GLOBAL__N_113hexEscapeCharERNSt3__113basic_ostreamIcNS1_11char_traitsIcEEEEh, symObjAddr: 0x22C8C, symBinAddr: 0x10002672C, symSize: 0xC0 }
  - { offsetInCU: 0xC55, offset: 0xC55, size: 0x8, addend: 0x0, symName: __ZN5Catch12_GLOBAL__N_113trailingBytesEh, symObjAddr: 0x22D4C, symBinAddr: 0x1000267EC, symSize: 0x150 }
  - { offsetInCU: 0xC83, offset: 0xC83, size: 0x8, addend: 0x0, symName: __ZN5Catch12_GLOBAL__N_111headerValueEh, symObjAddr: 0x22E9C, symBinAddr: 0x10002693C, symSize: 0x15C }
  - { offsetInCU: 0xCB1, offset: 0xCB1, size: 0x8, addend: 0x0, symName: __ZN5Catch12_GLOBAL__N_112shouldIndentENS_13XmlFormattingE, symObjAddr: 0x23794, symBinAddr: 0x100027234, symSize: 0x34 }
  - { offsetInCU: 0xCDF, offset: 0xCDF, size: 0x8, addend: 0x0, symName: __ZN5Catch12_GLOBAL__N_113shouldNewlineENS_13XmlFormattingE, symObjAddr: 0x23BC8, symBinAddr: 0x100027668, symSize: 0x34 }
  - { offsetInCU: 0xE6A, offset: 0xE6A, size: 0x8, addend: 0x0, symName: __ZN5Catch12_GLOBAL__N_111printTotalsERNSt3__113basic_ostreamIcNS1_11char_traitsIcEEEERKNS_6TotalsE, symObjAddr: 0x24CD4, symBinAddr: 0x100028774, symSize: 0x7A8 }
  - { offsetInCU: 0x103A, offset: 0x103A, size: 0x8, addend: 0x0, symName: __ZN5Catch12_GLOBAL__N_19makeRatioEmm, symObjAddr: 0x28774, symBinAddr: 0x10002C214, symSize: 0x9C }
  - { offsetInCU: 0x1086, offset: 0x1086, size: 0x8, addend: 0x0, symName: __ZN5Catch12_GLOBAL__N_17findMaxERmS1_S1_, symObjAddr: 0x28810, symBinAddr: 0x10002C2B0, symSize: 0xA0 }
  - { offsetInCU: 0x10D2, offset: 0x10D2, size: 0x8, addend: 0x0, symName: __ZN5Catch12_GLOBAL__N_114formatDurationEd, symObjAddr: 0x2A144, symBinAddr: 0x10002DBE4, symSize: 0xBC }
  - { offsetInCU: 0x110F, offset: 0x110F, size: 0x8, addend: 0x0, symName: __ZN5Catch12_GLOBAL__N_119getCurrentTimestampEv, symObjAddr: 0x2A200, symBinAddr: 0x10002DCA0, symSize: 0xAC }
  - { offsetInCU: 0x1179, offset: 0x1179, size: 0x8, addend: 0x0, symName: __ZN5Catch12_GLOBAL__N_111fileNameTagERKNSt3__16vectorINS1_12basic_stringIcNS1_11char_traitsIcEENS1_9allocatorIcEEEENS6_IS8_EEEE, symObjAddr: 0x2A780, symBinAddr: 0x10002E220, symSize: 0xA0 }
  - { offsetInCU: 0x11D5, offset: 0x11D5, size: 0x8, addend: 0x0, symName: __ZN5Catch12_GLOBAL__N_119useColourOnPlatformEv, symObjAddr: 0x3F55C, symBinAddr: 0x100042FFC, symSize: 0x4C }
  - { offsetInCU: 0x11F3, offset: 0x11F3, size: 0x8, addend: 0x0, symName: __ZN5Catch12_GLOBAL__N_112makeReporterERKNSt3__110shared_ptrINS_6ConfigEEE, symObjAddr: 0x69088, symBinAddr: 0x10006CB28, symSize: 0x330 }
  - { offsetInCU: 0x1294, offset: 0x1294, size: 0x8, addend: 0x0, symName: __ZN5Catch12_GLOBAL__N_114createReporterERKNSt3__112basic_stringIcNS1_11char_traitsIcEENS1_9allocatorIcEEEERKNS1_10shared_ptrIKNS_7IConfigEEE, symObjAddr: 0x696F8, symBinAddr: 0x10006D198, symSize: 0x16C }
  - { offsetInCU: 0x12E1, offset: 0x12E1, size: 0x8, addend: 0x0, symName: __ZN5Catch12_GLOBAL__N_113isReservedTagERKNSt3__112basic_stringIcNS1_11char_traitsIcEENS1_9allocatorIcEEEE, symObjAddr: 0x73E28, symBinAddr: 0x1000778C8, symSize: 0x88 }
  - { offsetInCU: 0x130F, offset: 0x130F, size: 0x8, addend: 0x0, symName: __ZN5Catch12_GLOBAL__N_17convertEf, symObjAddr: 0xAC698, symBinAddr: 0x1000B0138, symSize: 0x1C }
  - { offsetInCU: 0x134C, offset: 0x134C, size: 0x8, addend: 0x0, symName: __ZN5Catch12_GLOBAL__N_17convertEd, symObjAddr: 0xAC6CC, symBinAddr: 0x1000B016C, symSize: 0x1C }
  - { offsetInCU: 0x1389, offset: 0x1389, size: 0x8, addend: 0x0, symName: __ZN5Catch12_GLOBAL__N_19nextafterEdd, symObjAddr: 0xAC810, symBinAddr: 0x1000B02B0, symSize: 0x2C }
  - { offsetInCU: 0x13C6, offset: 0x13C6, size: 0x8, addend: 0x0, symName: __ZN5Catch12_GLOBAL__N_19nextafterEff, symObjAddr: 0xAC83C, symBinAddr: 0x1000B02DC, symSize: 0x2C }
  - { offsetInCU: 0x1414, offset: 0x1414, size: 0x8, addend: 0x0, symName: __ZN5Catch15IMutableContext14currentContextE, symObjAddr: 0x708E30, symBinAddr: 0x10011C2F0, symSize: 0x0 }
  - { offsetInCU: 0x1CDC, offset: 0x1CDC, size: 0x8, addend: 0x0, symName: __ZN5Catch10Generators23acquireGeneratorTrackerENS_9StringRefERKNS_14SourceLineInfoE, symObjAddr: 0x951C, symBinAddr: 0x10000CFBC, symSize: 0x48 }
  - { offsetInCU: 0x37E4, offset: 0x37E4, size: 0x8, addend: 0x0, symName: __ZN5Catch3rngEv, symObjAddr: 0x7130, symBinAddr: 0x10000ABD0, symSize: 0xA0 }
  - { offsetInCU: 0x380F, offset: 0x380F, size: 0x8, addend: 0x0, symName: __ZZN5Catch3rngEvE5s_rng, symObjAddr: 0x708D28, symBinAddr: 0x10011C1E8, symSize: 0x0 }
  - { offsetInCU: 0x38E5, offset: 0x38E5, size: 0x8, addend: 0x0, symName: __ZN5Catch11MessageInfo11globalCountE, symObjAddr: 0x708E38, symBinAddr: 0x10011C2F8, symSize: 0x0 }
  - { offsetInCU: 0x5CDD, offset: 0x5CDD, size: 0x8, addend: 0x0, symName: __ZN5Catch5clara6detaillsERNSt3__113basic_ostreamIcNS2_11char_traitsIcEEEERKNS1_6ParserE, symObjAddr: 0x167A8, symBinAddr: 0x10001A248, symSize: 0x30 }
  - { offsetInCU: 0x5D1A, offset: 0x5D1A, size: 0x8, addend: 0x0, symName: __ZN5Catch5clara6detail11convertIntoERKNSt3__112basic_stringIcNS2_11char_traitsIcEENS2_9allocatorIcEEEERS8_, symObjAddr: 0x34EC8, symBinAddr: 0x100038968, symSize: 0x44 }
  - { offsetInCU: 0x5F00, offset: 0x5F00, size: 0x8, addend: 0x0, symName: __ZN5Catch5clara6detail12normaliseOptERKNSt3__112basic_stringIcNS2_11char_traitsIcEENS2_9allocatorIcEEEE, symObjAddr: 0x37B18, symBinAddr: 0x10003B5B8, symSize: 0x38 }
  - { offsetInCU: 0x5F2E, offset: 0x5F2E, size: 0x8, addend: 0x0, symName: __ZN5Catch5clara6detail11isOptPrefixEc, symObjAddr: 0x38A68, symBinAddr: 0x10003C508, symSize: 0x20 }
  - { offsetInCU: 0x5F5C, offset: 0x5F5C, size: 0x8, addend: 0x0, symName: '__ZN5Catch5clara6detail12invokeLambdaINSt3__112basic_stringIcNS3_11char_traitsIcEENS3_9allocatorIcEEEEZNS_21makeCommandLineParserERNS_10ConfigDataEE3$_1EENS1_11BasicResultINS1_15ParseResultTypeEEERKT0_RKS9_', symObjAddr: 0x99E98, symBinAddr: 0x10009D938, symSize: 0xD0 }
  - { offsetInCU: 0x6060, offset: 0x6060, size: 0x8, addend: 0x0, symName: '__ZN5Catch5clara6detail12invokeLambdaIiZNS_21makeCommandLineParserERNS_10ConfigDataEE3$_3EENS1_11BasicResultINS1_15ParseResultTypeEEERKT0_RKNSt3__112basic_stringIcNSC_11char_traitsIcEENSC_9allocatorIcEEEE', symObjAddr: 0x9BF0C, symBinAddr: 0x10009F9AC, symSize: 0xA4 }
  - { offsetInCU: 0x60CD, offset: 0x60CD, size: 0x8, addend: 0x0, symName: __ZN5Catch5clara6detail11convertIntoIiEENS1_11BasicResultINS1_15ParseResultTypeEEERKNSt3__112basic_stringIcNS6_11char_traitsIcEENS6_9allocatorIcEEEERT_, symObjAddr: 0x9BFB0, symBinAddr: 0x10009FA50, symSize: 0x164 }
  - { offsetInCU: 0x6123, offset: 0x6123, size: 0x8, addend: 0x0, symName: '__ZN5Catch5clara6detail12invokeLambdaINSt3__112basic_stringIcNS3_11char_traitsIcEENS3_9allocatorIcEEEEZNS_21makeCommandLineParserERNS_10ConfigDataEE3$_4EENS1_11BasicResultINS1_15ParseResultTypeEEERKT0_RKS9_', symObjAddr: 0x9CF08, symBinAddr: 0x1000A09A8, symSize: 0xD0 }
  - { offsetInCU: 0x6190, offset: 0x6190, size: 0x8, addend: 0x0, symName: '__ZN5Catch5clara6detail12invokeLambdaIbZNS_21makeCommandLineParserERNS_10ConfigDataEE3$_5EENS1_11BasicResultINS1_15ParseResultTypeEEERKT0_RKNSt3__112basic_stringIcNSC_11char_traitsIcEENSC_9allocatorIcEEEE', symObjAddr: 0x9DF28, symBinAddr: 0x1000A19C8, symSize: 0xA4 }
  - { offsetInCU: 0x61FD, offset: 0x61FD, size: 0x8, addend: 0x0, symName: __ZN5Catch5clara6detail11convertIntoERKNSt3__112basic_stringIcNS2_11char_traitsIcEENS2_9allocatorIcEEEERb, symObjAddr: 0x9DFCC, symBinAddr: 0x1000A1A6C, symSize: 0x270 }
  - { offsetInCU: 0x6268, offset: 0x6268, size: 0x8, addend: 0x0, symName: __ZN5Catch5clara6detail11convertIntoIdEENS1_11BasicResultINS1_15ParseResultTypeEEERKNSt3__112basic_stringIcNS6_11char_traitsIcEENS6_9allocatorIcEEEERT_, symObjAddr: 0x9F100, symBinAddr: 0x1000A2BA0, symSize: 0x164 }
  - { offsetInCU: 0x62BE, offset: 0x62BE, size: 0x8, addend: 0x0, symName: '__ZN5Catch5clara6detail12invokeLambdaINSt3__112basic_stringIcNS3_11char_traitsIcEENS3_9allocatorIcEEEEZNS_21makeCommandLineParserERNS_10ConfigDataEE3$_6EENS1_11BasicResultINS1_15ParseResultTypeEEERKT0_RKS9_', symObjAddr: 0x9FFEC, symBinAddr: 0x1000A3A8C, symSize: 0xD0 }
  - { offsetInCU: 0x632B, offset: 0x632B, size: 0x8, addend: 0x0, symName: '__ZN5Catch5clara6detail12invokeLambdaINSt3__112basic_stringIcNS3_11char_traitsIcEENS3_9allocatorIcEEEEZNS_21makeCommandLineParserERNS_10ConfigDataEE3$_7EENS1_11BasicResultINS1_15ParseResultTypeEEERKT0_RKS9_', symObjAddr: 0xA1E14, symBinAddr: 0x1000A58B4, symSize: 0xD0 }
  - { offsetInCU: 0x6398, offset: 0x6398, size: 0x8, addend: 0x0, symName: '__ZN5Catch5clara6detail12invokeLambdaINSt3__112basic_stringIcNS3_11char_traitsIcEENS3_9allocatorIcEEEEZNS_21makeCommandLineParserERNS_10ConfigDataEE3$_8EENS1_11BasicResultINS1_15ParseResultTypeEEERKT0_RKS9_', symObjAddr: 0xA2E44, symBinAddr: 0x1000A68E4, symSize: 0xD0 }
  - { offsetInCU: 0x6405, offset: 0x6405, size: 0x8, addend: 0x0, symName: '__ZN5Catch5clara6detail12invokeLambdaINSt3__112basic_stringIcNS3_11char_traitsIcEENS3_9allocatorIcEEEEZNS_21makeCommandLineParserERNS_10ConfigDataEE3$_9EENS1_11BasicResultINS1_15ParseResultTypeEEERKT0_RKS9_', symObjAddr: 0xA3F08, symBinAddr: 0x1000A79A8, symSize: 0xD0 }
  - { offsetInCU: 0x6472, offset: 0x6472, size: 0x8, addend: 0x0, symName: __ZN5Catch5clara6detail11convertIntoIjEENS1_11BasicResultINS1_15ParseResultTypeEEERKNSt3__112basic_stringIcNS6_11char_traitsIcEENS6_9allocatorIcEEEERT_, symObjAddr: 0xA409C, symBinAddr: 0x1000A7B3C, symSize: 0x164 }
  - { offsetInCU: 0x64C8, offset: 0x64C8, size: 0x8, addend: 0x0, symName: '__ZN5Catch5clara6detail12invokeLambdaINSt3__112basic_stringIcNS3_11char_traitsIcEENS3_9allocatorIcEEEEZNS_21makeCommandLineParserERNS_10ConfigDataEE4$_10EENS1_11BasicResultINS1_15ParseResultTypeEEERKT0_RKS9_', symObjAddr: 0xA4F88, symBinAddr: 0x1000A8A28, symSize: 0xD0 }
  - { offsetInCU: 0x6535, offset: 0x6535, size: 0x8, addend: 0x0, symName: '__ZN5Catch5clara6detail12invokeLambdaINSt3__112basic_stringIcNS3_11char_traitsIcEENS3_9allocatorIcEEEEZNS_21makeCommandLineParserERNS_10ConfigDataEE4$_11EENS1_11BasicResultINS1_15ParseResultTypeEEERKT0_RKS9_', symObjAddr: 0xA5FB8, symBinAddr: 0x1000A9A58, symSize: 0xD0 }
  - { offsetInCU: 0x65A2, offset: 0x65A2, size: 0x8, addend: 0x0, symName: __ZN5Catch5clara6detail11convertIntoIxEENS1_11BasicResultINS1_15ParseResultTypeEEERKNSt3__112basic_stringIcNS6_11char_traitsIcEENS6_9allocatorIcEEEERT_, symObjAddr: 0xA7D98, symBinAddr: 0x1000AB838, symSize: 0x164 }
  - { offsetInCU: 0x65FE, offset: 0x65FE, size: 0x8, addend: 0x0, symName: __ZN5Catch5clara8TextFlow17isBreakableBeforeEc, symObjAddr: 0x4A264, symBinAddr: 0x10004DD04, symSize: 0xDC }
  - { offsetInCU: 0x6629, offset: 0x6629, size: 0x8, addend: 0x0, symName: __ZZN5Catch5clara8TextFlow17isBreakableBeforeEcE5chars, symObjAddr: 0x104C90, symBinAddr: 0x10011C080, symSize: 0x0 }
  - { offsetInCU: 0x6642, offset: 0x6642, size: 0x8, addend: 0x0, symName: __ZN5Catch5clara8TextFlow16isBreakableAfterEc, symObjAddr: 0x4A340, symBinAddr: 0x10004DDE0, symSize: 0xDC }
  - { offsetInCU: 0x666D, offset: 0x666D, size: 0x8, addend: 0x0, symName: __ZZN5Catch5clara8TextFlow16isBreakableAfterEcE5chars, symObjAddr: 0x104CB0, symBinAddr: 0x10011C0A0, symSize: 0x0 }
  - { offsetInCU: 0x6686, offset: 0x6686, size: 0x8, addend: 0x0, symName: __ZN5Catch5clara8TextFlow12isWhitespaceEc, symObjAddr: 0x4A188, symBinAddr: 0x10004DC28, symSize: 0xDC }
  - { offsetInCU: 0x66B1, offset: 0x66B1, size: 0x8, addend: 0x0, symName: __ZZN5Catch5clara8TextFlow12isWhitespaceEcE5chars, symObjAddr: 0x104CD0, symBinAddr: 0x10011C0C0, symSize: 0x0 }
  - { offsetInCU: 0x6B7A, offset: 0x6B7A, size: 0x8, addend: 0x0, symName: __ZN5Catch5clara8TextFlowlsERNSt3__113basic_ostreamIcNS2_11char_traitsIcEEEERKNS1_6ColumnE, symObjAddr: 0xB0EC, symBinAddr: 0x10000EB8C, symSize: 0xFC }
  - { offsetInCU: 0x6C06, offset: 0x6C06, size: 0x8, addend: 0x0, symName: __ZN5Catch5clara8TextFlowlsERNSt3__113basic_ostreamIcNS2_11char_traitsIcEEEERKNS1_7ColumnsE, symObjAddr: 0xCBB8, symBinAddr: 0x100010658, symSize: 0x148 }
  - { offsetInCU: 0x73A1, offset: 0x73A1, size: 0x8, addend: 0x0, symName: __ZN5Catch4trimERKNSt3__112basic_stringIcNS0_11char_traitsIcEENS0_9allocatorIcEEEE, symObjAddr: 0x6030, symBinAddr: 0x100009AD0, symSize: 0x9C }
  - { offsetInCU: 0x73CC, offset: 0x73CC, size: 0x8, addend: 0x0, symName: __ZZN5Catch4trimERKNSt3__112basic_stringIcNS0_11char_traitsIcEENS0_9allocatorIcEEEEE15whitespaceChars, symObjAddr: 0x104C70, symBinAddr: 0x10011C060, symSize: 0x0 }
  - { offsetInCU: 0x7403, offset: 0x7403, size: 0x8, addend: 0x0, symName: __ZN5Catch27getEstimatedClockResolutionEv, symObjAddr: 0x20750, symBinAddr: 0x1000241F0, symSize: 0xA8 }
  - { offsetInCU: 0x742E, offset: 0x742E, size: 0x8, addend: 0x0, symName: __ZZN5Catch27getEstimatedClockResolutionEvE12s_resolution, symObjAddr: 0x708DC8, symBinAddr: 0x10011C288, symSize: 0x0 }
  - { offsetInCU: 0x744A, offset: 0x744A, size: 0x8, addend: 0x0, symName: __ZN5Catch6Detail17unprintableStringE, symObjAddr: 0x708E40, symBinAddr: 0x10011C300, symSize: 0x0 }
  - { offsetInCU: 0x749B, offset: 0x749B, size: 0x8, addend: 0x0, symName: __ZN5Catch6Detail12_GLOBAL__N_119extractInstanceNameENS_9StringRefE, symObjAddr: 0x7EC4, symBinAddr: 0x10000B964, symSize: 0xCC }
  - { offsetInCU: 0x78F1, offset: 0x78F1, size: 0x8, addend: 0x0, symName: __ZN5Catch6Detail9stringifyIdEENSt3__112basic_stringIcNS2_11char_traitsIcEENS2_9allocatorIcEEEERKT_, symObjAddr: 0x2E0, symBinAddr: 0x100003D80, symSize: 0x30 }
  - { offsetInCU: 0x7928, offset: 0x7928, size: 0x8, addend: 0x0, symName: __ZN5Catch6Detail10parseEnumsENS_9StringRefE, symObjAddr: 0x77C8, symBinAddr: 0x10000B268, symSize: 0x194 }
  - { offsetInCU: 0x79C8, offset: 0x79C8, size: 0x8, addend: 0x0, symName: __ZN5Catch6Detail12makeEnumInfoENS_9StringRefES1_RKNSt3__16vectorIiNS2_9allocatorIiEEEE, symObjAddr: 0x8230, symBinAddr: 0x10000BCD0, symSize: 0x22C }
  - { offsetInCU: 0x7A96, offset: 0x7A96, size: 0x8, addend: 0x0, symName: __ZN5Catch6Detail9stringifyINS_14SourceLineInfoEEENSt3__112basic_stringIcNS3_11char_traitsIcEENS3_9allocatorIcEEEERKT_, symObjAddr: 0xB288, symBinAddr: 0x10000ED28, symSize: 0x2C }
  - { offsetInCU: 0x7ACD, offset: 0x7ACD, size: 0x8, addend: 0x0, symName: __ZN5Catch6Detail9stringifyINSt3__112basic_stringIcNS2_11char_traitsIcEENS2_9allocatorIcEEEEEES8_RKT_, symObjAddr: 0xFE5C, symBinAddr: 0x1000138FC, symSize: 0x2C }
  - { offsetInCU: 0x7B04, offset: 0x7B04, size: 0x8, addend: 0x0, symName: __ZN5Catch6Detail17rawMemoryToStringEPKvm, symObjAddr: 0x2098C, symBinAddr: 0x10002442C, symSize: 0x190 }
  - { offsetInCU: 0x7B8D, offset: 0x7B8D, size: 0x8, addend: 0x0, symName: __ZN5Catch6Detail9stringifyINSt3__112basic_stringIwNS2_11char_traitsIwEENS2_9allocatorIwEEEEEENS3_IcNS4_IcEENS6_IcEEEERKT_, symObjAddr: 0x21554, symBinAddr: 0x100024FF4, symSize: 0x2C }
  - { offsetInCU: 0x7BC4, offset: 0x7BC4, size: 0x8, addend: 0x0, symName: __ZN5Catch6Detail9stringifyIyEENSt3__112basic_stringIcNS2_11char_traitsIcEENS2_9allocatorIcEEEERKT_, symObjAddr: 0x2168C, symBinAddr: 0x10002512C, symSize: 0x30 }
  - { offsetInCU: 0x7BFB, offset: 0x7BFB, size: 0x8, addend: 0x0, symName: __ZN5Catch6Detail9stringifyIxEENSt3__112basic_stringIcNS2_11char_traitsIcEENS2_9allocatorIcEEEERKT_, symObjAddr: 0x21708, symBinAddr: 0x1000251A8, symSize: 0x30 }
  - { offsetInCU: 0x7C32, offset: 0x7C32, size: 0x8, addend: 0x0, symName: __ZN5Catch6Detail9stringifyIjEENSt3__112basic_stringIcNS2_11char_traitsIcEENS2_9allocatorIcEEEERKT_, symObjAddr: 0x21BC0, symBinAddr: 0x100025660, symSize: 0x30 }
  - { offsetInCU: 0x7C69, offset: 0x7C69, size: 0x8, addend: 0x0, symName: __ZN5Catch6Detail9stringifyIaEENSt3__112basic_stringIcNS2_11char_traitsIcEENS2_9allocatorIcEEEERKT_, symObjAddr: 0x21C24, symBinAddr: 0x1000256C4, symSize: 0x30 }
  - { offsetInCU: 0x7CA0, offset: 0x7CA0, size: 0x8, addend: 0x0, symName: __ZN5Catch6Detail9stringifyIcEENSt3__112basic_stringIcNS2_11char_traitsIcEENS2_9allocatorIcEEEERKT_, symObjAddr: 0x21C88, symBinAddr: 0x100025728, symSize: 0x30 }
  - { offsetInCU: 0x7CD7, offset: 0x7CD7, size: 0x8, addend: 0x0, symName: __ZN5Catch6Detail9stringifyIbEENSt3__112basic_stringIcNS2_11char_traitsIcEENS2_9allocatorIcEEEERKT_, symObjAddr: 0x95708, symBinAddr: 0x1000991A8, symSize: 0x34 }
  - { offsetInCU: 0x7D15, offset: 0x7D15, size: 0x8, addend: 0x0, symName: __ZN5Catch11StringMakerIfvE9precisionE, symObjAddr: 0x104C78, symBinAddr: 0x10011C068, symSize: 0x0 }
  - { offsetInCU: 0x7D5F, offset: 0x7D5F, size: 0x8, addend: 0x0, symName: __ZN5Catch11StringMakerIdvE9precisionE, symObjAddr: 0x104C7C, symBinAddr: 0x10011C06C, symSize: 0x0 }
  - { offsetInCU: 0x7DA3, offset: 0x7DA3, size: 0x8, addend: 0x0, symName: __ZN5Catch14libraryVersionEv, symObjAddr: 0x16884, symBinAddr: 0x10001A324, symSize: 0x88 }
  - { offsetInCU: 0x7DCE, offset: 0x7DCE, size: 0x8, addend: 0x0, symName: __ZZN5Catch14libraryVersionEvE7version, symObjAddr: 0x708DD8, symBinAddr: 0x10011C298, symSize: 0x0 }
  - { offsetInCU: 0xAAE1, offset: 0xAAE1, size: 0x8, addend: 0x0, symName: __ZN5Catch12leakDetectorE, symObjAddr: 0x708E58, symBinAddr: 0x10011C318, symSize: 0x0 }
  - { offsetInCU: 0xABAC, offset: 0xABAC, size: 0x8, addend: 0x0, symName: __ZN5CatchL11altStackMemE, symObjAddr: 0x708D38, symBinAddr: 0x10011C1F8, symSize: 0x0 }
  - { offsetInCU: 0xABC6, offset: 0xABC6, size: 0x8, addend: 0x0, symName: __ZN5CatchL12altStackSizeE, symObjAddr: 0x708D40, symBinAddr: 0x10011C200, symSize: 0x0 }
  - { offsetInCU: 0xABE0, offset: 0xABE0, size: 0x8, addend: 0x0, symName: __ZN5CatchL11oldSigStackE, symObjAddr: 0x708D48, symBinAddr: 0x10011C208, symSize: 0x0 }
  - { offsetInCU: 0xABFA, offset: 0xABFA, size: 0x8, addend: 0x0, symName: __ZN5CatchL10signalDefsE, symObjAddr: 0x104C10, symBinAddr: 0x10011C000, symSize: 0x0 }
  - { offsetInCU: 0xAC39, offset: 0xAC39, size: 0x8, addend: 0x0, symName: __ZN5CatchL13oldSigActionsE, symObjAddr: 0x708D60, symBinAddr: 0x10011C220, symSize: 0x0 }
  - { offsetInCU: 0xB73C, offset: 0xB73C, size: 0x8, addend: 0x0, symName: __ZN5Catch14getLineOfCharsILc45EEEPKcv, symObjAddr: 0x27F28, symBinAddr: 0x10002B9C8, symSize: 0x58 }
  - { offsetInCU: 0xB767, offset: 0xB767, size: 0x8, addend: 0x0, symName: __ZZN5Catch14getLineOfCharsILc45EEEPKcvE4line, symObjAddr: 0x104CF8, symBinAddr: 0x10011C0E8, symSize: 0x0 }
  - { offsetInCU: 0xB77B, offset: 0xB77B, size: 0x8, addend: 0x0, symName: __ZN5Catch14getLineOfCharsILc126EEEPKcv, symObjAddr: 0x27B40, symBinAddr: 0x10002B5E0, symSize: 0x58 }
  - { offsetInCU: 0xB7A6, offset: 0xB7A6, size: 0x8, addend: 0x0, symName: __ZZN5Catch14getLineOfCharsILc126EEEPKcvE4line, symObjAddr: 0x104D48, symBinAddr: 0x10011C138, symSize: 0x0 }
  - { offsetInCU: 0xB7BB, offset: 0xB7BB, size: 0x8, addend: 0x0, symName: __ZN5Catch14getLineOfCharsILc46EEEPKcv, symObjAddr: 0x27F80, symBinAddr: 0x10002BA20, symSize: 0x58 }
  - { offsetInCU: 0xB7E6, offset: 0xB7E6, size: 0x8, addend: 0x0, symName: __ZZN5Catch14getLineOfCharsILc46EEEPKcvE4line, symObjAddr: 0x104D98, symBinAddr: 0x10011C188, symSize: 0x0 }
  - { offsetInCU: 0xBF3E, offset: 0xBF3E, size: 0x8, addend: 0x0, symName: __ZN5Catch16TestCaseTrackingeqERKNS0_15NameAndLocationES3_, symObjAddr: 0x579F4, symBinAddr: 0x10005B494, symSize: 0x60 }
  - { offsetInCU: 0xCB3C, offset: 0xCB3C, size: 0x8, addend: 0x0, symName: __ZN5Catch8Matchers6EqualsERKNSt3__112basic_stringIcNS1_11char_traitsIcEENS1_9allocatorIcEEEENS_13CaseSensitive6ChoiceE, symObjAddr: 0x12EC, symBinAddr: 0x100004D8C, symSize: 0x74 }
  - { offsetInCU: 0xCB79, offset: 0xCB79, size: 0x8, addend: 0x0, symName: __ZN5Catch8Matchers7MessageERKNSt3__112basic_stringIcNS1_11char_traitsIcEENS1_9allocatorIcEEEE, symObjAddr: 0xD5A8, symBinAddr: 0x100011048, symSize: 0x38 }
  - { offsetInCU: 0xCBA7, offset: 0xCBA7, size: 0x8, addend: 0x0, symName: __ZN5Catch8Matchers9WithinULPEdy, symObjAddr: 0xEC10, symBinAddr: 0x1000126B0, symSize: 0x44 }
  - { offsetInCU: 0xCBE4, offset: 0xCBE4, size: 0x8, addend: 0x0, symName: __ZN5Catch8Matchers9WithinULPEfy, symObjAddr: 0xEC54, symBinAddr: 0x1000126F4, symSize: 0x48 }
  - { offsetInCU: 0xCC21, offset: 0xCC21, size: 0x8, addend: 0x0, symName: __ZN5Catch8Matchers9WithinAbsEdd, symObjAddr: 0xEC9C, symBinAddr: 0x10001273C, symSize: 0x38 }
  - { offsetInCU: 0xCC5E, offset: 0xCC5E, size: 0x8, addend: 0x0, symName: __ZN5Catch8Matchers9WithinRelEdd, symObjAddr: 0xECD4, symBinAddr: 0x100012774, symSize: 0x38 }
  - { offsetInCU: 0xCC9B, offset: 0xCC9B, size: 0x8, addend: 0x0, symName: __ZN5Catch8Matchers9WithinRelEd, symObjAddr: 0xED0C, symBinAddr: 0x1000127AC, symSize: 0x4C }
  - { offsetInCU: 0xCCC9, offset: 0xCCC9, size: 0x8, addend: 0x0, symName: __ZN5Catch8Matchers9WithinRelEff, symObjAddr: 0xED6C, symBinAddr: 0x10001280C, symSize: 0x40 }
  - { offsetInCU: 0xCD06, offset: 0xCD06, size: 0x8, addend: 0x0, symName: __ZN5Catch8Matchers9WithinRelEf, symObjAddr: 0xEDAC, symBinAddr: 0x10001284C, symSize: 0x54 }
  - { offsetInCU: 0xCD3E, offset: 0xCD3E, size: 0x8, addend: 0x0, symName: __ZN5Catch8Matchers7Generic6Detail19finalizeDescriptionERKNSt3__112basic_stringIcNS3_11char_traitsIcEENS3_9allocatorIcEEEE, symObjAddr: 0xEE00, symBinAddr: 0x1000128A0, symSize: 0xA0 }
  - { offsetInCU: 0xCD6E, offset: 0xCD6E, size: 0x8, addend: 0x0, symName: __ZN5Catch8Matchers8ContainsERKNSt3__112basic_stringIcNS1_11char_traitsIcEENS1_9allocatorIcEEEENS_13CaseSensitive6ChoiceE, symObjAddr: 0xFE88, symBinAddr: 0x100013928, symSize: 0x74 }
  - { offsetInCU: 0xCDAB, offset: 0xCDAB, size: 0x8, addend: 0x0, symName: __ZN5Catch8Matchers8EndsWithERKNSt3__112basic_stringIcNS1_11char_traitsIcEENS1_9allocatorIcEEEENS_13CaseSensitive6ChoiceE, symObjAddr: 0xFEFC, symBinAddr: 0x10001399C, symSize: 0x74 }
  - { offsetInCU: 0xCDE8, offset: 0xCDE8, size: 0x8, addend: 0x0, symName: __ZN5Catch8Matchers10StartsWithERKNSt3__112basic_stringIcNS1_11char_traitsIcEENS1_9allocatorIcEEEENS_13CaseSensitive6ChoiceE, symObjAddr: 0xFF70, symBinAddr: 0x100013A10, symSize: 0x74 }
  - { offsetInCU: 0xCE25, offset: 0xCE25, size: 0x8, addend: 0x0, symName: __ZN5Catch8Matchers7MatchesERKNSt3__112basic_stringIcNS1_11char_traitsIcEENS1_9allocatorIcEEEENS_13CaseSensitive6ChoiceE, symObjAddr: 0xFFE4, symBinAddr: 0x100013A84, symSize: 0x50 }
  - { offsetInCU: 0xD04B, offset: 0xD04B, size: 0x8, addend: 0x0, symName: __ZN5Catch21makeCommandLineParserERNS_10ConfigDataE, symObjAddr: 0x1FA0, symBinAddr: 0x100005A40, symSize: 0x301C }
  - { offsetInCU: 0xD3AD, offset: 0xD3AD, size: 0x8, addend: 0x0, symName: __ZN5Catch18throw_domain_errorERKNSt3__112basic_stringIcNS0_11char_traitsIcEENS0_9allocatorIcEEEE, symObjAddr: 0x61C, symBinAddr: 0x1000040BC, symSize: 0x50 }
  - { offsetInCU: 0xD3DC, offset: 0xD3DC, size: 0x8, addend: 0x0, symName: __ZN5Catch8literalsli2_aEe, symObjAddr: 0x8F4, symBinAddr: 0x100004394, symSize: 0x38 }
  - { offsetInCU: 0xD40A, offset: 0xD40A, size: 0x8, addend: 0x0, symName: __ZN5Catch8literalsli2_aEy, symObjAddr: 0x964, symBinAddr: 0x100004404, symSize: 0x38 }
  - { offsetInCU: 0xD464, offset: 0xD464, size: 0x8, addend: 0x0, symName: __ZN5CatchlsERNSt3__113basic_ostreamIcNS0_11char_traitsIcEEEERKNS_14LazyExpressionE, symObjAddr: 0xAF8, symBinAddr: 0x100004598, symSize: 0xD4 }
  - { offsetInCU: 0xD5E3, offset: 0xD5E3, size: 0x8, addend: 0x0, symName: __ZN5Catch16getResultCaptureEv, symObjAddr: 0xD14, symBinAddr: 0x1000047B4, symSize: 0x108 }
  - { offsetInCU: 0xD617, offset: 0xD617, size: 0x8, addend: 0x0, symName: __ZN5Catch17getCurrentContextEv, symObjAddr: 0xF38, symBinAddr: 0x1000049D8, symSize: 0x14 }
  - { offsetInCU: 0xD635, offset: 0xD635, size: 0x8, addend: 0x0, symName: __ZN5Catch24translateActiveExceptionEv, symObjAddr: 0x10A0, symBinAddr: 0x100004B40, symSize: 0x40 }
  - { offsetInCU: 0xD653, offset: 0xD653, size: 0x8, addend: 0x0, symName: __ZN5Catch24handleExceptionMatchExprERNS_16AssertionHandlerERKNSt3__112basic_stringIcNS2_11char_traitsIcEENS2_9allocatorIcEEEERKNS_9StringRefE, symObjAddr: 0x11CC, symBinAddr: 0x100004C6C, symSize: 0x7C }
  - { offsetInCU: 0xD69B, offset: 0xD69B, size: 0x8, addend: 0x0, symName: __ZN5Catch24handleExceptionMatchExprERNS_16AssertionHandlerERKNS_8Matchers4Impl11MatcherBaseINSt3__112basic_stringIcNS5_11char_traitsIcEENS5_9allocatorIcEEEEEERKNS_9StringRefE, symObjAddr: 0x1248, symBinAddr: 0x100004CE8, symSize: 0xA4 }
  - { offsetInCU: 0xD701, offset: 0xD701, size: 0x8, addend: 0x0, symName: __ZN5Catch4isOkENS_9ResultWas6OfTypeE, symObjAddr: 0x16AC, symBinAddr: 0x10000514C, symSize: 0x20 }
  - { offsetInCU: 0xD72F, offset: 0xD72F, size: 0x8, addend: 0x0, symName: __ZN5Catch21shouldSuppressFailureEi, symObjAddr: 0x1724, symBinAddr: 0x1000051C4, symSize: 0x20 }
  - { offsetInCU: 0xD75D, offset: 0xD75D, size: 0x8, addend: 0x0, symName: __ZN5Catch11isFalseTestEi, symObjAddr: 0x1930, symBinAddr: 0x1000053D0, symSize: 0x20 }
  - { offsetInCU: 0xD78B, offset: 0xD78B, size: 0x8, addend: 0x0, symName: __ZN5CatchpLERNSt3__112basic_stringIcNS0_11char_traitsIcEENS0_9allocatorIcEEEERKNS_9StringRefE, symObjAddr: 0x197C, symBinAddr: 0x10000541C, symSize: 0x50 }
  - { offsetInCU: 0xD869, offset: 0xD869, size: 0x8, addend: 0x0, symName: __ZN5CatchlsERNSt3__113basic_ostreamIcNS0_11char_traitsIcEEEERKNS_14SourceLineInfoE, symObjAddr: 0x5A08, symBinAddr: 0x1000094A8, symSize: 0x48 }
  - { offsetInCU: 0xD8C7, offset: 0xD8C7, size: 0x8, addend: 0x0, symName: __ZN5Catch10makeStreamERKNS_9StringRefE, symObjAddr: 0x6898, symBinAddr: 0x10000A338, symSize: 0x1F4 }
  - { offsetInCU: 0xD8F5, offset: 0xD8F5, size: 0x8, addend: 0x0, symName: __ZN5CatchlsERNSt3__113basic_ostreamIcNS0_11char_traitsIcEEEERKNS_6ColourE, symObjAddr: 0x6E94, symBinAddr: 0x10000A934, symSize: 0x18 }
  - { offsetInCU: 0xDA51, offset: 0xDA51, size: 0x8, addend: 0x0, symName: __ZN5Catch14cleanUpContextEv, symObjAddr: 0x6F48, symBinAddr: 0x10000A9E8, symSize: 0x50 }
  - { offsetInCU: 0xDA6B, offset: 0xDA6B, size: 0x8, addend: 0x0, symName: __ZN5Catch19writeToDebugConsoleERKNSt3__112basic_stringIcNS0_11char_traitsIcEENS0_9allocatorIcEEEE, symObjAddr: 0x7204, symBinAddr: 0x10000ACA4, symSize: 0x28 }
  - { offsetInCU: 0xDA95, offset: 0xDA95, size: 0x8, addend: 0x0, symName: __ZN5Catch4coutEv, symObjAddr: 0x7278, symBinAddr: 0x10000AD18, symSize: 0xC }
  - { offsetInCU: 0xDAB3, offset: 0xDAB3, size: 0x8, addend: 0x0, symName: __ZN5Catch16isDebuggerActiveEv, symObjAddr: 0x7284, symBinAddr: 0x10000AD24, symSize: 0x118 }
  - { offsetInCU: 0xDAFF, offset: 0xDAFF, size: 0x8, addend: 0x0, symName: __ZN5Catch4cerrEv, symObjAddr: 0x739C, symBinAddr: 0x10000AE3C, symSize: 0xC }
  - { offsetInCU: 0xDB1D, offset: 0xDB1D, size: 0x8, addend: 0x0, symName: __ZN5Catch29formatReconstructedExpressionERNSt3__113basic_ostreamIcNS0_11char_traitsIcEEEERKNS0_12basic_stringIcS3_NS0_9allocatorIcEEEENS_9StringRefESB_, symObjAddr: 0x7460, symBinAddr: 0x10000AF00, symSize: 0x10C }
  - { offsetInCU: 0xDB74, offset: 0xDB74, size: 0x8, addend: 0x0, symName: __ZN5CatchlsERNSt3__113basic_ostreamIcNS0_11char_traitsIcEEEERKNS_9StringRefE, symObjAddr: 0x75C0, symBinAddr: 0x10000B060, symSize: 0x4C }
  - { offsetInCU: 0xDBB1, offset: 0xDBB1, size: 0x8, addend: 0x0, symName: __ZN5Catch17throw_logic_errorERKNSt3__112basic_stringIcNS0_11char_traitsIcEENS0_9allocatorIcEEEE, symObjAddr: 0x760C, symBinAddr: 0x10000B0AC, symSize: 0x50 }
  - { offsetInCU: 0xDBDB, offset: 0xDBDB, size: 0x8, addend: 0x0, symName: __ZN5Catch15throw_exceptionISt11logic_errorEEvRKT_, symObjAddr: 0x765C, symBinAddr: 0x10000B0FC, symSize: 0x3C }
  - { offsetInCU: 0xDC0E, offset: 0xDC0E, size: 0x8, addend: 0x0, symName: __ZN5Catch15throw_exceptionISt12domain_errorEEvRKT_, symObjAddr: 0x7698, symBinAddr: 0x10000B138, symSize: 0x3C }
  - { offsetInCU: 0xDC41, offset: 0xDC41, size: 0x8, addend: 0x0, symName: __ZN5Catch19throw_runtime_errorERKNSt3__112basic_stringIcNS0_11char_traitsIcEENS0_9allocatorIcEEEE, symObjAddr: 0x7708, symBinAddr: 0x10000B1A8, symSize: 0x50 }
  - { offsetInCU: 0xDC6B, offset: 0xDC6B, size: 0x8, addend: 0x0, symName: __ZN5Catch15throw_exceptionISt13runtime_errorEEvRKT_, symObjAddr: 0x7758, symBinAddr: 0x10000B1F8, symSize: 0x3C }
  - { offsetInCU: 0xDC9E, offset: 0xDC9E, size: 0x8, addend: 0x0, symName: __ZN5Catch14splitStringRefENS_9StringRefEc, symObjAddr: 0x795C, symBinAddr: 0x10000B3FC, symSize: 0x1D8 }
  - { offsetInCU: 0xDD0F, offset: 0xDD0F, size: 0x8, addend: 0x0, symName: __ZN5Catch4trimENS_9StringRefE, symObjAddr: 0x7D88, symBinAddr: 0x10000B828, symSize: 0x13C }
  - { offsetInCU: 0xDD89, offset: 0xDD89, size: 0x8, addend: 0x0, symName: __ZN5Catchli3_srEPKcm, symObjAddr: 0x81F8, symBinAddr: 0x10000BC98, symSize: 0x38 }
  - { offsetInCU: 0xDE7C, offset: 0xDE7C, size: 0x8, addend: 0x0, symName: __ZN5CatchL12handleSignalEi, symObjAddr: 0x933C, symBinAddr: 0x10000CDDC, symSize: 0xBC }
  - { offsetInCU: 0xDF04, offset: 0xDF04, size: 0x8, addend: 0x0, symName: __ZN5CatchL29restorePreviousSignalHandlersEv, symObjAddr: 0x9418, symBinAddr: 0x10000CEB8, symSize: 0x84 }
  - { offsetInCU: 0xDFA6, offset: 0xDFA6, size: 0x8, addend: 0x0, symName: __ZN5Catch7cleanUpEv, symObjAddr: 0xA7D8, symBinAddr: 0x10000E278, symSize: 0x18 }
  - { offsetInCU: 0xDFC0, offset: 0xDFC0, size: 0x8, addend: 0x0, symName: __ZN5Catch9listTestsERKNS_6ConfigE, symObjAddr: 0xA81C, symBinAddr: 0x10000E2BC, symSize: 0x640 }
  - { offsetInCU: 0xE09A, offset: 0xE09A, size: 0x8, addend: 0x0, symName: __ZN5Catch11filterTestsERKNSt3__16vectorINS_8TestCaseENS0_9allocatorIS2_EEEERKNS_8TestSpecERKNS_7IConfigE, symObjAddr: 0xAE5C, symBinAddr: 0x10000E8FC, symSize: 0x184 }
  - { offsetInCU: 0xE13D, offset: 0xE13D, size: 0x8, addend: 0x0, symName: __ZN5Catch21getAllTestCasesSortedERKNS_7IConfigE, symObjAddr: 0xAFE0, symBinAddr: 0x10000EA80, symSize: 0x3C }
  - { offsetInCU: 0xE16B, offset: 0xE16B, size: 0x8, addend: 0x0, symName: __ZN5CatchlsERNSt3__113basic_ostreamIcNS0_11char_traitsIcEEEERKNS_9pluraliseE, symObjAddr: 0xB4B8, symBinAddr: 0x10000EF58, symSize: 0x70 }
  - { offsetInCU: 0xE1F0, offset: 0xE1F0, size: 0x8, addend: 0x0, symName: __ZN5Catch18listTestsNamesOnlyERKNS_6ConfigE, symObjAddr: 0xB5E4, symBinAddr: 0x10000F084, symSize: 0x1F4 }
  - { offsetInCU: 0xE28C, offset: 0xE28C, size: 0x8, addend: 0x0, symName: __ZN5Catch10startsWithERKNSt3__112basic_stringIcNS0_11char_traitsIcEENS0_9allocatorIcEEEEc, symObjAddr: 0xB7D8, symBinAddr: 0x10000F278, symSize: 0x64 }
  - { offsetInCU: 0xE2C9, offset: 0xE2C9, size: 0x8, addend: 0x0, symName: __ZN5Catch8listTagsERKNS_6ConfigE, symObjAddr: 0xBB8C, symBinAddr: 0x10000F62C, symSize: 0x648 }
  - { offsetInCU: 0xE452, offset: 0xE452, size: 0x8, addend: 0x0, symName: __ZN5Catch7toLowerERKNSt3__112basic_stringIcNS0_11char_traitsIcEENS0_9allocatorIcEEEE, symObjAddr: 0xC2C0, symBinAddr: 0x10000FD60, symSize: 0xA0 }
  - { offsetInCU: 0xE490, offset: 0xE490, size: 0x8, addend: 0x0, symName: __ZN5Catch13listReportersEv, symObjAddr: 0xC7B4, symBinAddr: 0x100010254, symSize: 0x2FC }
  - { offsetInCU: 0xE55F, offset: 0xE55F, size: 0x8, addend: 0x0, symName: __ZN5Catch14getRegistryHubEv, symObjAddr: 0xCAB0, symBinAddr: 0x100010550, symSize: 0x14 }
  - { offsetInCU: 0xE57D, offset: 0xE57D, size: 0x8, addend: 0x0, symName: __ZN5Catch4listERKNSt3__110shared_ptrINS_6ConfigEEE, symObjAddr: 0xCF44, symBinAddr: 0x1000109E4, symSize: 0x26C }
  - { offsetInCU: 0xE74F, offset: 0xE74F, size: 0x8, addend: 0x0, symName: __ZN5Catch24getCurrentMutableContextEv, symObjAddr: 0xD1DC, symBinAddr: 0x100010C7C, symSize: 0x38 }
  - { offsetInCU: 0xE76D, offset: 0xE76D, size: 0x8, addend: 0x0, symName: __ZN5Catch8containsERKNSt3__112basic_stringIcNS0_11char_traitsIcEENS0_9allocatorIcEEEES8_, symObjAddr: 0xF634, symBinAddr: 0x1000130D4, symSize: 0x3C }
  - { offsetInCU: 0xE7AA, offset: 0xE7AA, size: 0x8, addend: 0x0, symName: __ZN5Catch10startsWithERKNSt3__112basic_stringIcNS0_11char_traitsIcEENS0_9allocatorIcEEEES8_, symObjAddr: 0xF7EC, symBinAddr: 0x10001328C, symSize: 0x98 }
  - { offsetInCU: 0xE7E7, offset: 0xE7E7, size: 0x8, addend: 0x0, symName: __ZN5Catch8endsWithERKNSt3__112basic_stringIcNS0_11char_traitsIcEENS0_9allocatorIcEEEES8_, symObjAddr: 0xFA00, symBinAddr: 0x1000134A0, symSize: 0xB0 }
  - { offsetInCU: 0xE824, offset: 0xE824, size: 0x8, addend: 0x0, symName: __ZN5Catch19uncaught_exceptionsEv, symObjAddr: 0x1040C, symBinAddr: 0x100013EAC, symSize: 0x20 }
  - { offsetInCU: 0xE9D8, offset: 0xE9D8, size: 0x8, addend: 0x0, symName: __ZN5Catch4clogEv, symObjAddr: 0x11380, symBinAddr: 0x100014E20, symSize: 0xC }
  - { offsetInCU: 0xEABD, offset: 0xEABD, size: 0x8, addend: 0x0, symName: __ZN5Catch5isnanEf, symObjAddr: 0x115C4, symBinAddr: 0x100015064, symSize: 0x28 }
  - { offsetInCU: 0xEAEB, offset: 0xEAEB, size: 0x8, addend: 0x0, symName: __ZN5Catch5isnanEd, symObjAddr: 0x1160C, symBinAddr: 0x1000150AC, symSize: 0x28 }
  - { offsetInCU: 0xEB19, offset: 0xEB19, size: 0x8, addend: 0x0, symName: __ZN5CatcheqERKNS_11SimplePcg32ES2_, symObjAddr: 0x11844, symBinAddr: 0x1000152E4, symSize: 0x30 }
  - { offsetInCU: 0xEB56, offset: 0xEB56, size: 0x8, addend: 0x0, symName: __ZN5CatchneERKNS_11SimplePcg32ES2_, symObjAddr: 0x11874, symBinAddr: 0x100015314, symSize: 0x30 }
  - { offsetInCU: 0xEB93, offset: 0xEB93, size: 0x8, addend: 0x0, symName: __ZN5Catch21getMutableRegistryHubEv, symObjAddr: 0x118B8, symBinAddr: 0x100015358, symSize: 0x14 }
  - { offsetInCU: 0xEBB1, offset: 0xEBB1, size: 0x8, addend: 0x0, symName: __ZN5Catch17cleanupSingletonsEv, symObjAddr: 0x118E4, symBinAddr: 0x100015384, symSize: 0xE0 }
  - { offsetInCU: 0xEC2A, offset: 0xEC2A, size: 0x8, addend: 0x0, symName: __ZN5Catch10isJustInfoEi, symObjAddr: 0x11E18, symBinAddr: 0x1000158B8, symSize: 0x20 }
  - { offsetInCU: 0xEC58, offset: 0xEC58, size: 0x8, addend: 0x0, symName: __ZN5CatchorENS_17ResultDisposition5FlagsES1_, symObjAddr: 0x11E38, symBinAddr: 0x1000158D8, symSize: 0x20 }
  - { offsetInCU: 0xEC95, offset: 0xEC95, size: 0x8, addend: 0x0, symName: __ZN5Catch23shouldContinueOnFailureEi, symObjAddr: 0x11E58, symBinAddr: 0x1000158F8, symSize: 0x20 }
  - { offsetInCU: 0xF3D4, offset: 0xF3D4, size: 0x8, addend: 0x0, symName: __ZN5Catch7seedRngERKNS_7IConfigE, symObjAddr: 0x14F60, symBinAddr: 0x100018A00, symSize: 0x78 }
  - { offsetInCU: 0xF439, offset: 0xF439, size: 0x8, addend: 0x0, symName: __ZN5Catch7rngSeedEv, symObjAddr: 0x15ABC, symBinAddr: 0x10001955C, symSize: 0x30 }
  - { offsetInCU: 0xF4EF, offset: 0xF4EF, size: 0x8, addend: 0x0, symName: __ZN5CatchlsERNSt3__113basic_ostreamIcNS0_11char_traitsIcEEEERKNS_7VersionE, symObjAddr: 0x167D8, symBinAddr: 0x10001A278, symSize: 0xAC }
  - { offsetInCU: 0xF52C, offset: 0xF52C, size: 0x8, addend: 0x0, symName: __ZN5Catch12addSingletonEPNS_10ISingletonE, symObjAddr: 0x17CCC, symBinAddr: 0x10001B76C, symSize: 0x34 }
  - { offsetInCU: 0xF556, offset: 0xF556, size: 0x8, addend: 0x0, symName: __ZN5Catch8endsWithERKNSt3__112basic_stringIcNS0_11char_traitsIcEENS0_9allocatorIcEEEEc, symObjAddr: 0x187D0, symBinAddr: 0x10001C270, symSize: 0x78 }
  - { offsetInCU: 0xF593, offset: 0xF593, size: 0x8, addend: 0x0, symName: __ZN5Catch14toLowerInPlaceERNSt3__112basic_stringIcNS0_11char_traitsIcEENS0_9allocatorIcEEEE, symObjAddr: 0x188C0, symBinAddr: 0x10001C360, symSize: 0x5C }
  - { offsetInCU: 0xF5BD, offset: 0xF5BD, size: 0x8, addend: 0x0, symName: __ZN5Catch14replaceInPlaceERNSt3__112basic_stringIcNS0_11char_traitsIcEENS0_9allocatorIcEEEERKS6_S9_, symObjAddr: 0x18D04, symBinAddr: 0x10001C7A4, symSize: 0x1F0 }
  - { offsetInCU: 0xF64F, offset: 0xF64F, size: 0x8, addend: 0x0, symName: __ZN5Catch12makeTestCaseEPNS_12ITestInvokerERKNSt3__112basic_stringIcNS2_11char_traitsIcEENS2_9allocatorIcEEEERKNS_11NameAndTagsERKNS_14SourceLineInfoE, symObjAddr: 0x19D70, symBinAddr: 0x10001D810, symSize: 0x488 }
  - { offsetInCU: 0xF777, offset: 0xF777, size: 0x8, addend: 0x0, symName: __ZN5Catch7setTagsERNS_12TestCaseInfoENSt3__16vectorINS2_12basic_stringIcNS2_11char_traitsIcEENS2_9allocatorIcEEEENS7_IS9_EEEE, symObjAddr: 0x1A6E0, symBinAddr: 0x10001E180, symSize: 0x1D0 }
  - { offsetInCU: 0xF80A, offset: 0xF80A, size: 0x8, addend: 0x0, symName: __ZN5Catch9sortTestsERKNS_7IConfigERKNSt3__16vectorINS_8TestCaseENS3_9allocatorIS5_EEEE, symObjAddr: 0x1B188, symBinAddr: 0x10001EC28, symSize: 0x338 }
  - { offsetInCU: 0xF966, offset: 0xF966, size: 0x8, addend: 0x0, symName: __ZN5Catch11isThrowSafeERKNS_8TestCaseERKNS_7IConfigE, symObjAddr: 0x1BBB4, symBinAddr: 0x10001F654, symSize: 0x58 }
  - { offsetInCU: 0xF9A3, offset: 0xF9A3, size: 0x8, addend: 0x0, symName: __ZN5Catch9matchTestERKNS_8TestCaseERKNS_8TestSpecERKNS_7IConfigE, symObjAddr: 0x1BC0C, symBinAddr: 0x10001F6AC, symSize: 0x5C }
  - { offsetInCU: 0xF9EF, offset: 0xF9EF, size: 0x8, addend: 0x0, symName: __ZN5Catch27enforceNoDuplicateTestCasesERKNSt3__16vectorINS_8TestCaseENS0_9allocatorIS2_EEEE, symObjAddr: 0x1BCC4, symBinAddr: 0x10001F764, symSize: 0x228 }
  - { offsetInCU: 0xFAFD, offset: 0xFAFD, size: 0x8, addend: 0x0, symName: __ZN5Catch16extractClassNameERKNS_9StringRefE, symObjAddr: 0x1C4E0, symBinAddr: 0x10001FF80, symSize: 0x134 }
  - { offsetInCU: 0xFB67, offset: 0xFB67, size: 0x8, addend: 0x0, symName: __ZN5Catch15makeTestInvokerEPFvvE, symObjAddr: 0x1DFD4, symBinAddr: 0x100021A74, symSize: 0x88 }
  - { offsetInCU: 0xFB95, offset: 0xFB95, size: 0x8, addend: 0x0, symName: __ZN5Catch13parseTestSpecERKNSt3__112basic_stringIcNS0_11char_traitsIcEENS0_9allocatorIcEEEE, symObjAddr: 0x205FC, symBinAddr: 0x10002409C, symSize: 0xA0 }
  - { offsetInCU: 0xFBC3, offset: 0xFBC3, size: 0x8, addend: 0x0, symName: __ZN5Catch31getCurrentNanosecondsSinceEpochEv, symObjAddr: 0x2069C, symBinAddr: 0x10002413C, symSize: 0x4C }
  - { offsetInCU: 0xFF3D, offset: 0xFF3D, size: 0x8, addend: 0x0, symName: __ZN5Catch10fpToStringIfEENSt3__112basic_stringIcNS1_11char_traitsIcEENS1_9allocatorIcEEEET_i, symObjAddr: 0x21D6C, symBinAddr: 0x10002580C, symSize: 0x1F4 }
  - { offsetInCU: 0xFFB2, offset: 0xFFB2, size: 0x8, addend: 0x0, symName: __ZN5Catch10fpToStringIdEENSt3__112basic_stringIcNS1_11char_traitsIcEENS1_9allocatorIcEEEET_i, symObjAddr: 0x21F94, symBinAddr: 0x100025A34, symSize: 0x1F4 }
  - { offsetInCU: 0x100FF, offset: 0x100FF, size: 0x8, addend: 0x0, symName: __ZN5CatchorENS_13XmlFormattingES0_, symObjAddr: 0x2269C, symBinAddr: 0x10002613C, symSize: 0x20 }
  - { offsetInCU: 0x1013C, offset: 0x1013C, size: 0x8, addend: 0x0, symName: __ZN5CatchanENS_13XmlFormattingES0_, symObjAddr: 0x226BC, symBinAddr: 0x10002615C, symSize: 0x20 }
  - { offsetInCU: 0x10179, offset: 0x10179, size: 0x8, addend: 0x0, symName: __ZN5CatchlsERNSt3__113basic_ostreamIcNS0_11char_traitsIcEEEERKNS_9XmlEncodeE, symObjAddr: 0x22FF8, symBinAddr: 0x100026A98, symSize: 0x30 }
  - { offsetInCU: 0x101B6, offset: 0x101B6, size: 0x8, addend: 0x0, symName: __ZN5Catch25prepareExpandedExpressionERNS_15AssertionResultE, symObjAddr: 0x23BFC, symBinAddr: 0x10002769C, symSize: 0x34 }
  - { offsetInCU: 0x101E0, offset: 0x101E0, size: 0x8, addend: 0x0, symName: __ZN5Catch20getFormattedDurationEd, symObjAddr: 0x23C30, symBinAddr: 0x1000276D0, symSize: 0xC8 }
  - { offsetInCU: 0x1023C, offset: 0x1023C, size: 0x8, addend: 0x0, symName: __ZN5Catch18shouldShowDurationERKNS_7IConfigEd, symObjAddr: 0x23CF8, symBinAddr: 0x100027798, symSize: 0xEC }
  - { offsetInCU: 0x10288, offset: 0x10288, size: 0x8, addend: 0x0, symName: __ZN5Catch16serializeFiltersERKNSt3__16vectorINS0_12basic_stringIcNS0_11char_traitsIcEENS0_9allocatorIcEEEENS5_IS7_EEEE, symObjAddr: 0x23DE4, symBinAddr: 0x100027884, symSize: 0x100 }
  - { offsetInCU: 0x10858, offset: 0x10858, size: 0x8, addend: 0x0, symName: __ZN5CatchlsERNS_12TablePrinterENS_12_GLOBAL__N_18RowBreakE, symObjAddr: 0x8EFCC, symBinAddr: 0x100092A6C, symSize: 0x58 }
  - { offsetInCU: 0x10A4D, offset: 0x10A4D, size: 0x8, addend: 0x0, symName: __ZN5Catch6Colour3useENS0_4CodeE, symObjAddr: 0x6AF8, symBinAddr: 0x10000A598, symSize: 0xD8 }
  - { offsetInCU: 0x10A6F, offset: 0x10A6F, size: 0x8, addend: 0x0, symName: __ZZN5Catch6Colour3useENS0_4CodeEE4impl, symObjAddr: 0x708D18, symBinAddr: 0x10011C1D8, symSize: 0x0 }
  - { offsetInCU: 0x1F7CE, offset: 0x1F7CE, size: 0x8, addend: 0x0, symName: __ZNSt3__16chrono13duration_castB7v160006INS0_8durationIxNS_5ratioILl1ELl1000000000EEEEExS4_EENS_9enable_ifIXsr13__is_durationIT_EE5valueES7_E4typeERKNS2_IT0_T1_EE, symObjAddr: 0x206E8, symBinAddr: 0x100024188, symSize: 0x30 }
  - { offsetInCU: 0x3A335, offset: 0x3A335, size: 0x8, addend: 0x0, symName: __ZNSt3__16ranges5__cpo9iter_moveE, symObjAddr: 0xFFC19, symBinAddr: 0x100107A69, symSize: 0x0 }
  - { offsetInCU: 0x4E4C0, offset: 0x4E4C0, size: 0x8, addend: 0x0, symName: __ZNSt3__115regex_constantsoRB7v160006ERNS0_18syntax_option_typeES1_, symObjAddr: 0xFC68, symBinAddr: 0x100013708, symSize: 0x3C }
  - { offsetInCU: 0x4E4FD, offset: 0x4E4FD, size: 0x8, addend: 0x0, symName: __ZNSt3__115regex_constantsorB7v160006ENS0_18syntax_option_typeES1_, symObjAddr: 0x51BD8, symBinAddr: 0x100055678, symSize: 0x20 }
  - { offsetInCU: 0x4E53A, offset: 0x4E53A, size: 0x8, addend: 0x0, symName: __ZNSt3__115regex_constants13__get_grammarB7v160006ENS0_18syntax_option_typeE, symObjAddr: 0xACB00, symBinAddr: 0x1000B05A0, symSize: 0x18 }
  - { offsetInCU: 0x4E568, offset: 0x4E568, size: 0x8, addend: 0x0, symName: __ZNSt3__115regex_constantsanB7v160006ENS0_18syntax_option_typeES1_, symObjAddr: 0xB0208, symBinAddr: 0x1000B3CA8, symSize: 0x20 }
  - { offsetInCU: 0x4E5A5, offset: 0x4E5A5, size: 0x8, addend: 0x0, symName: __ZNSt3__115regex_constantsanB7v160006ENS0_15match_flag_typeES1_, symObjAddr: 0xB0428, symBinAddr: 0x1000B3EC8, symSize: 0x20 }
  - { offsetInCU: 0x4E5E2, offset: 0x4E5E2, size: 0x8, addend: 0x0, symName: __ZNSt3__115regex_constantsorB7v160006ENS0_15match_flag_typeES1_, symObjAddr: 0xB1A34, symBinAddr: 0x1000B54D4, symSize: 0x20 }
  - { offsetInCU: 0x4E61F, offset: 0x4E61F, size: 0x8, addend: 0x0, symName: __ZNSt3__115regex_constantscoB7v160006ENS0_15match_flag_typeE, symObjAddr: 0xB1A54, symBinAddr: 0x1000B54F4, symSize: 0x1C }
  - { offsetInCU: 0x4E64D, offset: 0x4E64D, size: 0x8, addend: 0x0, symName: __ZNSt3__115regex_constantsaNB7v160006ERNS0_15match_flag_typeES1_, symObjAddr: 0xCA9F8, symBinAddr: 0x1000CE498, symSize: 0x3C }
  - { offsetInCU: 0x4E68A, offset: 0x4E68A, size: 0x8, addend: 0x0, symName: __ZNSt3__115regex_constantsoRB7v160006ERNS0_15match_flag_typeES1_, symObjAddr: 0xCABAC, symBinAddr: 0x1000CE64C, symSize: 0x3C }
  - { offsetInCU: 0x5EE8A, offset: 0x5EE8A, size: 0x8, addend: 0x0, symName: __ZNSt3__17advanceB7v160006IPN5Catch5clara6detail5TokenEllvEEvRT_T0_, symObjAddr: 0x34030, symBinAddr: 0x100037AD0, symSize: 0x50 }
  - { offsetInCU: 0x5FA62, offset: 0x5FA62, size: 0x8, addend: 0x0, symName: __ZNSt3__17advanceB7v160006INS_16reverse_iteratorIPN5Catch5clara6detail5TokenEEEllvEEvRT_T0_, symObjAddr: 0x39B44, symBinAddr: 0x10003D5E4, symSize: 0x50 }
  - { offsetInCU: 0x62032, offset: 0x62032, size: 0x8, addend: 0x0, symName: __ZNSt3__17advanceB7v160006IPNS_4pairIiN5Catch9StringRefEEEllvEEvRT_T0_, symObjAddr: 0x42AB0, symBinAddr: 0x100046550, symSize: 0x50 }
  - { offsetInCU: 0x622D4, offset: 0x622D4, size: 0x8, addend: 0x0, symName: __ZNSt3__17advanceB7v160006INS_16reverse_iteratorIPNS_4pairIiN5Catch9StringRefEEEEEllvEEvRT_T0_, symObjAddr: 0x42E9C, symBinAddr: 0x10004693C, symSize: 0x50 }
  - { offsetInCU: 0x626C5, offset: 0x626C5, size: 0x8, addend: 0x0, symName: __ZNSt3__17advanceB7v160006IPNS_10unique_ptrIN5Catch6Detail8EnumInfoENS_14default_deleteIS4_EEEEllvEEvRT_T0_, symObjAddr: 0x44998, symBinAddr: 0x100048438, symSize: 0x50 }
  - { offsetInCU: 0x62967, offset: 0x62967, size: 0x8, addend: 0x0, symName: __ZNSt3__17advanceB7v160006INS_16reverse_iteratorIPNS_10unique_ptrIN5Catch6Detail8EnumInfoENS_14default_deleteIS5_EEEEEEllvEEvRT_T0_, symObjAddr: 0x44DEC, symBinAddr: 0x10004888C, symSize: 0x50 }
  - { offsetInCU: 0x62D58, offset: 0x62D58, size: 0x8, addend: 0x0, symName: __ZNSt3__17advanceB7v160006IPNS_10unique_ptrIKN5Catch20IExceptionTranslatorENS_14default_deleteIS4_EEEEllvEEvRT_T0_, symObjAddr: 0x46718, symBinAddr: 0x10004A1B8, symSize: 0x50 }
  - { offsetInCU: 0x62FFA, offset: 0x62FFA, size: 0x8, addend: 0x0, symName: __ZNSt3__17advanceB7v160006INS_16reverse_iteratorIPNS_10unique_ptrIKN5Catch20IExceptionTranslatorENS_14default_deleteIS5_EEEEEEllvEEvRT_T0_, symObjAddr: 0x46AFC, symBinAddr: 0x10004A59C, symSize: 0x50 }
  - { offsetInCU: 0x63498, offset: 0x63498, size: 0x8, addend: 0x0, symName: __ZNSt3__17advanceB7v160006IPN5Catch11MessageInfoEllvEEvRT_T0_, symObjAddr: 0x47F04, symBinAddr: 0x10004B9A4, symSize: 0x50 }
  - { offsetInCU: 0x63888, offset: 0x63888, size: 0x8, addend: 0x0, symName: __ZNSt3__17advanceB7v160006INS_16reverse_iteratorIPN5Catch11MessageInfoEEEllvEEvRT_T0_, symObjAddr: 0x49050, symBinAddr: 0x10004CAF0, symSize: 0x50 }
  - { offsetInCU: 0x652BA, offset: 0x652BA, size: 0x8, addend: 0x0, symName: __ZNSt3__17advanceB7v160006IPN5Catch5clara8TextFlow6Column8iteratorEllvEEvRT_T0_, symObjAddr: 0x4CF18, symBinAddr: 0x1000509B8, symSize: 0x50 }
  - { offsetInCU: 0x6555C, offset: 0x6555C, size: 0x8, addend: 0x0, symName: __ZNSt3__17advanceB7v160006INS_16reverse_iteratorIPN5Catch5clara8TextFlow6Column8iteratorEEEllvEEvRT_T0_, symObjAddr: 0x4D360, symBinAddr: 0x100050E00, symSize: 0x50 }
  - { offsetInCU: 0x655CC, offset: 0x655CC, size: 0x8, addend: 0x0, symName: __ZNSt3__16copy_nB7v160006IPKcmPcEENS_9enable_ifIXsr33__is_cpp17_random_access_iteratorIT_EE5valueET1_E4typeES5_T0_S6_, symObjAddr: 0x4EA3C, symBinAddr: 0x1000524DC, symSize: 0x44 }
  - { offsetInCU: 0x659DB, offset: 0x659DB, size: 0x8, addend: 0x0, symName: __ZNSt3__17advanceB7v160006IPN5Catch5clara8TextFlow6ColumnEllvEEvRT_T0_, symObjAddr: 0x508F4, symBinAddr: 0x100054394, symSize: 0x50 }
  - { offsetInCU: 0x65C7D, offset: 0x65C7D, size: 0x8, addend: 0x0, symName: __ZNSt3__17advanceB7v160006INS_16reverse_iteratorIPN5Catch5clara8TextFlow6ColumnEEEllvEEvRT_T0_, symObjAddr: 0x50D50, symBinAddr: 0x1000547F0, symSize: 0x50 }
  - { offsetInCU: 0x669F8, offset: 0x669F8, size: 0x8, addend: 0x0, symName: __ZNSt3__17advanceB7v160006IPNS_10shared_ptrIN5Catch16IReporterFactoryEEEllvEEvRT_T0_, symObjAddr: 0x54440, symBinAddr: 0x100057EE0, symSize: 0x50 }
  - { offsetInCU: 0x66C9A, offset: 0x66C9A, size: 0x8, addend: 0x0, symName: __ZNSt3__17advanceB7v160006INS_16reverse_iteratorIPNS_10shared_ptrIN5Catch16IReporterFactoryEEEEEllvEEvRT_T0_, symObjAddr: 0x54824, symBinAddr: 0x1000582C4, symSize: 0x50 }
  - { offsetInCU: 0x6BF98, offset: 0x6BF98, size: 0x8, addend: 0x0, symName: __ZNSt3__17advanceB7v160006IPN5Catch14SectionEndInfoEllvEEvRT_T0_, symObjAddr: 0x59C78, symBinAddr: 0x10005D718, symSize: 0x50 }
  - { offsetInCU: 0x6C23A, offset: 0x6C23A, size: 0x8, addend: 0x0, symName: __ZNSt3__17advanceB7v160006INS_16reverse_iteratorIPN5Catch14SectionEndInfoEEEllvEEvRT_T0_, symObjAddr: 0x5A064, symBinAddr: 0x10005DB04, symSize: 0x50 }
  - { offsetInCU: 0x6C62B, offset: 0x6C62B, size: 0x8, addend: 0x0, symName: __ZNSt3__17advanceB7v160006IPN5Catch13ScopedMessageEllvEEvRT_T0_, symObjAddr: 0x5BA98, symBinAddr: 0x10005F538, symSize: 0x50 }
  - { offsetInCU: 0x6C8CD, offset: 0x6C8CD, size: 0x8, addend: 0x0, symName: __ZNSt3__17advanceB7v160006INS_16reverse_iteratorIPN5Catch13ScopedMessageEEEllvEEvRT_T0_, symObjAddr: 0x5BE84, symBinAddr: 0x10005F924, symSize: 0x50 }
  - { offsetInCU: 0x6CD6B, offset: 0x6CD6B, size: 0x8, addend: 0x0, symName: __ZNSt3__17advanceB7v160006IPN5Catch5clara6detail11HelpColumnsEllvEEvRT_T0_, symObjAddr: 0x5FAD0, symBinAddr: 0x100063570, symSize: 0x50 }
  - { offsetInCU: 0x6CDDB, offset: 0x6CDDB, size: 0x8, addend: 0x0, symName: __ZNSt3__17advanceB7v160006INS_11__wrap_iterIPN5Catch5clara6detail11HelpColumnsEEEllvEEvRT_T0_, symObjAddr: 0x5FFCC, symBinAddr: 0x100063A6C, symSize: 0x50 }
  - { offsetInCU: 0x6D1E8, offset: 0x6D1E8, size: 0x8, addend: 0x0, symName: __ZNSt3__17advanceB7v160006INS_16reverse_iteratorIPN5Catch5clara6detail11HelpColumnsEEEllvEEvRT_T0_, symObjAddr: 0x61E94, symBinAddr: 0x100065934, symSize: 0x50 }
  - { offsetInCU: 0x6D8AD, offset: 0x6D8AD, size: 0x8, addend: 0x0, symName: __ZNSt3__17advanceB7v160006IPNS_12basic_stringIcNS_11char_traitsIcEENS_9allocatorIcEEEEllvEEvRT_T0_, symObjAddr: 0x63E48, symBinAddr: 0x1000678E8, symSize: 0x50 }
  - { offsetInCU: 0x6D91D, offset: 0x6D91D, size: 0x8, addend: 0x0, symName: __ZNSt3__17advanceB7v160006IPNS_12basic_stringIcNS_11char_traitsIcEENS_9allocatorIcEEEEmmvEEvRT_T0_, symObjAddr: 0x644DC, symBinAddr: 0x100067F7C, symSize: 0x50 }
  - { offsetInCU: 0x6D98D, offset: 0x6D98D, size: 0x8, addend: 0x0, symName: __ZNSt3__17advanceB7v160006IPN5Catch5clara6detail3OptEmmvEEvRT_T0_, symObjAddr: 0x65378, symBinAddr: 0x100068E18, symSize: 0x50 }
  - { offsetInCU: 0x6DD52, offset: 0x6DD52, size: 0x8, addend: 0x0, symName: __ZNSt3__17advanceB7v160006IPN5Catch5clara6detail3OptEllvEEvRT_T0_, symObjAddr: 0x66508, symBinAddr: 0x100069FA8, symSize: 0x50 }
  - { offsetInCU: 0x6DDC2, offset: 0x6DDC2, size: 0x8, addend: 0x0, symName: __ZNSt3__17advanceB7v160006IPN5Catch5clara6detail3ArgEmmvEEvRT_T0_, symObjAddr: 0x66A04, symBinAddr: 0x10006A4A4, symSize: 0x50 }
  - { offsetInCU: 0x6E187, offset: 0x6E187, size: 0x8, addend: 0x0, symName: __ZNSt3__17advanceB7v160006IPN5Catch5clara6detail3ArgEllvEEvRT_T0_, symObjAddr: 0x67A4C, symBinAddr: 0x10006B4EC, symSize: 0x50 }
  - { offsetInCU: 0x6E577, offset: 0x6E577, size: 0x8, addend: 0x0, symName: __ZNSt3__17advanceB7v160006INS_16reverse_iteratorIPNS_12basic_stringIcNS_11char_traitsIcEENS_9allocatorIcEEEEEEllvEEvRT_T0_, symObjAddr: 0x689C0, symBinAddr: 0x10006C460, symSize: 0x50 }
  - { offsetInCU: 0x6FD8F, offset: 0x6FD8F, size: 0x8, addend: 0x0, symName: __ZNSt3__17advanceB7v160006INS_21__tree_const_iteratorIPKN5Catch8TestCaseEPNS_11__tree_nodeIS5_PvEElEEllvEEvRT_T0_, symObjAddr: 0x6C9F8, symBinAddr: 0x100070498, symSize: 0x50 }
  - { offsetInCU: 0x703A4, offset: 0x703A4, size: 0x8, addend: 0x0, symName: __ZNSt3__17advanceB7v160006IPSt13exception_ptrllvEEvRT_T0_, symObjAddr: 0x6FBE0, symBinAddr: 0x100073680, symSize: 0x50 }
  - { offsetInCU: 0x70646, offset: 0x70646, size: 0x8, addend: 0x0, symName: __ZNSt3__17advanceB7v160006INS_16reverse_iteratorIPSt13exception_ptrEEllvEEvRT_T0_, symObjAddr: 0x70034, symBinAddr: 0x100073AD4, symSize: 0x50 }
  - { offsetInCU: 0x70A37, offset: 0x70A37, size: 0x8, addend: 0x0, symName: __ZNSt3__17advanceB7v160006IPNS_10unique_ptrINS_19basic_ostringstreamIcNS_11char_traitsIcEENS_9allocatorIcEEEENS_14default_deleteIS7_EEEEllvEEvRT_T0_, symObjAddr: 0x727B4, symBinAddr: 0x100076254, symSize: 0x50 }
  - { offsetInCU: 0x70CD9, offset: 0x70CD9, size: 0x8, addend: 0x0, symName: __ZNSt3__17advanceB7v160006INS_16reverse_iteratorIPNS_10unique_ptrINS_19basic_ostringstreamIcNS_11char_traitsIcEENS_9allocatorIcEEEENS_14default_deleteIS8_EEEEEEllvEEvRT_T0_, symObjAddr: 0x72C08, symBinAddr: 0x1000766A8, symSize: 0x50 }
  - { offsetInCU: 0x70D49, offset: 0x70D49, size: 0x8, addend: 0x0, symName: __ZNSt3__17advanceB7v160006IPKNS_12basic_stringIcNS_11char_traitsIcEENS_9allocatorIcEEEEllvEEvRT_T0_, symObjAddr: 0x744C4, symBinAddr: 0x100077F64, symSize: 0x50 }
  - { offsetInCU: 0x70DB8, offset: 0x70DB8, size: 0x8, addend: 0x0, symName: __ZNSt3__111__introsortINS_17_ClassicAlgPolicyERNS_6__lessINS_12basic_stringIcNS_11char_traitsIcEENS_9allocatorIcEEEES8_EEPS8_EEvT1_SC_T0_NS_15iterator_traitsISC_E15difference_typeE, symObjAddr: 0x755BC, symBinAddr: 0x10007905C, symSize: 0x6D0 }
  - { offsetInCU: 0x70F14, offset: 0x70F14, size: 0x8, addend: 0x0, symName: __ZNSt3__118__insertion_sort_3B7v160006INS_17_ClassicAlgPolicyERNS_6__lessINS_12basic_stringIcNS_11char_traitsIcEENS_9allocatorIcEEEES8_EEPS8_EEvT1_SC_T0_, symObjAddr: 0x75E10, symBinAddr: 0x1000798B0, symSize: 0x17C }
  - { offsetInCU: 0x70FD8, offset: 0x70FD8, size: 0x8, addend: 0x0, symName: __ZNSt3__111__sift_downB7v160006INS_17_ClassicAlgPolicyERNS_6__lessINS_12basic_stringIcNS_11char_traitsIcEENS_9allocatorIcEEEES8_EEPS8_EEvT1_OT0_NS_15iterator_traitsISC_E15difference_typeESC_, symObjAddr: 0x76998, symBinAddr: 0x10007A438, symSize: 0x254 }
  - { offsetInCU: 0x7108F, offset: 0x7108F, size: 0x8, addend: 0x0, symName: __ZNSt3__117__floyd_sift_downB7v160006INS_17_ClassicAlgPolicyERNS_6__lessINS_12basic_stringIcNS_11char_traitsIcEENS_9allocatorIcEEEES8_EEPS8_EET1_SC_OT0_NS_15iterator_traitsISC_E15difference_typeE, symObjAddr: 0x76DB4, symBinAddr: 0x10007A854, symSize: 0x108 }
  - { offsetInCU: 0x7112E, offset: 0x7112E, size: 0x8, addend: 0x0, symName: __ZNSt3__127__insertion_sort_incompleteIRNS_6__lessINS_12basic_stringIcNS_11char_traitsIcEENS_9allocatorIcEEEES7_EEPS7_EEbT0_SB_T_, symObjAddr: 0x761B8, symBinAddr: 0x100079C58, symSize: 0x36C }
  - { offsetInCU: 0x717F6, offset: 0x717F6, size: 0x8, addend: 0x0, symName: __ZNSt3__17advanceB7v160006IPN5Catch8TestCaseEllvEEvRT_T0_, symObjAddr: 0x78950, symBinAddr: 0x10007C3F0, symSize: 0x50 }
  - { offsetInCU: 0x71865, offset: 0x71865, size: 0x8, addend: 0x0, symName: __ZNSt3__111__introsortINS_17_ClassicAlgPolicyERNS_6__lessIN5Catch8TestCaseES4_EEPS4_EEvT1_S8_T0_NS_15iterator_traitsIS8_E15difference_typeE, symObjAddr: 0x78BE8, symBinAddr: 0x10007C688, symSize: 0x6D0 }
  - { offsetInCU: 0x719C1, offset: 0x719C1, size: 0x8, addend: 0x0, symName: __ZNSt3__118__insertion_sort_3B7v160006INS_17_ClassicAlgPolicyERNS_6__lessIN5Catch8TestCaseES4_EEPS4_EEvT1_S8_T0_, symObjAddr: 0x79404, symBinAddr: 0x10007CEA4, symSize: 0x1B8 }
  - { offsetInCU: 0x71A85, offset: 0x71A85, size: 0x8, addend: 0x0, symName: __ZNSt3__111__sift_downB7v160006INS_17_ClassicAlgPolicyERNS_6__lessIN5Catch8TestCaseES4_EEPS4_EEvT1_OT0_NS_15iterator_traitsIS8_E15difference_typeES8_, symObjAddr: 0x7A19C, symBinAddr: 0x10007DC3C, symSize: 0x294 }
  - { offsetInCU: 0x71B3C, offset: 0x71B3C, size: 0x8, addend: 0x0, symName: __ZNSt3__117__floyd_sift_downB7v160006INS_17_ClassicAlgPolicyERNS_6__lessIN5Catch8TestCaseES4_EEPS4_EET1_S8_OT0_NS_15iterator_traitsIS8_E15difference_typeE, symObjAddr: 0x7A618, symBinAddr: 0x10007E0B8, symSize: 0x108 }
  - { offsetInCU: 0x71BDB, offset: 0x71BDB, size: 0x8, addend: 0x0, symName: __ZNSt3__127__insertion_sort_incompleteIRNS_6__lessIN5Catch8TestCaseES3_EEPS3_EEbT0_S7_T_, symObjAddr: 0x797E8, symBinAddr: 0x10007D288, symSize: 0x374 }
  - { offsetInCU: 0x7399B, offset: 0x7399B, size: 0x8, addend: 0x0, symName: __ZNSt3__17advanceB7v160006IPNS_4pairIyPKN5Catch8TestCaseEEEllvEEvRT_T0_, symObjAddr: 0x7B954, symBinAddr: 0x10007F3F4, symSize: 0x50 }
  - { offsetInCU: 0x73C3D, offset: 0x73C3D, size: 0x8, addend: 0x0, symName: __ZNSt3__17advanceB7v160006INS_16reverse_iteratorIPNS_4pairIyPKN5Catch8TestCaseEEEEEllvEEvRT_T0_, symObjAddr: 0x7BD94, symBinAddr: 0x10007F834, symSize: 0x50 }
  - { offsetInCU: 0x73CAC, offset: 0x73CAC, size: 0x8, addend: 0x0, symName: '__ZNSt3__111__introsortINS_17_ClassicAlgPolicyERZN5Catch9sortTestsERKNS2_7IConfigERKNS_6vectorINS2_8TestCaseENS_9allocatorIS7_EEEEE4$_15PNS_4pairIyPKS7_EEEEvT1_SK_T0_NS_15iterator_traitsISK_E15difference_typeE', symObjAddr: 0x7C76C, symBinAddr: 0x10008020C, symSize: 0x6B8 }
  - { offsetInCU: 0x73E08, offset: 0x73E08, size: 0x8, addend: 0x0, symName: '__ZNSt3__118__insertion_sort_3B7v160006INS_17_ClassicAlgPolicyERZN5Catch9sortTestsERKNS2_7IConfigERKNS_6vectorINS2_8TestCaseENS_9allocatorIS7_EEEEE4$_15PNS_4pairIyPKS7_EEEEvT1_SK_T0_', symObjAddr: 0x7CFF0, symBinAddr: 0x100080A90, symSize: 0x144 }
  - { offsetInCU: 0x73EDC, offset: 0x73EDC, size: 0x8, addend: 0x0, symName: '__ZNSt3__111__sift_downB7v160006INS_17_ClassicAlgPolicyERZN5Catch9sortTestsERKNS2_7IConfigERKNS_6vectorINS2_8TestCaseENS_9allocatorIS7_EEEEE4$_15PNS_4pairIyPKS7_EEEEvT1_OT0_NS_15iterator_traitsISK_E15difference_typeESK_', symObjAddr: 0x7DAD0, symBinAddr: 0x100081570, symSize: 0x20C }
  - { offsetInCU: 0x73F93, offset: 0x73F93, size: 0x8, addend: 0x0, symName: '__ZNSt3__117__floyd_sift_downB7v160006INS_17_ClassicAlgPolicyERZN5Catch9sortTestsERKNS2_7IConfigERKNS_6vectorINS2_8TestCaseENS_9allocatorIS7_EEEEE4$_15PNS_4pairIyPKS7_EEEET1_SK_OT0_NS_15iterator_traitsISK_E15difference_typeE', symObjAddr: 0x7DE60, symBinAddr: 0x100081900, symSize: 0x100 }
  - { offsetInCU: 0x74032, offset: 0x74032, size: 0x8, addend: 0x0, symName: '__ZNSt3__127__insertion_sort_incompleteIRZN5Catch9sortTestsERKNS1_7IConfigERKNS_6vectorINS1_8TestCaseENS_9allocatorIS6_EEEEE4$_15PNS_4pairIyPKS6_EEEEbT0_SJ_T_', symObjAddr: 0x7D360, symBinAddr: 0x100080E00, symSize: 0x310 }
  - { offsetInCU: 0x744BA, offset: 0x744BA, size: 0x8, addend: 0x0, symName: __ZNSt3__17advanceB7v160006INS_16reverse_iteratorIPN5Catch8TestCaseEEEllvEEvRT_T0_, symObjAddr: 0x7EEDC, symBinAddr: 0x10008297C, symSize: 0x50 }
  - { offsetInCU: 0x7487F, offset: 0x7487F, size: 0x8, addend: 0x0, symName: __ZNSt3__17advanceB7v160006IPNS_10shared_ptrIN5Catch16TestCaseTracking8ITrackerEEEllvEEvRT_T0_, symObjAddr: 0x80FE4, symBinAddr: 0x100084A84, symSize: 0x50 }
  - { offsetInCU: 0x74B21, offset: 0x74B21, size: 0x8, addend: 0x0, symName: __ZNSt3__17advanceB7v160006INS_16reverse_iteratorIPNS_10shared_ptrIN5Catch16TestCaseTracking8ITrackerEEEEEllvEEvRT_T0_, symObjAddr: 0x813C8, symBinAddr: 0x100084E68, symSize: 0x50 }
  - { offsetInCU: 0x74B91, offset: 0x74B91, size: 0x8, addend: 0x0, symName: __ZNSt3__17advanceB7v160006INS_11__wrap_iterIPKNS_12basic_stringIcNS_11char_traitsIcEENS_9allocatorIcEEEEEEllvEEvRT_T0_, symObjAddr: 0x81AEC, symBinAddr: 0x10008558C, symSize: 0x50 }
  - { offsetInCU: 0x75151, offset: 0x75151, size: 0x8, addend: 0x0, symName: __ZNSt3__17advanceB7v160006IPPKN5Catch8TestCaseEllvEEvRT_T0_, symObjAddr: 0x84FC4, symBinAddr: 0x100088A64, symSize: 0x50 }
  - { offsetInCU: 0x75842, offset: 0x75842, size: 0x8, addend: 0x0, symName: __ZNSt3__17advanceB7v160006IPNS_10shared_ptrIN5Catch8TestSpec7PatternEEEllvEEvRT_T0_, symObjAddr: 0x870F0, symBinAddr: 0x10008AB90, symSize: 0x50 }
  - { offsetInCU: 0x75AE5, offset: 0x75AE5, size: 0x8, addend: 0x0, symName: __ZNSt3__17advanceB7v160006IPN5Catch8TestSpec6FilterEllvEEvRT_T0_, symObjAddr: 0x87740, symBinAddr: 0x10008B1E0, symSize: 0x50 }
  - { offsetInCU: 0x76108, offset: 0x76108, size: 0x8, addend: 0x0, symName: __ZNSt3__17advanceB7v160006INS_16reverse_iteratorIPN5Catch8TestSpec6FilterEEEllvEEvRT_T0_, symObjAddr: 0x89AB4, symBinAddr: 0x10008D554, symSize: 0x50 }
  - { offsetInCU: 0x764F8, offset: 0x764F8, size: 0x8, addend: 0x0, symName: __ZNSt3__17advanceB7v160006INS_16reverse_iteratorIPNS_10shared_ptrIN5Catch8TestSpec7PatternEEEEEllvEEvRT_T0_, symObjAddr: 0x8AE98, symBinAddr: 0x10008E938, symSize: 0x50 }
  - { offsetInCU: 0x76A40, offset: 0x76A40, size: 0x8, addend: 0x0, symName: __ZNSt3__17advanceB7v160006IPN5Catch12_GLOBAL__N_110ColumnInfoEllvEEvRT_T0_, symObjAddr: 0x8DEA0, symBinAddr: 0x100091940, symSize: 0x50 }
  - { offsetInCU: 0x76E31, offset: 0x76E31, size: 0x8, addend: 0x0, symName: __ZNSt3__17advanceB7v160006IPN5Catch13SummaryColumnEllvEEvRT_T0_, symObjAddr: 0x90410, symBinAddr: 0x100093EB0, symSize: 0x50 }
  - { offsetInCU: 0x770D3, offset: 0x770D3, size: 0x8, addend: 0x0, symName: __ZNSt3__17advanceB7v160006INS_16reverse_iteratorIPN5Catch13SummaryColumnEEEllvEEvRT_T0_, symObjAddr: 0x9086C, symBinAddr: 0x10009430C, symSize: 0x50 }
  - { offsetInCU: 0x78CB4, offset: 0x78CB4, size: 0x8, addend: 0x0, symName: __ZNSt3__17advanceB7v160006IPNS_10unique_ptrIN5Catch18IStreamingReporterENS_14default_deleteIS3_EEEEllvEEvRT_T0_, symObjAddr: 0x94A0C, symBinAddr: 0x1000984AC, symSize: 0x50 }
  - { offsetInCU: 0x78F56, offset: 0x78F56, size: 0x8, addend: 0x0, symName: __ZNSt3__17advanceB7v160006INS_16reverse_iteratorIPNS_10unique_ptrIN5Catch18IStreamingReporterENS_14default_deleteIS4_EEEEEEllvEEvRT_T0_, symObjAddr: 0x94E60, symBinAddr: 0x100098900, symSize: 0x50 }
  - { offsetInCU: 0x78FC5, offset: 0x78FC5, size: 0x8, addend: 0x0, symName: __ZNSt3__124__put_character_sequenceB7v160006IcNS_11char_traitsIcEEEERNS_13basic_ostreamIT_T0_EES7_PKS4_m, symObjAddr: 0x969E4, symBinAddr: 0x10009A484, symSize: 0x1E0 }
  - { offsetInCU: 0x79699, offset: 0x79699, size: 0x8, addend: 0x0, symName: __ZNSt3__17advanceB7v160006INS_16reverse_iteratorIPN5Catch5clara6detail3OptEEEllvEEvRT_T0_, symObjAddr: 0x98FC0, symBinAddr: 0x10009CA60, symSize: 0x50 }
  - { offsetInCU: 0x7D1EC, offset: 0x7D1EC, size: 0x8, addend: 0x0, symName: __ZNSt3__17advanceB7v160006INS_16reverse_iteratorIPN5Catch5clara6detail3ArgEEEllvEEvRT_T0_, symObjAddr: 0xA90B4, symBinAddr: 0x1000ACB54, symSize: 0x50 }
  - { offsetInCU: 0x80C5A, offset: 0x80C5A, size: 0x8, addend: 0x0, symName: __ZNSt3__17advanceB7v160006IPKcllvEEvRT_T0_, symObjAddr: 0xB04E0, symBinAddr: 0x1000B3F80, symSize: 0x50 }
  - { offsetInCU: 0x80CCA, offset: 0x80CCA, size: 0x8, addend: 0x0, symName: __ZNSt3__17advanceB7v160006INS_11__wrap_iterIPKcEEllvEEvRT_T0_, symObjAddr: 0xB0778, symBinAddr: 0x1000B4218, symSize: 0x50 }
  - { offsetInCU: 0x826FB, offset: 0x826FB, size: 0x8, addend: 0x0, symName: __ZNSt3__17advanceB7v160006IPNS_7__stateIcEEllvEEvRT_T0_, symObjAddr: 0xB4924, symBinAddr: 0x1000B83C4, symSize: 0x50 }
  - { offsetInCU: 0x8299D, offset: 0x8299D, size: 0x8, addend: 0x0, symName: __ZNSt3__17advanceB7v160006INS_16reverse_iteratorIPNS_7__stateIcEEEEllvEEvRT_T0_, symObjAddr: 0xB4D80, symBinAddr: 0x1000B8820, symSize: 0x50 }
  - { offsetInCU: 0x82D8E, offset: 0x82D8E, size: 0x8, addend: 0x0, symName: __ZNSt3__17advanceB7v160006IPNS_9sub_matchIPKcEEllvEEvRT_T0_, symObjAddr: 0xB644C, symBinAddr: 0x1000B9EEC, symSize: 0x50 }
  - { offsetInCU: 0x83030, offset: 0x83030, size: 0x8, addend: 0x0, symName: __ZNSt3__17advanceB7v160006INS_16reverse_iteratorIPNS_9sub_matchIPKcEEEEllvEEvRT_T0_, symObjAddr: 0xB6838, symBinAddr: 0x1000BA2D8, symSize: 0x50 }
  - { offsetInCU: 0x83421, offset: 0x83421, size: 0x8, addend: 0x0, symName: __ZNSt3__17advanceB7v160006IPNS_4pairImPKcEEllvEEvRT_T0_, symObjAddr: 0xB7C10, symBinAddr: 0x1000BB6B0, symSize: 0x50 }
  - { offsetInCU: 0x836C3, offset: 0x836C3, size: 0x8, addend: 0x0, symName: __ZNSt3__17advanceB7v160006INS_16reverse_iteratorIPNS_4pairImPKcEEEEllvEEvRT_T0_, symObjAddr: 0xB7FF4, symBinAddr: 0x1000BBA94, symSize: 0x50 }
  - { offsetInCU: 0x88319, offset: 0x88319, size: 0x8, addend: 0x0, symName: __ZNSt3__17advanceB7v160006IPNS_4pairINS_12basic_stringIcNS_11char_traitsIcEENS_9allocatorIcEEEES7_EEllvEEvRT_T0_, symObjAddr: 0xC45DC, symBinAddr: 0x1000C807C, symSize: 0x50 }
  - { offsetInCU: 0x885BB, offset: 0x885BB, size: 0x8, addend: 0x0, symName: __ZNSt3__17advanceB7v160006INS_16reverse_iteratorIPNS_4pairINS_12basic_stringIcNS_11char_traitsIcEENS_9allocatorIcEEEES8_EEEEllvEEvRT_T0_, symObjAddr: 0xC49C8, symBinAddr: 0x1000C8468, symSize: 0x50 }
  - { offsetInCU: 0x889AC, offset: 0x889AC, size: 0x8, addend: 0x0, symName: __ZNSt3__17advanceB7v160006IPNS_4pairIccEEllvEEvRT_T0_, symObjAddr: 0xC5C6C, symBinAddr: 0x1000C970C, symSize: 0x50 }
  - { offsetInCU: 0x88C4E, offset: 0x88C4E, size: 0x8, addend: 0x0, symName: __ZNSt3__17advanceB7v160006INS_16reverse_iteratorIPNS_4pairIccEEEEllvEEvRT_T0_, symObjAddr: 0xC6050, symBinAddr: 0x1000C9AF0, symSize: 0x50 }
  - { offsetInCU: 0x8B82F, offset: 0x8B82F, size: 0x8, addend: 0x0, symName: __ZNSt3__17advanceB7v160006IPNS_9sub_matchIPKcEEmmvEEvRT_T0_, symObjAddr: 0xCFC38, symBinAddr: 0x1000D36D8, symSize: 0x50 }
  - { offsetInCU: 0x8B89F, offset: 0x8B89F, size: 0x8, addend: 0x0, symName: __ZNSt3__17advanceB7v160006IPNS_4pairImPKcEEmmvEEvRT_T0_, symObjAddr: 0xD030C, symBinAddr: 0x1000D3DAC, symSize: 0x50 }
  - { offsetInCU: 0x8BC90, offset: 0x8BC90, size: 0x8, addend: 0x0, symName: __ZNSt3__17advanceB7v160006IPNS_9sub_matchINS_11__wrap_iterIPKcEEEEllvEEvRT_T0_, symObjAddr: 0xD1B60, symBinAddr: 0x1000D5600, symSize: 0x50 }
  - { offsetInCU: 0x8BF32, offset: 0x8BF32, size: 0x8, addend: 0x0, symName: __ZNSt3__17advanceB7v160006INS_16reverse_iteratorIPNS_9sub_matchINS_11__wrap_iterIPKcEEEEEEllvEEvRT_T0_, symObjAddr: 0xD1F4C, symBinAddr: 0x1000D59EC, symSize: 0x50 }
  - { offsetInCU: 0x8F63F, offset: 0x8F63F, size: 0x8, addend: 0x0, symName: __ZNSt3__17advanceB7v160006INS_21__tree_const_iteratorIN5Catch9VerbosityEPNS_11__tree_nodeIS3_PvEElEEllvEEvRT_T0_, symObjAddr: 0xE0E68, symBinAddr: 0x1000E4908, symSize: 0x50 }
  - { offsetInCU: 0x9022B, offset: 0x9022B, size: 0x8, addend: 0x0, symName: __ZNSt3__17advanceB7v160006IPN5Catch11SectionInfoEllvEEvRT_T0_, symObjAddr: 0xE3D48, symBinAddr: 0x1000E77E8, symSize: 0x50 }
  - { offsetInCU: 0x904CD, offset: 0x904CD, size: 0x8, addend: 0x0, symName: __ZNSt3__17advanceB7v160006INS_16reverse_iteratorIPN5Catch11SectionInfoEEEllvEEvRT_T0_, symObjAddr: 0xE412C, symBinAddr: 0x1000E7BCC, symSize: 0x50 }
  - { offsetInCU: 0x910C8, offset: 0x910C8, size: 0x8, addend: 0x0, symName: __ZNSt3__17advanceB7v160006IPN5Catch14AssertionStatsEllvEEvRT_T0_, symObjAddr: 0xE70B8, symBinAddr: 0x1000EAB58, symSize: 0x50 }
  - { offsetInCU: 0x9136A, offset: 0x9136A, size: 0x8, addend: 0x0, symName: __ZNSt3__17advanceB7v160006INS_16reverse_iteratorIPN5Catch14AssertionStatsEEEllvEEvRT_T0_, symObjAddr: 0xE74A4, symBinAddr: 0x1000EAF44, symSize: 0x50 }
  - { offsetInCU: 0x91B27, offset: 0x91B27, size: 0x8, addend: 0x0, symName: __ZNSt3__17advanceB7v160006IPNS_10shared_ptrIN5Catch22CumulativeReporterBaseINS2_13JunitReporterEE11SectionNodeEEEllvEEvRT_T0_, symObjAddr: 0xE9558, symBinAddr: 0x1000ECFF8, symSize: 0x50 }
  - { offsetInCU: 0x91DC9, offset: 0x91DC9, size: 0x8, addend: 0x0, symName: __ZNSt3__17advanceB7v160006INS_16reverse_iteratorIPNS_10shared_ptrIN5Catch22CumulativeReporterBaseINS3_13JunitReporterEE11SectionNodeEEEEEllvEEvRT_T0_, symObjAddr: 0xE993C, symBinAddr: 0x1000ED3DC, symSize: 0x50 }
  - { offsetInCU: 0x921BA, offset: 0x921BA, size: 0x8, addend: 0x0, symName: __ZNSt3__17advanceB7v160006IPNS_10shared_ptrIN5Catch22CumulativeReporterBaseINS2_13JunitReporterEE4NodeINS2_13TestCaseStatsENS5_11SectionNodeEEEEEllvEEvRT_T0_, symObjAddr: 0xEAC1C, symBinAddr: 0x1000EE6BC, symSize: 0x50 }
  - { offsetInCU: 0x9245C, offset: 0x9245C, size: 0x8, addend: 0x0, symName: __ZNSt3__17advanceB7v160006INS_16reverse_iteratorIPNS_10shared_ptrIN5Catch22CumulativeReporterBaseINS3_13JunitReporterEE4NodeINS3_13TestCaseStatsENS6_11SectionNodeEEEEEEEllvEEvRT_T0_, symObjAddr: 0xEB000, symBinAddr: 0x1000EEAA0, symSize: 0x50 }
  - { offsetInCU: 0x92C41, offset: 0x92C41, size: 0x8, addend: 0x0, symName: __ZNSt3__17advanceB7v160006IPNS_10shared_ptrIN5Catch22CumulativeReporterBaseINS2_13JunitReporterEE4NodeINS2_14TestGroupStatsENS6_INS2_13TestCaseStatsENS5_11SectionNodeEEEEEEEllvEEvRT_T0_, symObjAddr: 0xED08C, symBinAddr: 0x1000F0B2C, symSize: 0x50 }
  - { offsetInCU: 0x92EE3, offset: 0x92EE3, size: 0x8, addend: 0x0, symName: __ZNSt3__17advanceB7v160006INS_16reverse_iteratorIPNS_10shared_ptrIN5Catch22CumulativeReporterBaseINS3_13JunitReporterEE4NodeINS3_14TestGroupStatsENS7_INS3_13TestCaseStatsENS6_11SectionNodeEEEEEEEEEllvEEvRT_T0_, symObjAddr: 0xED470, symBinAddr: 0x1000F0F10, symSize: 0x50 }
  - { offsetInCU: 0x94AD0, offset: 0x94AD0, size: 0x8, addend: 0x0, symName: __ZNSt3__17advanceB7v160006IPNS_10shared_ptrIN5Catch22CumulativeReporterBaseINS2_13JunitReporterEE4NodeINS2_12TestRunStatsENS6_INS2_14TestGroupStatsENS6_INS2_13TestCaseStatsENS5_11SectionNodeEEEEEEEEEllvEEvRT_T0_, symObjAddr: 0xF2EFC, symBinAddr: 0x1000F699C, symSize: 0x50 }
  - { offsetInCU: 0x94D72, offset: 0x94D72, size: 0x8, addend: 0x0, symName: __ZNSt3__17advanceB7v160006INS_16reverse_iteratorIPNS_10shared_ptrIN5Catch22CumulativeReporterBaseINS3_13JunitReporterEE4NodeINS3_12TestRunStatsENS7_INS3_14TestGroupStatsENS7_INS3_13TestCaseStatsENS6_11SectionNodeEEEEEEEEEEEllvEEvRT_T0_, symObjAddr: 0xF32E0, symBinAddr: 0x1000F6D80, symSize: 0x50 }
  - { offsetInCU: 0x99DC9, offset: 0x99DC9, size: 0x8, addend: 0x0, symName: __ZNSt3__1lsB7v160006INS_11char_traitsIcEEEERNS_13basic_ostreamIcT_EES6_PKc, symObjAddr: 0xBCC, symBinAddr: 0x10000466C, symSize: 0x48 }
  - { offsetInCU: 0x99E0F, offset: 0x99E0F, size: 0x8, addend: 0x0, symName: __ZNSt3__1eqB7v160006INS_9allocatorIcEEEEbRKNS_12basic_stringIcNS_11char_traitsIcEET_EES9_, symObjAddr: 0x1CC8, symBinAddr: 0x100005768, symSize: 0x148 }
  - { offsetInCU: 0x99E82, offset: 0x99E82, size: 0x8, addend: 0x0, symName: __ZNSt3__1lsB7v160006INS_11char_traitsIcEEEERNS_13basic_ostreamIcT_EES6_c, symObjAddr: 0x5A50, symBinAddr: 0x1000094F0, symSize: 0x34 }
  - { offsetInCU: 0x99EC9, offset: 0x99EC9, size: 0x8, addend: 0x0, symName: __ZNSt3__1neB7v160006IPNS_12basic_stringIcNS_11char_traitsIcEENS_9allocatorIcEEEEEEbRKNS_11__wrap_iterIT_EESC_, symObjAddr: 0x5FE4, symBinAddr: 0x100009A84, symSize: 0x34 }
  - { offsetInCU: 0x99F2D, offset: 0x99F2D, size: 0x8, addend: 0x0, symName: __ZNSt3__1lsB7v160006IcNS_11char_traitsIcEENS_9allocatorIcEEEERNS_13basic_ostreamIT_T0_EES9_RKNS_12basic_stringIS6_S7_T1_EE, symObjAddr: 0x722C, symBinAddr: 0x10000ACCC, symSize: 0x4C }
  - { offsetInCU: 0x99F85, offset: 0x99F85, size: 0x8, addend: 0x0, symName: __ZNSt3__14endlB7v160006IcNS_11char_traitsIcEEEERNS_13basic_ostreamIT_T0_EES7_, symObjAddr: 0x73D4, symBinAddr: 0x10000AE74, symSize: 0x58 }
  - { offsetInCU: 0x99FC6, offset: 0x99FC6, size: 0x8, addend: 0x0, symName: __ZNSt3__1neB7v160006IPN5Catch9StringRefEEEbRKNS_11__wrap_iterIT_EES8_, symObjAddr: 0x7CD0, symBinAddr: 0x10000B770, symSize: 0x34 }
  - { offsetInCU: 0x9A00C, offset: 0x9A00C, size: 0x8, addend: 0x0, symName: __ZNSt3__1neB7v160006IPKNS_4pairIiN5Catch9StringRefEEEEEbRKNS_11__wrap_iterIT_EESB_, symObjAddr: 0x818C, symBinAddr: 0x10000BC2C, symSize: 0x34 }
  - { offsetInCU: 0x9A052, offset: 0x9A052, size: 0x8, addend: 0x0, symName: __ZNSt3__1neB7v160006IPKiEEbRKNS_11__wrap_iterIT_EES7_, symObjAddr: 0x8654, symBinAddr: 0x10000C0F4, symSize: 0x34 }
  - { offsetInCU: 0x9A098, offset: 0x9A098, size: 0x8, addend: 0x0, symName: __ZNSt3__13maxB7v160006ImEERKT_S3_S3_, symObjAddr: 0x91A0, symBinAddr: 0x10000CC40, symSize: 0x2C }
  - { offsetInCU: 0x9A0DE, offset: 0x9A0DE, size: 0x8, addend: 0x0, symName: __ZNSt3__1neB7v160006IPN5Catch8TestCaseEEEbRKNS_11__wrap_iterIT_EES8_, symObjAddr: 0xB07C, symBinAddr: 0x10000EB1C, symSize: 0x34 }
  - { offsetInCU: 0x9A123, offset: 0x9A123, size: 0x8, addend: 0x0, symName: __ZNSt3__1neB7v160006ERKNS_21__tree_const_iteratorINS_12basic_stringIcNS_11char_traitsIcEENS_9allocatorIcEEEEPNS_11__tree_nodeIS6_PvEElEESD_, symObjAddr: 0xBACC, symBinAddr: 0x10000F56C, symSize: 0x34 }
  - { offsetInCU: 0x9A161, offset: 0x9A161, size: 0x8, addend: 0x0, symName: __ZNSt3__1neB7v160006IPKNS_12basic_stringIcNS_11char_traitsIcEENS_9allocatorIcEEEEEEbRKNS_11__wrap_iterIT_EESD_, symObjAddr: 0xC274, symBinAddr: 0x10000FD14, symSize: 0x34 }
  - { offsetInCU: 0x9A1A6, offset: 0x9A1A6, size: 0x8, addend: 0x0, symName: __ZNSt3__1eqB7v160006ERKNS_14__map_iteratorINS_15__tree_iteratorINS_12__value_typeINS_12basic_stringIcNS_11char_traitsIcEENS_9allocatorIcEEEEN5Catch7TagInfoEEEPNS_11__tree_nodeISB_PvEElEEEESJ_, symObjAddr: 0xC3A0, symBinAddr: 0x10000FE40, symSize: 0x30 }
  - { offsetInCU: 0x9A2C9, offset: 0x9A2C9, size: 0x8, addend: 0x0, symName: __ZNSt3__19make_pairB7v160006IRNS_12basic_stringIcNS_11char_traitsIcEENS_9allocatorIcEEEEN5Catch7TagInfoEEENS_4pairINS_18__unwrap_ref_decayIT_E4typeENSB_IT0_E4typeEEEOSC_OSF_, symObjAddr: 0xC454, symBinAddr: 0x10000FEF4, symSize: 0x40 }
  - { offsetInCU: 0x9A318, offset: 0x9A318, size: 0x8, addend: 0x0, symName: __ZNSt3__1neB7v160006ERKNS_14__map_iteratorINS_15__tree_iteratorINS_12__value_typeINS_12basic_stringIcNS_11char_traitsIcEENS_9allocatorIcEEEEN5Catch7TagInfoEEEPNS_11__tree_nodeISB_PvEElEEEESJ_, symObjAddr: 0xC59C, symBinAddr: 0x10001003C, symSize: 0x30 }
  - { offsetInCU: 0x9A355, offset: 0x9A355, size: 0x8, addend: 0x0, symName: __ZNSt3__14setwB7v160006Ei, symObjAddr: 0xC62C, symBinAddr: 0x1000100CC, symSize: 0x2C }
  - { offsetInCU: 0x9A383, offset: 0x9A383, size: 0x8, addend: 0x0, symName: __ZNSt3__1neB7v160006ERKNS_20__map_const_iteratorINS_21__tree_const_iteratorINS_12__value_typeINS_12basic_stringIcNS_11char_traitsIcEENS_9allocatorIcEEEENS_10shared_ptrIN5Catch16IReporterFactoryEEEEEPNS_11__tree_nodeISD_PvEElEEEESL_, symObjAddr: 0xCB34, symBinAddr: 0x1000105D4, symSize: 0x30 }
  - { offsetInCU: 0x9A3C0, offset: 0x9A3C0, size: 0x8, addend: 0x0, symName: __ZNSt3__1plB7v160006IcNS_11char_traitsIcEENS_9allocatorIcEEEENS_12basic_stringIT_T0_T1_EERKS9_PKS6_, symObjAddr: 0xCD00, symBinAddr: 0x1000107A0, symSize: 0x11C }
  - { offsetInCU: 0x9A461, offset: 0x9A461, size: 0x8, addend: 0x0, symName: __ZNSt3__1eqB7v160006IcNS_11char_traitsIcEENS_9allocatorIcEEEEbRKNS_12basic_stringIT_T0_T1_EEPKS6_, symObjAddr: 0xD46C, symBinAddr: 0x100010F0C, symSize: 0x5C }
  - { offsetInCU: 0x9A4B9, offset: 0x9A4B9, size: 0x8, addend: 0x0, symName: __ZNSt3__1plB7v160006IcNS_11char_traitsIcEENS_9allocatorIcEEEENS_12basic_stringIT_T0_T1_EEOS9_PKS6_, symObjAddr: 0xD568, symBinAddr: 0x100011008, symSize: 0x40 }
  - { offsetInCU: 0x9A511, offset: 0x9A511, size: 0x8, addend: 0x0, symName: __ZNSt3__1plB7v160006IcNS_11char_traitsIcEENS_9allocatorIcEEEENS_12basic_stringIT_T0_T1_EEOS9_SA_, symObjAddr: 0xDA80, symBinAddr: 0x100011520, symSize: 0x40 }
  - { offsetInCU: 0x9A569, offset: 0x9A569, size: 0x8, addend: 0x0, symName: __ZNSt3__1plB7v160006IcNS_11char_traitsIcEENS_9allocatorIcEEEENS_12basic_stringIT_T0_T1_EEPKS6_OS9_, symObjAddr: 0xDAC0, symBinAddr: 0x100011560, symSize: 0x44 }
  - { offsetInCU: 0x9AF3F, offset: 0x9AF3F, size: 0x8, addend: 0x0, symName: __ZNSt3__13maxB7v160006IdEERKT_S3_S3_, symObjAddr: 0xE9BC, symBinAddr: 0x10001245C, symSize: 0x2C }
  - { offsetInCU: 0x9AF84, offset: 0x9AF84, size: 0x8, addend: 0x0, symName: __ZNSt3__1plB7v160006IcNS_11char_traitsIcEENS_9allocatorIcEEEENS_12basic_stringIT_T0_T1_EEOS9_S6_, symObjAddr: 0xEEA0, symBinAddr: 0x100012940, symSize: 0x40 }
  - { offsetInCU: 0x9AFDC, offset: 0x9AFDC, size: 0x8, addend: 0x0, symName: __ZNSt3__111regex_matchB7v160006INS_11char_traitsIcEENS_9allocatorIcEEcNS_12regex_traitsIcEEEEbRKNS_12basic_stringIT1_T_T0_EERKNS_11basic_regexIS8_T2_EENS_15regex_constants15match_flag_typeE, symObjAddr: 0xFCE0, symBinAddr: 0x100013780, symSize: 0x54 }
  - { offsetInCU: 0x9B229, offset: 0x9B229, size: 0x8, addend: 0x0, symName: __ZNSt3__1eqB7v160006ERKNS_20__map_const_iteratorINS_21__tree_const_iteratorINS_12__value_typeINS_12basic_stringIcNS_11char_traitsIcEENS_9allocatorIcEEEENS_10shared_ptrIN5Catch16IReporterFactoryEEEEEPNS_11__tree_nodeISD_PvEElEEEESL_, symObjAddr: 0x11BFC, symBinAddr: 0x10001569C, symSize: 0x30 }
  - { offsetInCU: 0x9B267, offset: 0x9B267, size: 0x8, addend: 0x0, symName: __ZNSt3__16removeB7v160006INS_11__wrap_iterIPN5Catch11MessageInfoEEES3_EET_S6_S6_RKT0_, symObjAddr: 0x14704, symBinAddr: 0x1000181A4, symSize: 0xF4 }
  - { offsetInCU: 0x9B2E2, offset: 0x9B2E2, size: 0x8, addend: 0x0, symName: __ZNSt3__1neB7v160006INS_11__wrap_iterIPN5Catch14SectionEndInfoEEES5_EEbRKNS_16reverse_iteratorIT_EERKNS6_IT0_EE, symObjAddr: 0x15204, symBinAddr: 0x100018CA4, symSize: 0x54 }
  - { offsetInCU: 0x9B331, offset: 0x9B331, size: 0x8, addend: 0x0, symName: __ZNSt3__1neB7v160006IPKSt13exception_ptrEEbRKNS_11__wrap_iterIT_EES8_, symObjAddr: 0x16524, symBinAddr: 0x100019FC4, symSize: 0x34 }
  - { offsetInCU: 0x9B376, offset: 0x9B376, size: 0x8, addend: 0x0, symName: __ZNSt3__1lsB7v160006IcNS_11char_traitsIcEEEERNS_13basic_ostreamIT_T0_EES7_RKNS_8__iom_t6E, symObjAddr: 0x16A58, symBinAddr: 0x10001A4F8, symSize: 0x40 }
  - { offsetInCU: 0x9B3C5, offset: 0x9B3C5, size: 0x8, addend: 0x0, symName: __ZNSt3__14leftB7v160006ERNS_8ios_baseE, symObjAddr: 0x16AD8, symBinAddr: 0x10001A578, symSize: 0x30 }
  - { offsetInCU: 0x9B3F3, offset: 0x9B3F3, size: 0x8, addend: 0x0, symName: __ZNSt3__111make_sharedB7v160006IN5Catch6ConfigEJRNS1_10ConfigDataEEvEENS_10shared_ptrIT_EEDpOT0_, symObjAddr: 0x175E8, symBinAddr: 0x10001B088, symSize: 0x40 }
  - { offsetInCU: 0x9B439, offset: 0x9B439, size: 0x8, addend: 0x0, symName: __ZNSt3__13minB7v160006IiEERKT_S3_S3_, symObjAddr: 0x1789C, symBinAddr: 0x10001B33C, symSize: 0x2C }
  - { offsetInCU: 0x9BC5D, offset: 0x9BC5D, size: 0x8, addend: 0x0, symName: __ZNSt3__13maxB7v160006IiEERKT_S3_S3_, symObjAddr: 0x17C04, symBinAddr: 0x10001B6A4, symSize: 0x2C }
  - { offsetInCU: 0x9BCA3, offset: 0x9BCA3, size: 0x8, addend: 0x0, symName: __ZNSt3__1neB7v160006IPPN5Catch10ISingletonEEEbRKNS_11__wrap_iterIT_EES9_, symObjAddr: 0x17E24, symBinAddr: 0x10001B8C4, symSize: 0x34 }
  - { offsetInCU: 0x9C99C, offset: 0x9C99C, size: 0x8, addend: 0x0, symName: __ZNSt3__15equalB7v160006INS_11__wrap_iterIPKcEES4_EEbT_S5_T0_, symObjAddr: 0x185C0, symBinAddr: 0x10001C060, symSize: 0x50 }
  - { offsetInCU: 0x9C9FA, offset: 0x9C9FA, size: 0x8, addend: 0x0, symName: __ZNSt3__15equalB7v160006INS_16reverse_iteratorINS_11__wrap_iterIPKcEEEES6_EEbT_S7_T0_, symObjAddr: 0x186E0, symBinAddr: 0x10001C180, symSize: 0x68 }
  - { offsetInCU: 0x9CA58, offset: 0x9CA58, size: 0x8, addend: 0x0, symName: __ZNSt3__19transformB7v160006INS_11__wrap_iterIPcEES3_PFccEEET0_T_S7_S6_T1_, symObjAddr: 0x1891C, symBinAddr: 0x10001C3BC, symSize: 0x98 }
  - { offsetInCU: 0x9CACD, offset: 0x9CACD, size: 0x8, addend: 0x0, symName: __ZNSt3__1plB7v160006IcNS_11char_traitsIcEENS_9allocatorIcEEEENS_12basic_stringIT_T0_T1_EEOS9_RKS9_, symObjAddr: 0x18EF4, symBinAddr: 0x10001C994, symSize: 0x40 }
  - { offsetInCU: 0x9CB26, offset: 0x9CB26, size: 0x8, addend: 0x0, symName: __ZNSt3__13minB7v160006ImEERKT_S3_S3_, symObjAddr: 0x19178, symBinAddr: 0x10001CC18, symSize: 0x2C }
  - { offsetInCU: 0x9CB6B, offset: 0x9CB6B, size: 0x8, addend: 0x0, symName: __ZNSt3__1neB7v160006ERKNS_20__map_const_iteratorINS_21__tree_const_iteratorINS_12__value_typeINS_12basic_stringIcNS_11char_traitsIcEENS_9allocatorIcEEEEN5Catch8TagAliasEEEPNS_11__tree_nodeISB_PvEElEEEESJ_, symObjAddr: 0x19544, symBinAddr: 0x10001CFE4, symSize: 0x30 }
  - { offsetInCU: 0x9CC8E, offset: 0x9CC8E, size: 0x8, addend: 0x0, symName: __ZNSt3__19make_pairB7v160006IRKNS_12basic_stringIcNS_11char_traitsIcEENS_9allocatorIcEEEEN5Catch8TagAliasEEENS_4pairINS_18__unwrap_ref_decayIT_E4typeENSC_IT0_E4typeEEEOSD_OSG_, symObjAddr: 0x19CB8, symBinAddr: 0x10001D758, symSize: 0x40 }
  - { offsetInCU: 0x9CCDD, offset: 0x9CCDD, size: 0x8, addend: 0x0, symName: __ZNSt3__14sortB7v160006INS_11__wrap_iterIPNS_12basic_stringIcNS_11char_traitsIcEENS_9allocatorIcEEEEEEEEvT_SA_, symObjAddr: 0x1A8B0, symBinAddr: 0x10001E350, symSize: 0x3C }
  - { offsetInCU: 0x9CD20, offset: 0x9CD20, size: 0x8, addend: 0x0, symName: __ZNSt3__15beginB7v160006INS_6vectorINS_12basic_stringIcNS_11char_traitsIcEENS_9allocatorIcEEEENS5_IS7_EEEEEEDTcldtfp_5beginEERT_, symObjAddr: 0x1A8EC, symBinAddr: 0x10001E38C, symSize: 0x2C }
  - { offsetInCU: 0x9CD57, offset: 0x9CD57, size: 0x8, addend: 0x0, symName: __ZNSt3__13endB7v160006INS_6vectorINS_12basic_stringIcNS_11char_traitsIcEENS_9allocatorIcEEEENS5_IS7_EEEEEEDTcldtfp_3endEERT_, symObjAddr: 0x1A918, symBinAddr: 0x10001E3B8, symSize: 0x2C }
  - { offsetInCU: 0x9CD8E, offset: 0x9CD8E, size: 0x8, addend: 0x0, symName: __ZNSt3__16uniqueB7v160006INS_11__wrap_iterIPNS_12basic_stringIcNS_11char_traitsIcEENS_9allocatorIcEEEEEEEET_SA_SA_, symObjAddr: 0x1AA34, symBinAddr: 0x10001E4D4, symSize: 0x44 }
  - { offsetInCU: 0x9CDD3, offset: 0x9CDD3, size: 0x8, addend: 0x0, symName: __ZNSt3__1ltB7v160006ENS_15strong_orderingENS_20_CmpUnspecifiedParamE, symObjAddr: 0x1B0D4, symBinAddr: 0x10001EB74, symSize: 0x24 }
  - { offsetInCU: 0x9CE0C, offset: 0x9CE0C, size: 0x8, addend: 0x0, symName: __ZNSt3__1ssB7v160006IcNS_11char_traitsIcEENS_9allocatorIcEEEEDaRKNS_12basic_stringIT_T0_T1_EESC_, symObjAddr: 0x1B0F8, symBinAddr: 0x10001EB98, symSize: 0x5C }
  - { offsetInCU: 0x9CE82, offset: 0x9CE82, size: 0x8, addend: 0x0, symName: __ZNSt3__14sortB7v160006INS_11__wrap_iterIPN5Catch8TestCaseEEEEEvT_S6_, symObjAddr: 0x1B4F4, symBinAddr: 0x10001EF94, symSize: 0x3C }
  - { offsetInCU: 0x9CEC5, offset: 0x9CEC5, size: 0x8, addend: 0x0, symName: __ZNSt3__1neB7v160006IPKN5Catch8TestCaseEEEbRKNS_11__wrap_iterIT_EES9_, symObjAddr: 0x1B6D8, symBinAddr: 0x10001F178, symSize: 0x34 }
  - { offsetInCU: 0x9CF0A, offset: 0x9CF0A, size: 0x8, addend: 0x0, symName: '__ZNSt3__14sortB7v160006INS_11__wrap_iterIPNS_4pairIyPKN5Catch8TestCaseEEEEEZNS3_9sortTestsERKNS3_7IConfigERKNS_6vectorIS4_NS_9allocatorIS4_EEEEE4$_15EEvT_SK_T0_', symObjAddr: 0x1B8CC, symBinAddr: 0x10001F36C, symSize: 0x40 }
  - { offsetInCU: 0x9CF65, offset: 0x9CF65, size: 0x8, addend: 0x0, symName: __ZNSt3__1neB7v160006IPNS_4pairIyPKN5Catch8TestCaseEEEEEbRKNS_11__wrap_iterIT_EESC_, symObjAddr: 0x1BAA8, symBinAddr: 0x10001F548, symSize: 0x34 }
  - { offsetInCU: 0x9DCA1, offset: 0x9DCA1, size: 0x8, addend: 0x0, symName: __ZNSt3__111make_sharedB7v160006IN5Catch16TestCaseTracking14SectionTrackerEJNS2_15NameAndLocationERNS2_14TrackerContextEDnEvEENS_10shared_ptrIT_EEDpOT0_, symObjAddr: 0x1C72C, symBinAddr: 0x1000201CC, symSize: 0x50 }
  - { offsetInCU: 0x9DD11, offset: 0x9DD11, size: 0x8, addend: 0x0, symName: '__ZNSt3__17find_ifB7v160006INS_11__wrap_iterIPNS_10shared_ptrIN5Catch16TestCaseTracking8ITrackerEEEEEZNS4_11TrackerBase9findChildERKNS4_15NameAndLocationEE4$_16EET_SE_SE_T0_', symObjAddr: 0x1CCBC, symBinAddr: 0x10002075C, symSize: 0x78 }
  - { offsetInCU: 0x9DD6F, offset: 0x9DD6F, size: 0x8, addend: 0x0, symName: __ZNSt3__1neB7v160006IPNS_10shared_ptrIN5Catch16TestCaseTracking8ITrackerEEEEEbRKNS_11__wrap_iterIT_EESB_, symObjAddr: 0x1CD94, symBinAddr: 0x100020834, symSize: 0x34 }
  - { offsetInCU: 0x9DDB5, offset: 0x9DDB5, size: 0x8, addend: 0x0, symName: '__ZNSt3__16all_ofB7v160006INS_11__wrap_iterIPNS_10shared_ptrIN5Catch16TestCaseTracking8ITrackerEEEEEZNS4_11TrackerBase5closeEvE4$_17EEbT_SB_T0_', symObjAddr: 0x1D2B4, symBinAddr: 0x100020D54, symSize: 0x94 }
  - { offsetInCU: 0x9DE13, offset: 0x9DE13, size: 0x8, addend: 0x0, symName: __ZNSt3__14findB7v160006INS_11__wrap_iterIPKNS_12basic_stringIcNS_11char_traitsIcEENS_9allocatorIcEEEEEES7_EET_SB_SB_RKT0_, symObjAddr: 0x1D82C, symBinAddr: 0x1000212CC, symSize: 0x74 }
  - { offsetInCU: 0x9DE70, offset: 0x9DE70, size: 0x8, addend: 0x0, symName: __ZNSt3__119static_pointer_castB7v160006IN5Catch16TestCaseTracking14SectionTrackerENS2_8ITrackerEEENS_10shared_ptrIT_EERKNS5_IT0_EE, symObjAddr: 0x1D92C, symBinAddr: 0x1000213CC, symSize: 0x44 }
  - { offsetInCU: 0x9DEB0, offset: 0x9DEB0, size: 0x8, addend: 0x0, symName: __ZNSt3__111make_sharedB7v160006IN5Catch16TestCaseTracking14SectionTrackerEJRKNS2_15NameAndLocationERNS2_14TrackerContextEPNS2_8ITrackerEEvEENS_10shared_ptrIT_EEDpOT0_, symObjAddr: 0x1D9C0, symBinAddr: 0x100021460, symSize: 0x50 }
  - { offsetInCU: 0x9DF20, offset: 0x9DF20, size: 0x8, addend: 0x0, symName: __ZNSt3__15beginB7v160006INS_6vectorINS_12basic_stringIcNS_11char_traitsIcEENS_9allocatorIcEEEENS5_IS7_EEEEEEDTcldtfp_5beginEERKT_, symObjAddr: 0x1E8EC, symBinAddr: 0x10002238C, symSize: 0x2C }
  - { offsetInCU: 0x9DF57, offset: 0x9DF57, size: 0x8, addend: 0x0, symName: __ZNSt3__13endB7v160006INS_6vectorINS_12basic_stringIcNS_11char_traitsIcEENS_9allocatorIcEEEENS5_IS7_EEEEEEDTcldtfp_3endEERKT_, symObjAddr: 0x1E918, symBinAddr: 0x1000223B8, symSize: 0x2C }
  - { offsetInCU: 0x9DF8E, offset: 0x9DF8E, size: 0x8, addend: 0x0, symName: '__ZNSt3__16all_ofB7v160006INS_11__wrap_iterIPKNS_10shared_ptrIN5Catch8TestSpec7PatternEEEEEZNKS4_6Filter7matchesERKNS3_12TestCaseInfoEE4$_18EEbT_SF_T0_', symObjAddr: 0x1EAD0, symBinAddr: 0x100022570, symSize: 0x98 }
  - { offsetInCU: 0x9DFEC, offset: 0x9DFEC, size: 0x8, addend: 0x0, symName: __ZNSt3__1neB7v160006IPKNS_10shared_ptrIN5Catch8TestSpec7PatternEEEEEbRKNS_11__wrap_iterIT_EESC_, symObjAddr: 0x1ECD0, symBinAddr: 0x100022770, symSize: 0x34 }
  - { offsetInCU: 0x9E032, offset: 0x9E032, size: 0x8, addend: 0x0, symName: '__ZNSt3__16any_ofB7v160006INS_11__wrap_iterIPKN5Catch8TestSpec6FilterEEEZNKS3_7matchesERKNS2_12TestCaseInfoEE4$_19EEbT_SC_T0_', symObjAddr: 0x1ED64, symBinAddr: 0x100022804, symSize: 0x98 }
  - { offsetInCU: 0x9E090, offset: 0x9E090, size: 0x8, addend: 0x0, symName: '__ZNSt3__19transformB7v160006INS_11__wrap_iterIPKN5Catch8TestSpec6FilterEEENS1_IPNS3_11FilterMatchEEEZNKS3_15matchesByFilterERKNS_6vectorINS2_8TestCaseENS_9allocatorISC_EEEERKNS2_7IConfigEE4$_20EET0_T_SN_SM_T1_', symObjAddr: 0x1EFBC, symBinAddr: 0x100022A5C, symSize: 0x9C }
  - { offsetInCU: 0x9E105, offset: 0x9E105, size: 0x8, addend: 0x0, symName: __ZNSt3__111make_sharedB7v160006IN5Catch8TestSpec11NamePatternEJRNS_12basic_stringIcNS_11char_traitsIcEENS_9allocatorIcEEEESA_EvEENS_10shared_ptrIT_EEDpOT0_, symObjAddr: 0x2025C, symBinAddr: 0x100023CFC, symSize: 0x48 }
  - { offsetInCU: 0x9E37F, offset: 0x9E37F, size: 0x8, addend: 0x0, symName: __ZNSt3__111make_sharedB7v160006IN5Catch8TestSpec15ExcludedPatternEJRNS_10shared_ptrINS2_7PatternEEEEvEENS4_IT_EEDpOT0_, symObjAddr: 0x20304, symBinAddr: 0x100023DA4, symSize: 0x40 }
  - { offsetInCU: 0x9E5E4, offset: 0x9E5E4, size: 0x8, addend: 0x0, symName: __ZNSt3__111make_sharedB7v160006IN5Catch8TestSpec10TagPatternEJRA2_KcRNS_12basic_stringIcNS_11char_traitsIcEENS_9allocatorIcEEEEEvEENS_10shared_ptrIT_EEDpOT0_, symObjAddr: 0x2050C, symBinAddr: 0x100023FAC, symSize: 0x48 }
  - { offsetInCU: 0x9E85E, offset: 0x9E85E, size: 0x8, addend: 0x0, symName: __ZNSt3__111make_sharedB7v160006IN5Catch8TestSpec10TagPatternEJRNS_12basic_stringIcNS_11char_traitsIcEENS_9allocatorIcEEEESA_EvEENS_10shared_ptrIT_EEDpOT0_, symObjAddr: 0x205B4, symBinAddr: 0x100024054, symSize: 0x48 }
  - { offsetInCU: 0x9E8B9, offset: 0x9E8B9, size: 0x8, addend: 0x0, symName: __ZNSt3__17setfillB7v160006IcEENS_8__iom_t4IT_EES2_, symObjAddr: 0x20B8C, symBinAddr: 0x10002462C, symSize: 0x2C }
  - { offsetInCU: 0x9E8EF, offset: 0x9E8EF, size: 0x8, addend: 0x0, symName: __ZNSt3__13hexB7v160006ERNS_8ios_baseE, symObjAddr: 0x20BF0, symBinAddr: 0x100024690, symSize: 0x30 }
  - { offsetInCU: 0x9E91D, offset: 0x9E91D, size: 0x8, addend: 0x0, symName: __ZNSt3__1plB7v160006IcNS_11char_traitsIcEENS_9allocatorIcEEEENS_12basic_stringIT_T0_T1_EES6_RKS9_, symObjAddr: 0x20E44, symBinAddr: 0x1000248E4, symSize: 0x10C }
  - { offsetInCU: 0x9E9B0, offset: 0x9E9B0, size: 0x8, addend: 0x0, symName: __ZNSt3__1neB7v160006IPKcEEbRKNS_11__wrap_iterIT_EES7_, symObjAddr: 0x20F50, symBinAddr: 0x1000249F0, symSize: 0x34 }
  - { offsetInCU: 0x9E9F6, offset: 0x9E9F6, size: 0x8, addend: 0x0, symName: __ZNSt3__1neB7v160006IPKwEEbRKNS_11__wrap_iterIT_EES7_, symObjAddr: 0x213A4, symBinAddr: 0x100024E44, symSize: 0x34 }
  - { offsetInCU: 0x9EAC4, offset: 0x9EAC4, size: 0x8, addend: 0x0, symName: __ZNSt3__1lsB7v160006INS_11char_traitsIcEEEERNS_13basic_ostreamIcT_EES6_h, symObjAddr: 0x22C58, symBinAddr: 0x1000266F8, symSize: 0x34 }
  - { offsetInCU: 0x9EB0A, offset: 0x9EB0A, size: 0x8, addend: 0x0, symName: __ZNSt3__15flushB7v160006IcNS_11char_traitsIcEEEERNS_13basic_ostreamIT_T0_EES7_, symObjAddr: 0x238D8, symBinAddr: 0x100027378, symSize: 0x28 }
  - { offsetInCU: 0x9EB4B, offset: 0x9EB4B, size: 0x8, addend: 0x0, symName: __ZNSt3__1neB7v160006IPN5Catch11SectionInfoEEEbRKNS_11__wrap_iterIT_EES8_, symObjAddr: 0x27D88, symBinAddr: 0x10002B828, symSize: 0x34 }
  - { offsetInCU: 0x9EB91, offset: 0x9EB91, size: 0x8, addend: 0x0, symName: __ZNSt3__1neB7v160006IPKN5Catch13SummaryColumnEEEbRKNS_11__wrap_iterIT_EES9_, symObjAddr: 0x286A8, symBinAddr: 0x10002C148, symSize: 0x34 }
  - { offsetInCU: 0x9EBD7, offset: 0x9EBD7, size: 0x8, addend: 0x0, symName: __ZNSt3__1neB7v160006IPKNS_10shared_ptrIN5Catch22CumulativeReporterBaseINS2_13JunitReporterEE4NodeINS2_13TestCaseStatsENS5_11SectionNodeEEEEEEEbRKNS_11__wrap_iterIT_EESH_, symObjAddr: 0x2A40C, symBinAddr: 0x10002DEAC, symSize: 0x34 }
  - { offsetInCU: 0x9EC1C, offset: 0x9EC1C, size: 0x8, addend: 0x0, symName: __ZNSt3__1plB7v160006IcNS_11char_traitsIcEENS_9allocatorIcEEEENS_12basic_stringIT_T0_T1_EERKS9_S6_, symObjAddr: 0x2B004, symBinAddr: 0x10002EAA4, symSize: 0x110 }
  - { offsetInCU: 0x9ECAF, offset: 0x9ECAF, size: 0x8, addend: 0x0, symName: __ZNSt3__1neB7v160006IPKNS_10shared_ptrIN5Catch22CumulativeReporterBaseINS2_13JunitReporterEE11SectionNodeEEEEEbRKNS_11__wrap_iterIT_EESE_, symObjAddr: 0x2B334, symBinAddr: 0x10002EDD4, symSize: 0x34 }
  - { offsetInCU: 0x9ECF5, offset: 0x9ECF5, size: 0x8, addend: 0x0, symName: __ZNSt3__1neB7v160006IPKN5Catch14AssertionStatsEEEbRKNS_11__wrap_iterIT_EES9_, symObjAddr: 0x2B400, symBinAddr: 0x10002EEA0, symSize: 0x34 }
  - { offsetInCU: 0x9ED3B, offset: 0x9ED3B, size: 0x8, addend: 0x0, symName: __ZNSt3__1neB7v160006IPKN5Catch11MessageInfoEEEbRKNS_11__wrap_iterIT_EES9_, symObjAddr: 0x2BC6C, symBinAddr: 0x10002F70C, symSize: 0x34 }
  - { offsetInCU: 0x9ED81, offset: 0x9ED81, size: 0x8, addend: 0x0, symName: __ZNSt3__1neB7v160006IPNS_10unique_ptrIN5Catch18IStreamingReporterENS_14default_deleteIS3_EEEEEEbRKNS_11__wrap_iterIT_EESC_, symObjAddr: 0x2C1BC, symBinAddr: 0x10002FC5C, symSize: 0x34 }
  - { offsetInCU: 0x9EDC7, offset: 0x9EDC7, size: 0x8, addend: 0x0, symName: __ZNSt3__119__debug_db_insert_cB7v160006INS_12basic_stringIcNS_11char_traitsIcEENS_9allocatorIcEEEEEEvPT_, symObjAddr: 0x30EB8, symBinAddr: 0x100034958, symSize: 0x10 }
  - { offsetInCU: 0x9EDF9, offset: 0x9EDF9, size: 0x8, addend: 0x0, symName: __ZNSt3__119__libcpp_deallocateB7v160006EPvmm, symObjAddr: 0x31314, symBinAddr: 0x100034DB4, symSize: 0x60 }
  - { offsetInCU: 0x9EE5E, offset: 0x9EE5E, size: 0x8, addend: 0x0, symName: __ZNSt3__124__is_overaligned_for_newB7v160006Em, symObjAddr: 0x31374, symBinAddr: 0x100034E14, symSize: 0x20 }
  - { offsetInCU: 0x9EE8C, offset: 0x9EE8C, size: 0x8, addend: 0x0, symName: __ZNSt3__127__do_deallocate_handle_sizeB7v160006IJSt11align_val_tEEEvPvmDpT_, symObjAddr: 0x31394, symBinAddr: 0x100034E34, symSize: 0x30 }
  - { offsetInCU: 0x9EEE1, offset: 0x9EEE1, size: 0x8, addend: 0x0, symName: __ZNSt3__127__do_deallocate_handle_sizeB7v160006IJEEEvPvmDpT_, symObjAddr: 0x313C4, symBinAddr: 0x100034E64, symSize: 0x28 }
  - { offsetInCU: 0x9EF20, offset: 0x9EF20, size: 0x8, addend: 0x0, symName: __ZNSt3__124__libcpp_operator_deleteB7v160006IJPvSt11align_val_tEEEvDpT_, symObjAddr: 0x313EC, symBinAddr: 0x100034E8C, symSize: 0x2C }
  - { offsetInCU: 0x9EF6C, offset: 0x9EF6C, size: 0x8, addend: 0x0, symName: __ZNSt3__124__libcpp_operator_deleteB7v160006IJPvEEEvDpT_, symObjAddr: 0x31418, symBinAddr: 0x100034EB8, symSize: 0x24 }
  - { offsetInCU: 0x9EFA4, offset: 0x9EFA4, size: 0x8, addend: 0x0, symName: __ZNSt3__112__to_addressB7v160006IKcEEPT_S3_, symObjAddr: 0x31690, symBinAddr: 0x100035130, symSize: 0x14 }
  - { offsetInCU: 0x9F011, offset: 0x9F011, size: 0x8, addend: 0x0, symName: __ZNSt3__118__constexpr_memcmpB7v160006IcEEiPKT_S3_m, symObjAddr: 0x3175C, symBinAddr: 0x1000351FC, symSize: 0x34 }
  - { offsetInCU: 0x9F065, offset: 0x9F065, size: 0x8, addend: 0x0, symName: __ZNSt3__111make_sharedB7v160006IN5Catch5clara6detail13BoundValueRefINS_12basic_stringIcNS_11char_traitsIcEENS_9allocatorIcEEEEEEJRSA_EvEENS_10shared_ptrIT_EEDpOT0_, symObjAddr: 0x317E8, symBinAddr: 0x100035288, symSize: 0x40 }
  - { offsetInCU: 0x9F2CA, offset: 0x9F2CA, size: 0x8, addend: 0x0, symName: __ZNSt3__111make_sharedB7v160006INS_12basic_stringIcNS_11char_traitsIcEENS_9allocatorIcEEEEJRA13_KcEvEENS_10shared_ptrIT_EEDpOT0_, symObjAddr: 0x31974, symBinAddr: 0x100035414, symSize: 0x40 }
  - { offsetInCU: 0x9F30F, offset: 0x9F30F, size: 0x8, addend: 0x0, symName: __ZNSt3__115allocate_sharedB7v160006INS_12basic_stringIcNS_11char_traitsIcEENS_9allocatorIcEEEENS4_IS6_EEJRA13_KcEvEENS_10shared_ptrIT_EERKT0_DpOT1_, symObjAddr: 0x31B54, symBinAddr: 0x1000355F4, symSize: 0x98 }
  - { offsetInCU: 0x9F584, offset: 0x9F584, size: 0x8, addend: 0x0, symName: __ZNSt3__117__libcpp_allocateB7v160006Emm, symObjAddr: 0x31F60, symBinAddr: 0x100035A00, symSize: 0x60 }
  - { offsetInCU: 0x9F7CB, offset: 0x9F7CB, size: 0x8, addend: 0x0, symName: __ZNSt3__121__libcpp_operator_newB7v160006IJmSt11align_val_tEEEPvDpT_, symObjAddr: 0x31FDC, symBinAddr: 0x100035A7C, symSize: 0x2C }
  - { offsetInCU: 0x9F81B, offset: 0x9F81B, size: 0x8, addend: 0x0, symName: __ZNSt3__121__libcpp_operator_newB7v160006IJmEEEPvDpT_, symObjAddr: 0x32008, symBinAddr: 0x100035AA8, symSize: 0x24 }
  - { offsetInCU: 0x9F87E, offset: 0x9F87E, size: 0x8, addend: 0x0, symName: __ZNSt3__112construct_atB7v160006INS_12basic_stringIcNS_11char_traitsIcEENS_9allocatorIcEEEEJRA13_KcEPS6_EEPT_SC_DpOT0_, symObjAddr: 0x323AC, symBinAddr: 0x100035E4C, symSize: 0x3C }
  - { offsetInCU: 0x9F8F6, offset: 0x9F8F6, size: 0x8, addend: 0x0, symName: __ZNSt3__110destroy_atB7v160006INS_12basic_stringIcNS_11char_traitsIcEENS_9allocatorIcEEEELi0EEEvPT_, symObjAddr: 0x32484, symBinAddr: 0x100035F24, symSize: 0x24 }
  - { offsetInCU: 0x9F930, offset: 0x9F930, size: 0x8, addend: 0x0, symName: __ZNSt3__112__destroy_atB7v160006INS_12basic_stringIcNS_11char_traitsIcEENS_9allocatorIcEEEELi0EEEvPT_, symObjAddr: 0x324A8, symBinAddr: 0x100035F48, symSize: 0x24 }
  - { offsetInCU: 0x9F9A0, offset: 0x9F9A0, size: 0x8, addend: 0x0, symName: __ZNSt3__134__libcpp_atomic_refcount_decrementB7v160006IlEET_RS1_, symObjAddr: 0x326E8, symBinAddr: 0x100036188, symSize: 0x30 }
  - { offsetInCU: 0x9F9D7, offset: 0x9F9D7, size: 0x8, addend: 0x0, symName: __ZNSt3__122__make_exception_guardB7v160006INS_6vectorIN5Catch5clara6detail5TokenENS_9allocatorIS5_EEE16__destroy_vectorEEENS_28__exception_guard_exceptionsIT_EESB_, symObjAddr: 0x330BC, symBinAddr: 0x100036B5C, symSize: 0x40 }
  - { offsetInCU: 0x9FA0E, offset: 0x9FA0E, size: 0x8, addend: 0x0, symName: __ZNSt3__119__debug_db_insert_cB7v160006INS_6vectorIN5Catch5clara6detail5TokenENS_9allocatorIS5_EEEEEEvPT_, symObjAddr: 0x33130, symBinAddr: 0x100036BD0, symSize: 0x10 }
  - { offsetInCU: 0x9FA41, offset: 0x9FA41, size: 0x8, addend: 0x0, symName: __ZNSt3__119__allocate_at_leastB7v160006INS_9allocatorIN5Catch5clara6detail5TokenEEEEENS_19__allocation_resultINS_16allocator_traitsIT_E7pointerEEERS9_m, symObjAddr: 0x3348C, symBinAddr: 0x100036F2C, symSize: 0x40 }
  - { offsetInCU: 0x9FC71, offset: 0x9FC71, size: 0x8, addend: 0x0, symName: __ZNSt3__120__throw_length_errorB7v160006EPKc, symObjAddr: 0x3360C, symBinAddr: 0x1000370AC, symSize: 0x64 }
  - { offsetInCU: 0x9FC9B, offset: 0x9FC9B, size: 0x8, addend: 0x0, symName: __ZNSt3__112__to_addressB7v160006IN5Catch5clara6detail5TokenEEEPT_S6_, symObjAddr: 0x33840, symBinAddr: 0x1000372E0, symSize: 0x14 }
  - { offsetInCU: 0x9FCD1, offset: 0x9FCD1, size: 0x8, addend: 0x0, symName: __ZNSt3__130__uninitialized_allocator_copyB7v160006INS_9allocatorIN5Catch5clara6detail5TokenEEEPS5_S7_S7_EET2_RT_T0_T1_S8_, symObjAddr: 0x338F0, symBinAddr: 0x100037390, symSize: 0xF4 }
  - { offsetInCU: 0x9FD70, offset: 0x9FD70, size: 0x8, addend: 0x0, symName: __ZNSt3__122__make_exception_guardB7v160006INS_29_AllocatorDestroyRangeReverseINS_9allocatorIN5Catch5clara6detail5TokenEEEPS6_EEEENS_28__exception_guard_exceptionsIT_EESB_, symObjAddr: 0x33A54, symBinAddr: 0x1000374F4, symSize: 0x4C }
  - { offsetInCU: 0x9FDCF, offset: 0x9FDCF, size: 0x8, addend: 0x0, symName: __ZNSt3__112construct_atB7v160006IN5Catch5clara6detail5TokenEJRS4_EPS4_EEPT_S8_DpOT0_, symObjAddr: 0x33BF8, symBinAddr: 0x100037698, symSize: 0x3C }
  - { offsetInCU: 0x9FE46, offset: 0x9FE46, size: 0x8, addend: 0x0, symName: __ZNSt3__119__allocator_destroyB7v160006INS_9allocatorIN5Catch5clara6detail5TokenEEENS_16reverse_iteratorIPS5_EES9_EEvRT_T0_T1_, symObjAddr: 0x33D68, symBinAddr: 0x100037808, symSize: 0x70 }
  - { offsetInCU: 0x9FEAA, offset: 0x9FEAA, size: 0x8, addend: 0x0, symName: __ZNSt3__1neB7v160006IPN5Catch5clara6detail5TokenES5_EEbRKNS_16reverse_iteratorIT_EERKNS6_IT0_EE, symObjAddr: 0x33E0C, symBinAddr: 0x1000378AC, symSize: 0x48 }
  - { offsetInCU: 0x9FEF9, offset: 0x9FEF9, size: 0x8, addend: 0x0, symName: __ZNSt3__112__to_addressB7v160006INS_16reverse_iteratorIPN5Catch5clara6detail5TokenEEEvEENS_5decayIDTclsr19__to_address_helperIT_EE6__callclsr3stdE7declvalIRKS9_EEEEE4typeESB_, symObjAddr: 0x33E7C, symBinAddr: 0x10003791C, symSize: 0x24 }
  - { offsetInCU: 0x9FF31, offset: 0x9FF31, size: 0x8, addend: 0x0, symName: __ZNSt3__110destroy_atB7v160006IN5Catch5clara6detail5TokenELi0EEEvPT_, symObjAddr: 0x33ED8, symBinAddr: 0x100037978, symSize: 0x24 }
  - { offsetInCU: 0x9FF6B, offset: 0x9FF6B, size: 0x8, addend: 0x0, symName: __ZNSt3__112__destroy_atB7v160006IN5Catch5clara6detail5TokenELi0EEEvPT_, symObjAddr: 0x33EFC, symBinAddr: 0x10003799C, symSize: 0x24 }
  - { offsetInCU: 0x9FFD0, offset: 0x9FFD0, size: 0x8, addend: 0x0, symName: __ZNSt3__14prevB7v160006IPN5Catch5clara6detail5TokenEEENS_9enable_ifIXsr25__is_cpp17_input_iteratorIT_EE5valueES7_E4typeES7_NS_15iterator_traitsIS7_E15difference_typeE, symObjAddr: 0x33FE0, symBinAddr: 0x100037A80, symSize: 0x50 }
  - { offsetInCU: 0xA0016, offset: 0xA0016, size: 0x8, addend: 0x0, symName: __ZNSt3__121__convert_to_integralB7v160006El, symObjAddr: 0x34080, symBinAddr: 0x100037B20, symSize: 0x14 }
  - { offsetInCU: 0xA0044, offset: 0xA0044, size: 0x8, addend: 0x0, symName: __ZNSt3__19__advanceB7v160006IPN5Catch5clara6detail5TokenEEEvRT_NS_15iterator_traitsIS6_E15difference_typeENS_26random_access_iterator_tagE, symObjAddr: 0x34094, symBinAddr: 0x100037B34, symSize: 0x28 }
  - { offsetInCU: 0xA0091, offset: 0xA0091, size: 0x8, addend: 0x0, symName: __ZNSt3__118__debug_db_erase_cB7v160006INS_6vectorIN5Catch5clara6detail5TokenENS_9allocatorIS5_EEEEEEvPT_, symObjAddr: 0x342A8, symBinAddr: 0x100037D48, symSize: 0x10 }
  - { offsetInCU: 0xA00C3, offset: 0xA00C3, size: 0x8, addend: 0x0, symName: __ZNSt3__115allocate_sharedB7v160006IN5Catch5clara6detail13BoundValueRefINS_12basic_stringIcNS_11char_traitsIcEENS_9allocatorIcEEEEEENS8_ISB_EEJRSA_EvEENS_10shared_ptrIT_EERKT0_DpOT1_, symObjAddr: 0x34520, symBinAddr: 0x100037FC0, symSize: 0x98 }
  - { offsetInCU: 0xA0425, offset: 0xA0425, size: 0x8, addend: 0x0, symName: __ZNSt3__112construct_atB7v160006IN5Catch5clara6detail13BoundValueRefINS_12basic_stringIcNS_11char_traitsIcEENS_9allocatorIcEEEEEEJRSA_EPSB_EEPT_SF_DpOT0_, symObjAddr: 0x34BF4, symBinAddr: 0x100038694, symSize: 0x3C }
  - { offsetInCU: 0xA049D, offset: 0xA049D, size: 0x8, addend: 0x0, symName: __ZNSt3__110destroy_atB7v160006IN5Catch5clara6detail13BoundValueRefINS_12basic_stringIcNS_11char_traitsIcEENS_9allocatorIcEEEEEELi0EEEvPT_, symObjAddr: 0x352B4, symBinAddr: 0x100038D54, symSize: 0x24 }
  - { offsetInCU: 0xA04D7, offset: 0xA04D7, size: 0x8, addend: 0x0, symName: __ZNSt3__112__destroy_atB7v160006IN5Catch5clara6detail13BoundValueRefINS_12basic_stringIcNS_11char_traitsIcEENS_9allocatorIcEEEEEELi0EEEvPT_, symObjAddr: 0x352D8, symBinAddr: 0x100038D78, symSize: 0x2C }
  - { offsetInCU: 0xA0547, offset: 0xA0547, size: 0x8, addend: 0x0, symName: __ZNSt3__14swapB7v160006IPN5Catch5clara6detail17BoundValueRefBaseEEENS_9enable_ifIXaasr21is_move_constructibleIT_EE5valuesr18is_move_assignableIS7_EE5valueEvE4typeERS7_SA_, symObjAddr: 0x355B4, symBinAddr: 0x100039054, symSize: 0x3C }
  - { offsetInCU: 0xA059C, offset: 0xA059C, size: 0x8, addend: 0x0, symName: __ZNSt3__14swapB7v160006IPNS_19__shared_weak_countEEENS_9enable_ifIXaasr21is_move_constructibleIT_EE5valuesr18is_move_assignableIS4_EE5valueEvE4typeERS4_S7_, symObjAddr: 0x355F0, symBinAddr: 0x100039090, symSize: 0x3C }
  - { offsetInCU: 0xA05F0, offset: 0xA05F0, size: 0x8, addend: 0x0, symName: __ZNSt3__111make_sharedB7v160006IN5Catch5clara6detail15BoundFlagLambdaIZNS3_4HelpC1ERbEUlbE_EEJRKS7_EvEENS_10shared_ptrIT_EEDpOT0_, symObjAddr: 0x36204, symBinAddr: 0x100039CA4, symSize: 0x40 }
  - { offsetInCU: 0xA0855, offset: 0xA0855, size: 0x8, addend: 0x0, symName: __ZNSt3__115allocate_sharedB7v160006IN5Catch5clara6detail15BoundFlagLambdaIZNS3_4HelpC1ERbEUlbE_EENS_9allocatorIS8_EEJRKS7_EvEENS_10shared_ptrIT_EERKT0_DpOT1_, symObjAddr: 0x36374, symBinAddr: 0x100039E14, symSize: 0x98 }
  - { offsetInCU: 0xA0BB7, offset: 0xA0BB7, size: 0x8, addend: 0x0, symName: __ZNSt3__112construct_atB7v160006IN5Catch5clara6detail15BoundFlagLambdaIZNS3_4HelpC1ERbEUlbE_EEJRKS7_EPS8_EEPT_SD_DpOT0_, symObjAddr: 0x36A48, symBinAddr: 0x10003A4E8, symSize: 0x3C }
  - { offsetInCU: 0xA0C2F, offset: 0xA0C2F, size: 0x8, addend: 0x0, symName: __ZNSt3__110destroy_atB7v160006IN5Catch5clara6detail15BoundFlagLambdaIZNS3_4HelpC1ERbEUlbE_EELi0EEEvPT_, symObjAddr: 0x36DA4, symBinAddr: 0x10003A844, symSize: 0x24 }
  - { offsetInCU: 0xA0C69, offset: 0xA0C69, size: 0x8, addend: 0x0, symName: __ZNSt3__112__destroy_atB7v160006IN5Catch5clara6detail15BoundFlagLambdaIZNS3_4HelpC1ERbEUlbE_EELi0EEEvPT_, symObjAddr: 0x36DC8, symBinAddr: 0x10003A868, symSize: 0x2C }
  - { offsetInCU: 0xA0CD9, offset: 0xA0CD9, size: 0x8, addend: 0x0, symName: __ZNSt3__134__libcpp_atomic_refcount_incrementB7v160006IlEET_RS1_, symObjAddr: 0x37174, symBinAddr: 0x10003AC14, symSize: 0x30 }
  - { offsetInCU: 0xA0D10, offset: 0xA0D10, size: 0x8, addend: 0x0, symName: __ZNSt3__1miB7v160006IPKN5Catch5clara6detail5TokenES6_EEDTmicldtfp_4baseEcldtfp0_4baseEERKNS_11__wrap_iterIT_EERKNS8_IT0_EE, symObjAddr: 0x38160, symBinAddr: 0x10003BC00, symSize: 0x48 }
  - { offsetInCU: 0xA0D5F, offset: 0xA0D5F, size: 0x8, addend: 0x0, symName: __ZNSt3__14moveB7v160006IPN5Catch5clara6detail5TokenES5_EET0_T_S7_S6_, symObjAddr: 0x38234, symBinAddr: 0x10003BCD4, symSize: 0x40 }
  - { offsetInCU: 0xA0DBD, offset: 0xA0DBD, size: 0x8, addend: 0x0, symName: __ZNSt3__16__moveB7v160006INS_17_ClassicAlgPolicyEPN5Catch5clara6detail5TokenES6_S6_EENS_4pairIT0_T2_EES8_T1_S9_, symObjAddr: 0x3844C, symBinAddr: 0x10003BEEC, symSize: 0x44 }
  - { offsetInCU: 0xA0E2D, offset: 0xA0E2D, size: 0x8, addend: 0x0, symName: __ZNSt3__123__dispatch_copy_or_moveB7v160006INS_17_ClassicAlgPolicyENS_11__move_loopIS1_EENS_14__move_trivialEPN5Catch5clara6detail5TokenES9_S9_EENS_4pairIT2_T4_EESB_T3_SC_, symObjAddr: 0x38490, symBinAddr: 0x10003BF30, symSize: 0x44 }
  - { offsetInCU: 0xA0EAF, offset: 0xA0EAF, size: 0x8, addend: 0x0, symName: __ZNSt3__121__unwrap_and_dispatchB7v160006INS_10__overloadINS_11__move_loopINS_17_ClassicAlgPolicyEEENS_14__move_trivialEEEPN5Catch5clara6detail5TokenESB_SB_Li0EEENS_4pairIT0_T2_EESD_T1_SE_, symObjAddr: 0x384D4, symBinAddr: 0x10003BF74, symSize: 0xB4 }
  - { offsetInCU: 0xA0F44, offset: 0xA0F44, size: 0x8, addend: 0x0, symName: __ZNSt3__114__unwrap_rangeB7v160006IPN5Catch5clara6detail5TokenES5_EEDaT_T0_, symObjAddr: 0x38588, symBinAddr: 0x10003C028, symSize: 0x3C }
  - { offsetInCU: 0xA12CC, offset: 0xA12CC, size: 0x8, addend: 0x0, symName: __ZNSt3__113__unwrap_iterB7v160006IPN5Catch5clara6detail5TokenENS_18__unwrap_iter_implIS5_Lb1EEELi0EEEDTclsrT0_8__unwrapclsr3stdE7declvalIT_EEEES9_, symObjAddr: 0x38654, symBinAddr: 0x10003C0F4, symSize: 0x24 }
  - { offsetInCU: 0xA1312, offset: 0xA1312, size: 0x8, addend: 0x0, symName: __ZNSt3__19make_pairB7v160006IPN5Catch5clara6detail5TokenES5_EENS_4pairINS_18__unwrap_ref_decayIT_E4typeENS7_IT0_E4typeEEEOS8_OSB_, symObjAddr: 0x38678, symBinAddr: 0x10003C118, symSize: 0x38 }
  - { offsetInCU: 0xA1362, offset: 0xA1362, size: 0x8, addend: 0x0, symName: __ZNSt3__114__rewrap_rangeB7v160006IPN5Catch5clara6detail5TokenES5_S5_EET0_S6_T1_, symObjAddr: 0x386B0, symBinAddr: 0x10003C150, symSize: 0x2C }
  - { offsetInCU: 0xA13BA, offset: 0xA13BA, size: 0x8, addend: 0x0, symName: __ZNSt3__113__rewrap_iterB7v160006IPN5Catch5clara6detail5TokenES5_NS_18__unwrap_iter_implIS5_Lb1EEEEET_S8_T0_, symObjAddr: 0x386DC, symBinAddr: 0x10003C17C, symSize: 0x3C }
  - { offsetInCU: 0xA18F8, offset: 0xA18F8, size: 0x8, addend: 0x0, symName: __ZNSt3__112construct_atB7v160006IN5Catch5clara6detail5TokenEJEPS4_EEPT_S7_DpOT0_, symObjAddr: 0x39050, symBinAddr: 0x10003CAF0, symSize: 0x40 }
  - { offsetInCU: 0xA1959, offset: 0xA1959, size: 0x8, addend: 0x0, symName: __ZNSt3__142__uninitialized_allocator_move_if_noexceptB7v160006INS_9allocatorIN5Catch5clara6detail5TokenEEENS_16reverse_iteratorIPS5_EES9_S9_EET2_RT_T0_T1_SA_, symObjAddr: 0x393E4, symBinAddr: 0x10003CE84, symSize: 0x124 }
  - { offsetInCU: 0xA19FA, offset: 0xA19FA, size: 0x8, addend: 0x0, symName: __ZNSt3__14swapB7v160006IPN5Catch5clara6detail5TokenEEENS_9enable_ifIXaasr21is_move_constructibleIT_EE5valuesr18is_move_assignableIS7_EE5valueEvE4typeERS7_SA_, symObjAddr: 0x39508, symBinAddr: 0x10003CFA8, symSize: 0x3C }
  - { offsetInCU: 0xA1A4F, offset: 0xA1A4F, size: 0x8, addend: 0x0, symName: __ZNSt3__125__debug_db_invalidate_allB7v160006INS_6vectorIN5Catch5clara6detail5TokenENS_9allocatorIS5_EEEEEEvPT_, symObjAddr: 0x39544, symBinAddr: 0x10003CFE4, symSize: 0x10 }
  - { offsetInCU: 0xA1A82, offset: 0xA1A82, size: 0x8, addend: 0x0, symName: __ZNSt3__122__make_exception_guardB7v160006INS_29_AllocatorDestroyRangeReverseINS_9allocatorIN5Catch5clara6detail5TokenEEENS_16reverse_iteratorIPS6_EEEEEENS_28__exception_guard_exceptionsIT_EESD_, symObjAddr: 0x39554, symBinAddr: 0x10003CFF4, symSize: 0x4C }
  - { offsetInCU: 0xA1ABA, offset: 0xA1ABA, size: 0x8, addend: 0x0, symName: __ZNSt3__112construct_atB7v160006IN5Catch5clara6detail5TokenEJS4_EPS4_EEPT_S7_DpOT0_, symObjAddr: 0x39720, symBinAddr: 0x10003D1C0, symSize: 0x3C }
  - { offsetInCU: 0xA1B31, offset: 0xA1B31, size: 0x8, addend: 0x0, symName: __ZNSt3__119__allocator_destroyB7v160006INS_9allocatorIN5Catch5clara6detail5TokenEEENS_16reverse_iteratorINS7_IPS5_EEEESA_EEvRT_T0_T1_, symObjAddr: 0x398DC, symBinAddr: 0x10003D37C, symSize: 0x70 }
  - { offsetInCU: 0xA1B97, offset: 0xA1B97, size: 0x8, addend: 0x0, symName: __ZNSt3__1neB7v160006INS_16reverse_iteratorIPN5Catch5clara6detail5TokenEEES7_EEbRKNS1_IT_EERKNS1_IT0_EE, symObjAddr: 0x39988, symBinAddr: 0x10003D428, symSize: 0x60 }
  - { offsetInCU: 0xA1BE6, offset: 0xA1BE6, size: 0x8, addend: 0x0, symName: __ZNSt3__112__to_addressB7v160006INS_16reverse_iteratorINS1_IPN5Catch5clara6detail5TokenEEEEEvEENS_5decayIDTclsr19__to_address_helperIT_EE6__callclsr3stdE7declvalIRKSA_EEEEE4typeESC_, symObjAddr: 0x399E8, symBinAddr: 0x10003D488, symSize: 0x24 }
  - { offsetInCU: 0xA1C49, offset: 0xA1C49, size: 0x8, addend: 0x0, symName: __ZNSt3__14prevB7v160006INS_16reverse_iteratorIPN5Catch5clara6detail5TokenEEEEENS_9enable_ifIXsr25__is_cpp17_input_iteratorIT_EE5valueES9_E4typeES9_NS_15iterator_traitsIS9_E15difference_typeE, symObjAddr: 0x39AE4, symBinAddr: 0x10003D584, symSize: 0x60 }
  - { offsetInCU: 0xA1C8F, offset: 0xA1C8F, size: 0x8, addend: 0x0, symName: __ZNSt3__19__advanceB7v160006INS_16reverse_iteratorIPN5Catch5clara6detail5TokenEEEEEvRT_NS_15iterator_traitsIS8_E15difference_typeENS_26random_access_iterator_tagE, symObjAddr: 0x39B94, symBinAddr: 0x10003D634, symSize: 0x2C }
  - { offsetInCU: 0xA1CDC, offset: 0xA1CDC, size: 0x8, addend: 0x0, symName: __ZNSt3__112__to_addressB7v160006IKNS_12basic_stringIcNS_11char_traitsIcEENS_9allocatorIcEEEEEEPT_S9_, symObjAddr: 0x39E28, symBinAddr: 0x10003D8C8, symSize: 0x14 }
  - { offsetInCU: 0xA1D12, offset: 0xA1D12, size: 0x8, addend: 0x0, symName: __ZNSt3__119__str_find_first_ofB7v160006IcmNS_11char_traitsIcEELm18446744073709551615EEET0_PKT_S3_S6_S3_S3_, symObjAddr: 0x39E3C, symBinAddr: 0x10003D8DC, symSize: 0xF0 }
  - { offsetInCU: 0xA1DBB, offset: 0xA1DBB, size: 0x8, addend: 0x0, symName: __ZNSt3__118__find_first_of_ceB7v160006IPKcS2_RDoFbccEEET_S5_S5_T0_S6_OT1_, symObjAddr: 0x39F60, symBinAddr: 0x10003DA00, symSize: 0xD0 }
  - { offsetInCU: 0xA1E5D, offset: 0xA1E5D, size: 0x8, addend: 0x0, symName: __ZNSt3__118__constexpr_strlenB7v160006EPKc, symObjAddr: 0x3A058, symBinAddr: 0x10003DAF8, symSize: 0x24 }
  - { offsetInCU: 0xA1E8A, offset: 0xA1E8A, size: 0x8, addend: 0x0, symName: __ZNSt3__111make_sharedB7v160006IN5Catch5clara6detail12BoundFlagRefEJRbEvEENS_10shared_ptrIT_EEDpOT0_, symObjAddr: 0x3A3A0, symBinAddr: 0x10003DE40, symSize: 0x40 }
  - { offsetInCU: 0xA20EF, offset: 0xA20EF, size: 0x8, addend: 0x0, symName: __ZNSt3__115allocate_sharedB7v160006IN5Catch5clara6detail12BoundFlagRefENS_9allocatorIS4_EEJRbEvEENS_10shared_ptrIT_EERKT0_DpOT1_, symObjAddr: 0x3A440, symBinAddr: 0x10003DEE0, symSize: 0x98 }
  - { offsetInCU: 0xA2451, offset: 0xA2451, size: 0x8, addend: 0x0, symName: __ZNSt3__112construct_atB7v160006IN5Catch5clara6detail12BoundFlagRefEJRbEPS4_EEPT_S8_DpOT0_, symObjAddr: 0x3AB14, symBinAddr: 0x10003E5B4, symSize: 0x3C }
  - { offsetInCU: 0xA24C9, offset: 0xA24C9, size: 0x8, addend: 0x0, symName: __ZNSt3__110destroy_atB7v160006IN5Catch5clara6detail12BoundFlagRefELi0EEEvPT_, symObjAddr: 0x3AD48, symBinAddr: 0x10003E7E8, symSize: 0x24 }
  - { offsetInCU: 0xA2503, offset: 0xA2503, size: 0x8, addend: 0x0, symName: __ZNSt3__112__destroy_atB7v160006IN5Catch5clara6detail12BoundFlagRefELi0EEEvPT_, symObjAddr: 0x3AD6C, symBinAddr: 0x10003E80C, symSize: 0x2C }
  - { offsetInCU: 0xA2572, offset: 0xA2572, size: 0x8, addend: 0x0, symName: __ZNSt3__111make_sharedB7v160006IN5Catch5clara6detail13BoundValueRefINS_6vectorINS_12basic_stringIcNS_11char_traitsIcEENS_9allocatorIcEEEENS9_ISB_EEEEEEJRSD_EvEENS_10shared_ptrIT_EEDpOT0_, symObjAddr: 0x3B530, symBinAddr: 0x10003EFD0, symSize: 0x40 }
  - { offsetInCU: 0xA27D7, offset: 0xA27D7, size: 0x8, addend: 0x0, symName: __ZNSt3__115allocate_sharedB7v160006IN5Catch5clara6detail13BoundValueRefINS_6vectorINS_12basic_stringIcNS_11char_traitsIcEENS_9allocatorIcEEEENS9_ISB_EEEEEENS9_ISE_EEJRSD_EvEENS_10shared_ptrIT_EERKT0_DpOT1_, symObjAddr: 0x3B63C, symBinAddr: 0x10003F0DC, symSize: 0x98 }
  - { offsetInCU: 0xA2B39, offset: 0xA2B39, size: 0x8, addend: 0x0, symName: __ZNSt3__112construct_atB7v160006IN5Catch5clara6detail13BoundValueRefINS_6vectorINS_12basic_stringIcNS_11char_traitsIcEENS_9allocatorIcEEEENS9_ISB_EEEEEEJRSD_EPSE_EEPT_SI_DpOT0_, symObjAddr: 0x3BD10, symBinAddr: 0x10003F7B0, symSize: 0x3C }
  - { offsetInCU: 0xA2BB1, offset: 0xA2BB1, size: 0x8, addend: 0x0, symName: __ZNSt3__110destroy_atB7v160006IN5Catch5clara6detail13BoundValueRefINS_6vectorINS_12basic_stringIcNS_11char_traitsIcEENS_9allocatorIcEEEENS9_ISB_EEEEEELi0EEEvPT_, symObjAddr: 0x3C004, symBinAddr: 0x10003FAA4, symSize: 0x24 }
  - { offsetInCU: 0xA2BEB, offset: 0xA2BEB, size: 0x8, addend: 0x0, symName: __ZNSt3__112__destroy_atB7v160006IN5Catch5clara6detail13BoundValueRefINS_6vectorINS_12basic_stringIcNS_11char_traitsIcEENS_9allocatorIcEEEENS9_ISB_EEEEEELi0EEEvPT_, symObjAddr: 0x3C028, symBinAddr: 0x10003FAC8, symSize: 0x2C }
  - { offsetInCU: 0xA2C5B, offset: 0xA2C5B, size: 0x8, addend: 0x0, symName: __ZNSt3__118__debug_db_erase_cB7v160006INS_6vectorIN5Catch5clara6detail3ArgENS_9allocatorIS5_EEEEEEvPT_, symObjAddr: 0x3CE28, symBinAddr: 0x1000408C8, symSize: 0x10 }
  - { offsetInCU: 0xA2C8E, offset: 0xA2C8E, size: 0x8, addend: 0x0, symName: __ZNSt3__112__to_addressB7v160006IN5Catch5clara6detail3ArgEEEPT_S6_, symObjAddr: 0x3CF6C, symBinAddr: 0x100040A0C, symSize: 0x14 }
  - { offsetInCU: 0xA2CC5, offset: 0xA2CC5, size: 0x8, addend: 0x0, symName: __ZNSt3__110destroy_atB7v160006IN5Catch5clara6detail3ArgELi0EEEvPT_, symObjAddr: 0x3D034, symBinAddr: 0x100040AD4, symSize: 0x24 }
  - { offsetInCU: 0xA2CFF, offset: 0xA2CFF, size: 0x8, addend: 0x0, symName: __ZNSt3__112__destroy_atB7v160006IN5Catch5clara6detail3ArgELi0EEEvPT_, symObjAddr: 0x3D058, symBinAddr: 0x100040AF8, symSize: 0x2C }
  - { offsetInCU: 0xA2D39, offset: 0xA2D39, size: 0x8, addend: 0x0, symName: __ZNSt3__118__debug_db_erase_cB7v160006INS_6vectorIN5Catch5clara6detail3OptENS_9allocatorIS5_EEEEEEvPT_, symObjAddr: 0x3D368, symBinAddr: 0x100040E08, symSize: 0x10 }
  - { offsetInCU: 0xA2D6C, offset: 0xA2D6C, size: 0x8, addend: 0x0, symName: __ZNSt3__112__to_addressB7v160006IN5Catch5clara6detail3OptEEEPT_S6_, symObjAddr: 0x3D4AC, symBinAddr: 0x100040F4C, symSize: 0x14 }
  - { offsetInCU: 0xA2DA3, offset: 0xA2DA3, size: 0x8, addend: 0x0, symName: __ZNSt3__110destroy_atB7v160006IN5Catch5clara6detail3OptELi0EEEvPT_, symObjAddr: 0x3D574, symBinAddr: 0x100041014, symSize: 0x24 }
  - { offsetInCU: 0xA2DDD, offset: 0xA2DDD, size: 0x8, addend: 0x0, symName: __ZNSt3__112__destroy_atB7v160006IN5Catch5clara6detail3OptELi0EEEvPT_, symObjAddr: 0x3D598, symBinAddr: 0x100041038, symSize: 0x2C }
  - { offsetInCU: 0xA2E17, offset: 0xA2E17, size: 0x8, addend: 0x0, symName: __ZNSt3__1neB7v160006IPKN5Catch5clara6detail3OptEEEbRKNS_11__wrap_iterIT_EESB_, symObjAddr: 0x3D700, symBinAddr: 0x1000411A0, symSize: 0x34 }
  - { offsetInCU: 0xA2E5D, offset: 0xA2E5D, size: 0x8, addend: 0x0, symName: __ZNSt3__1neB7v160006IPKN5Catch5clara6detail3ArgEEEbRKNS_11__wrap_iterIT_EESB_, symObjAddr: 0x3D7CC, symBinAddr: 0x10004126C, symSize: 0x34 }
  - { offsetInCU: 0xA2EA3, offset: 0xA2EA3, size: 0x8, addend: 0x0, symName: __ZNSt3__1eqB7v160006IPKN5Catch5clara6detail3OptEEEbRKNS_11__wrap_iterIT_EESB_, symObjAddr: 0x3D8CC, symBinAddr: 0x10004136C, symSize: 0x48 }
  - { offsetInCU: 0xA2EE9, offset: 0xA2EE9, size: 0x8, addend: 0x0, symName: __ZNSt3__1eqB7v160006IPKN5Catch5clara6detail3ArgEEEbRKNS_11__wrap_iterIT_EESB_, symObjAddr: 0x3D9C0, symBinAddr: 0x100041460, symSize: 0x48 }
  - { offsetInCU: 0xA2F2E, offset: 0xA2F2E, size: 0x8, addend: 0x0, symName: __ZNSt3__118__str_find_last_ofB7v160006IcmNS_11char_traitsIcEELm18446744073709551615EEET0_PKT_S3_S6_S3_S3_, symObjAddr: 0x3DD70, symBinAddr: 0x100041810, symSize: 0xFC }
  - { offsetInCU: 0xA3002, offset: 0xA3002, size: 0x8, addend: 0x0, symName: __ZNSt3__123__constexpr_char_memchrB7v160006EPKcim, symObjAddr: 0x3DEDC, symBinAddr: 0x10004197C, symSize: 0x34 }
  - { offsetInCU: 0xA304E, offset: 0xA304E, size: 0x8, addend: 0x0, symName: __ZNSt3__119__debug_db_insert_cB7v160006INS_6vectorIN5Catch8TestSpec6FilterENS_9allocatorIS4_EEEEEEvPT_, symObjAddr: 0x3E3FC, symBinAddr: 0x100041E9C, symSize: 0x10 }
  - { offsetInCU: 0xA3081, offset: 0xA3081, size: 0x8, addend: 0x0, symName: __ZNSt3__1eqB7v160006IPNS_12basic_stringIcNS_11char_traitsIcEENS_9allocatorIcEEEEEEbRKNS_11__wrap_iterIT_EESC_, symObjAddr: 0x3E568, symBinAddr: 0x100042008, symSize: 0x48 }
  - { offsetInCU: 0xA30C7, offset: 0xA30C7, size: 0x8, addend: 0x0, symName: __ZNSt3__115__debug_db_swapB7v160006INS_6vectorIN5Catch8TestSpec6FilterENS_9allocatorIS4_EEEEEEvPT_S9_, symObjAddr: 0x3E788, symBinAddr: 0x100042228, symSize: 0x14 }
  - { offsetInCU: 0xA3109, offset: 0xA3109, size: 0x8, addend: 0x0, symName: __ZNSt3__125__debug_db_invalidate_allB7v160006INS_6vectorIN5Catch8TestSpec6FilterENS_9allocatorIS4_EEEEEEvPT_, symObjAddr: 0x3E984, symBinAddr: 0x100042424, symSize: 0x10 }
  - { offsetInCU: 0xA313C, offset: 0xA313C, size: 0x8, addend: 0x0, symName: __ZNSt3__112__to_addressB7v160006IN5Catch8TestSpec6FilterEEEPT_S5_, symObjAddr: 0x3EA48, symBinAddr: 0x1000424E8, symSize: 0x14 }
  - { offsetInCU: 0xA3173, offset: 0xA3173, size: 0x8, addend: 0x0, symName: __ZNSt3__110destroy_atB7v160006IN5Catch8TestSpec6FilterELi0EEEvPT_, symObjAddr: 0x3EA5C, symBinAddr: 0x1000424FC, symSize: 0x24 }
  - { offsetInCU: 0xA31AD, offset: 0xA31AD, size: 0x8, addend: 0x0, symName: __ZNSt3__112__destroy_atB7v160006IN5Catch8TestSpec6FilterELi0EEEvPT_, symObjAddr: 0x3EA80, symBinAddr: 0x100042520, symSize: 0x24 }
  - { offsetInCU: 0xA31E7, offset: 0xA31E7, size: 0x8, addend: 0x0, symName: __ZNSt3__118__debug_db_erase_cB7v160006INS_6vectorIN5Catch8TestSpec6FilterENS_9allocatorIS4_EEEEEEvPT_, symObjAddr: 0x3EEA4, symBinAddr: 0x100042944, symSize: 0x10 }
  - { offsetInCU: 0xA321A, offset: 0xA321A, size: 0x8, addend: 0x0, symName: __ZNSt3__118__debug_db_erase_cB7v160006INS_6vectorImNS_9allocatorImEEEEEEvPT_, symObjAddr: 0x3F138, symBinAddr: 0x100042BD8, symSize: 0x10 }
  - { offsetInCU: 0xA324D, offset: 0xA324D, size: 0x8, addend: 0x0, symName: __ZNSt3__112__to_addressB7v160006ImEEPT_S2_, symObjAddr: 0x3F254, symBinAddr: 0x100042CF4, symSize: 0x14 }
  - { offsetInCU: 0xA3284, offset: 0xA3284, size: 0x8, addend: 0x0, symName: __ZNSt3__110destroy_atB7v160006ImLi0EEEvPT_, symObjAddr: 0x3F31C, symBinAddr: 0x100042DBC, symSize: 0x24 }
  - { offsetInCU: 0xA32BE, offset: 0xA32BE, size: 0x8, addend: 0x0, symName: __ZNSt3__112__destroy_atB7v160006ImLi0EEEvPT_, symObjAddr: 0x3F340, symBinAddr: 0x100042DE0, symSize: 0x10 }
  - { offsetInCU: 0xA32F8, offset: 0xA32F8, size: 0x8, addend: 0x0, symName: __ZNSt3__119__debug_db_insert_cB7v160006INS_6vectorIN5Catch9StringRefENS_9allocatorIS3_EEEEEEvPT_, symObjAddr: 0x3FCF4, symBinAddr: 0x100043794, symSize: 0x10 }
  - { offsetInCU: 0xA332B, offset: 0xA332B, size: 0x8, addend: 0x0, symName: __ZNSt3__119__allocate_at_leastB7v160006INS_9allocatorIN5Catch9StringRefEEEEENS_19__allocation_resultINS_16allocator_traitsIT_E7pointerEEERS7_m, symObjAddr: 0x40268, symBinAddr: 0x100043D08, symSize: 0x40 }
  - { offsetInCU: 0xA3370, offset: 0xA3370, size: 0x8, addend: 0x0, symName: __ZNSt3__142__uninitialized_allocator_move_if_noexceptB7v160006INS_9allocatorIN5Catch9StringRefEEENS_16reverse_iteratorIPS3_EES7_S3_vEET1_RT_T0_SB_S8_, symObjAddr: 0x404E8, symBinAddr: 0x100043F88, symSize: 0x78 }
  - { offsetInCU: 0xA33EE, offset: 0xA33EE, size: 0x8, addend: 0x0, symName: __ZNSt3__14swapB7v160006IPN5Catch9StringRefEEENS_9enable_ifIXaasr21is_move_constructibleIT_EE5valuesr18is_move_assignableIS5_EE5valueEvE4typeERS5_S8_, symObjAddr: 0x405AC, symBinAddr: 0x10004404C, symSize: 0x3C }
  - { offsetInCU: 0xA3443, offset: 0xA3443, size: 0x8, addend: 0x0, symName: __ZNSt3__125__debug_db_invalidate_allB7v160006INS_6vectorIN5Catch9StringRefENS_9allocatorIS3_EEEEEEvPT_, symObjAddr: 0x406BC, symBinAddr: 0x10004415C, symSize: 0x10 }
  - { offsetInCU: 0xA3476, offset: 0xA3476, size: 0x8, addend: 0x0, symName: __ZNSt3__112__to_addressB7v160006IN5Catch9StringRefEEEPT_S4_, symObjAddr: 0x40714, symBinAddr: 0x1000441B4, symSize: 0x14 }
  - { offsetInCU: 0xA34AD, offset: 0xA34AD, size: 0x8, addend: 0x0, symName: __ZNSt3__14moveB7v160006INS_16reverse_iteratorIPN5Catch9StringRefEEES5_EET0_T_S7_S6_, symObjAddr: 0x40728, symBinAddr: 0x1000441C8, symSize: 0x78 }
  - { offsetInCU: 0xA350B, offset: 0xA350B, size: 0x8, addend: 0x0, symName: __ZNSt3__16__moveB7v160006INS_17_ClassicAlgPolicyENS_16reverse_iteratorIPN5Catch9StringRefEEES6_S6_EENS_4pairIT0_T2_EES8_T1_S9_, symObjAddr: 0x407A0, symBinAddr: 0x100044240, symSize: 0x64 }
  - { offsetInCU: 0xA357B, offset: 0xA357B, size: 0x8, addend: 0x0, symName: __ZNSt3__123__dispatch_copy_or_moveB7v160006INS_17_ClassicAlgPolicyENS_11__move_loopIS1_EENS_14__move_trivialENS_16reverse_iteratorIPN5Catch9StringRefEEES9_S9_EENS_4pairIT2_T4_EESB_T3_SC_, symObjAddr: 0x40804, symBinAddr: 0x1000442A4, symSize: 0x64 }
  - { offsetInCU: 0xA35FD, offset: 0xA35FD, size: 0x8, addend: 0x0, symName: __ZNSt3__121__unwrap_and_dispatchB7v160006INS_10__overloadINS_11__move_loopINS_17_ClassicAlgPolicyEEENS_14__move_trivialEEENS_16reverse_iteratorIPN5Catch9StringRefEEESB_SB_Li0EEENS_4pairIT0_T2_EESD_T1_SE_, symObjAddr: 0x40868, symBinAddr: 0x100044308, symSize: 0x12C }
  - { offsetInCU: 0xA3694, offset: 0xA3694, size: 0x8, addend: 0x0, symName: __ZNSt3__114__unwrap_rangeB7v160006INS_16reverse_iteratorIPN5Catch9StringRefEEES5_EEDaT_T0_, symObjAddr: 0x40994, symBinAddr: 0x100044434, symSize: 0x4C }
  - { offsetInCU: 0xA37BE, offset: 0xA37BE, size: 0x8, addend: 0x0, symName: __ZNSt3__113__unwrap_iterB7v160006INS_16reverse_iteratorIPN5Catch9StringRefEEENS_18__unwrap_iter_implIS5_Lb0EEELi0EEEDTclsrT0_8__unwrapclsr3stdE7declvalIT_EEEES9_, symObjAddr: 0x40A80, symBinAddr: 0x100044520, symSize: 0x44 }
  - { offsetInCU: 0xA3804, offset: 0xA3804, size: 0x8, addend: 0x0, symName: __ZNSt3__19make_pairB7v160006INS_16reverse_iteratorIPN5Catch9StringRefEEES5_EENS_4pairINS_18__unwrap_ref_decayIT_E4typeENS7_IT0_E4typeEEEOS8_OSB_, symObjAddr: 0x40AC4, symBinAddr: 0x100044564, symSize: 0x38 }
  - { offsetInCU: 0xA3854, offset: 0xA3854, size: 0x8, addend: 0x0, symName: __ZNSt3__114__rewrap_rangeB7v160006INS_16reverse_iteratorIPN5Catch9StringRefEEES5_S5_EET0_S6_T1_, symObjAddr: 0x40AFC, symBinAddr: 0x10004459C, symSize: 0x5C }
  - { offsetInCU: 0xA38AC, offset: 0xA38AC, size: 0x8, addend: 0x0, symName: __ZNSt3__113__rewrap_iterB7v160006INS_16reverse_iteratorIPN5Catch9StringRefEEES5_NS_18__unwrap_iter_implIS5_Lb0EEEEET_S8_T0_, symObjAddr: 0x40B58, symBinAddr: 0x1000445F8, symSize: 0x74 }
  - { offsetInCU: 0xA3957, offset: 0xA3957, size: 0x8, addend: 0x0, symName: __ZNSt3__1neB7v160006IPN5Catch9StringRefES3_EEbRKNS_16reverse_iteratorIT_EERKNS4_IT0_EE, symObjAddr: 0x40CC0, symBinAddr: 0x100044760, symSize: 0x48 }
  - { offsetInCU: 0xA3A19, offset: 0xA3A19, size: 0x8, addend: 0x0, symName: __ZNSt3__110destroy_atB7v160006IN5Catch9StringRefELi0EEEvPT_, symObjAddr: 0x41070, symBinAddr: 0x100044B10, symSize: 0x24 }
  - { offsetInCU: 0xA3A53, offset: 0xA3A53, size: 0x8, addend: 0x0, symName: __ZNSt3__112__destroy_atB7v160006IN5Catch9StringRefELi0EEEvPT_, symObjAddr: 0x41094, symBinAddr: 0x100044B34, symSize: 0x10 }
  - { offsetInCU: 0xA3A8D, offset: 0xA3A8D, size: 0x8, addend: 0x0, symName: __ZNSt3__1eqB7v160006IPN5Catch9StringRefEEEbRKNS_11__wrap_iterIT_EES8_, symObjAddr: 0x411C4, symBinAddr: 0x100044C64, symSize: 0x48 }
  - { offsetInCU: 0xA3AFA, offset: 0xA3AFA, size: 0x8, addend: 0x0, symName: __ZNSt3__112construct_atB7v160006IN5Catch9StringRefEJS2_EPS2_EEPT_S5_DpOT0_, symObjAddr: 0x41468, symBinAddr: 0x100044F08, symSize: 0x2C }
  - { offsetInCU: 0xA3B72, offset: 0xA3B72, size: 0x8, addend: 0x0, symName: __ZNSt3__118__debug_db_erase_cB7v160006INS_6vectorIN5Catch9StringRefENS_9allocatorIS3_EEEEEEvPT_, symObjAddr: 0x4169C, symBinAddr: 0x10004513C, symSize: 0x10 }
  - { offsetInCU: 0xA3BA5, offset: 0xA3BA5, size: 0x8, addend: 0x0, symName: __ZNSt3__118__debug_db_erase_cB7v160006INS_6vectorINS_4pairIiN5Catch9StringRefEEENS_9allocatorIS5_EEEEEEvPT_, symObjAddr: 0x41968, symBinAddr: 0x100045408, symSize: 0x10 }
  - { offsetInCU: 0xA3BD8, offset: 0xA3BD8, size: 0x8, addend: 0x0, symName: __ZNSt3__112__to_addressB7v160006INS_4pairIiN5Catch9StringRefEEEEEPT_S6_, symObjAddr: 0x41AAC, symBinAddr: 0x10004554C, symSize: 0x14 }
  - { offsetInCU: 0xA3C0F, offset: 0xA3C0F, size: 0x8, addend: 0x0, symName: __ZNSt3__110destroy_atB7v160006INS_4pairIiN5Catch9StringRefEEELi0EEEvPT_, symObjAddr: 0x41B74, symBinAddr: 0x100045614, symSize: 0x24 }
  - { offsetInCU: 0xA3C49, offset: 0xA3C49, size: 0x8, addend: 0x0, symName: __ZNSt3__112__destroy_atB7v160006INS_4pairIiN5Catch9StringRefEEELi0EEEvPT_, symObjAddr: 0x41B98, symBinAddr: 0x100045638, symSize: 0x10 }
  - { offsetInCU: 0xA3C83, offset: 0xA3C83, size: 0x8, addend: 0x0, symName: __ZNSt3__1eqB7v160006IPKNS_4pairIiN5Catch9StringRefEEEEEbRKNS_11__wrap_iterIT_EESB_, symObjAddr: 0x41D18, symBinAddr: 0x1000457B8, symSize: 0x48 }
  - { offsetInCU: 0xA3CC9, offset: 0xA3CC9, size: 0x8, addend: 0x0, symName: __ZNSt3__119__debug_db_insert_cB7v160006INS_6vectorINS_4pairIiN5Catch9StringRefEEENS_9allocatorIS5_EEEEEEvPT_, symObjAddr: 0x41E70, symBinAddr: 0x100045910, symSize: 0x10 }
  - { offsetInCU: 0xA3CFC, offset: 0xA3CFC, size: 0x8, addend: 0x0, symName: __ZNSt3__119__allocate_at_leastB7v160006INS_9allocatorINS_4pairIiN5Catch9StringRefEEEEEEENS_19__allocation_resultINS_16allocator_traitsIT_E7pointerEEERS9_m, symObjAddr: 0x422F0, symBinAddr: 0x100045D90, symSize: 0x40 }
  - { offsetInCU: 0xA3D41, offset: 0xA3D41, size: 0x8, addend: 0x0, symName: __ZNSt3__142__uninitialized_allocator_move_if_noexceptB7v160006INS_9allocatorINS_4pairIiN5Catch9StringRefEEEEENS_16reverse_iteratorIPS5_EES9_S9_EET2_RT_T0_T1_SA_, symObjAddr: 0x424BC, symBinAddr: 0x100045F5C, symSize: 0x12C }
  - { offsetInCU: 0xA3DE2, offset: 0xA3DE2, size: 0x8, addend: 0x0, symName: __ZNSt3__14swapB7v160006IPNS_4pairIiN5Catch9StringRefEEEEENS_9enable_ifIXaasr21is_move_constructibleIT_EE5valuesr18is_move_assignableIS7_EE5valueEvE4typeERS7_SA_, symObjAddr: 0x42634, symBinAddr: 0x1000460D4, symSize: 0x3C }
  - { offsetInCU: 0xA3E37, offset: 0xA3E37, size: 0x8, addend: 0x0, symName: __ZNSt3__125__debug_db_invalidate_allB7v160006INS_6vectorINS_4pairIiN5Catch9StringRefEEENS_9allocatorIS5_EEEEEEvPT_, symObjAddr: 0x42760, symBinAddr: 0x100046200, symSize: 0x10 }
  - { offsetInCU: 0xA3E6A, offset: 0xA3E6A, size: 0x8, addend: 0x0, symName: __ZNSt3__122__make_exception_guardB7v160006INS_29_AllocatorDestroyRangeReverseINS_9allocatorINS_4pairIiN5Catch9StringRefEEEEENS_16reverse_iteratorIPS6_EEEEEENS_28__exception_guard_exceptionsIT_EESD_, symObjAddr: 0x42770, symBinAddr: 0x100046210, symSize: 0x4C }
  - { offsetInCU: 0xA3EA2, offset: 0xA3EA2, size: 0x8, addend: 0x0, symName: __ZNSt3__1neB7v160006IPNS_4pairIiN5Catch9StringRefEEES5_EEbRKNS_16reverse_iteratorIT_EERKNS6_IT0_EE, symObjAddr: 0x42800, symBinAddr: 0x1000462A0, symSize: 0x48 }
  - { offsetInCU: 0xA3EF1, offset: 0xA3EF1, size: 0x8, addend: 0x0, symName: __ZNSt3__112__to_addressB7v160006INS_16reverse_iteratorIPNS_4pairIiN5Catch9StringRefEEEEEvEENS_5decayIDTclsr19__to_address_helperIT_EE6__callclsr3stdE7declvalIRKS9_EEEEE4typeESB_, symObjAddr: 0x42878, symBinAddr: 0x100046318, symSize: 0x24 }
  - { offsetInCU: 0xA3F50, offset: 0xA3F50, size: 0x8, addend: 0x0, symName: __ZNSt3__112construct_atB7v160006INS_4pairIiN5Catch9StringRefEEEJS4_EPS4_EEPT_S7_DpOT0_, symObjAddr: 0x429C8, symBinAddr: 0x100046468, symSize: 0x34 }
  - { offsetInCU: 0xA3FF3, offset: 0xA3FF3, size: 0x8, addend: 0x0, symName: __ZNSt3__14prevB7v160006IPNS_4pairIiN5Catch9StringRefEEEEENS_9enable_ifIXsr25__is_cpp17_input_iteratorIT_EE5valueES7_E4typeES7_NS_15iterator_traitsIS7_E15difference_typeE, symObjAddr: 0x42A60, symBinAddr: 0x100046500, symSize: 0x50 }
  - { offsetInCU: 0xA4039, offset: 0xA4039, size: 0x8, addend: 0x0, symName: __ZNSt3__19__advanceB7v160006IPNS_4pairIiN5Catch9StringRefEEEEEvRT_NS_15iterator_traitsIS6_E15difference_typeENS_26random_access_iterator_tagE, symObjAddr: 0x42B00, symBinAddr: 0x1000465A0, symSize: 0x30 }
  - { offsetInCU: 0xA4085, offset: 0xA4085, size: 0x8, addend: 0x0, symName: __ZNSt3__119__allocator_destroyB7v160006INS_9allocatorINS_4pairIiN5Catch9StringRefEEEEENS_16reverse_iteratorINS7_IPS5_EEEESA_EEvRT_T0_T1_, symObjAddr: 0x42C34, symBinAddr: 0x1000466D4, symSize: 0x70 }
  - { offsetInCU: 0xA40EB, offset: 0xA40EB, size: 0x8, addend: 0x0, symName: __ZNSt3__1neB7v160006INS_16reverse_iteratorIPNS_4pairIiN5Catch9StringRefEEEEES7_EEbRKNS1_IT_EERKNS1_IT0_EE, symObjAddr: 0x42CE0, symBinAddr: 0x100046780, symSize: 0x60 }
  - { offsetInCU: 0xA413A, offset: 0xA413A, size: 0x8, addend: 0x0, symName: __ZNSt3__112__to_addressB7v160006INS_16reverse_iteratorINS1_IPNS_4pairIiN5Catch9StringRefEEEEEEEvEENS_5decayIDTclsr19__to_address_helperIT_EE6__callclsr3stdE7declvalIRKSA_EEEEE4typeESC_, symObjAddr: 0x42D40, symBinAddr: 0x1000467E0, symSize: 0x24 }
  - { offsetInCU: 0xA419D, offset: 0xA419D, size: 0x8, addend: 0x0, symName: __ZNSt3__14prevB7v160006INS_16reverse_iteratorIPNS_4pairIiN5Catch9StringRefEEEEEEENS_9enable_ifIXsr25__is_cpp17_input_iteratorIT_EE5valueES9_E4typeES9_NS_15iterator_traitsIS9_E15difference_typeE, symObjAddr: 0x42E3C, symBinAddr: 0x1000468DC, symSize: 0x60 }
  - { offsetInCU: 0xA41E3, offset: 0xA41E3, size: 0x8, addend: 0x0, symName: __ZNSt3__19__advanceB7v160006INS_16reverse_iteratorIPNS_4pairIiN5Catch9StringRefEEEEEEEvRT_NS_15iterator_traitsIS8_E15difference_typeENS_26random_access_iterator_tagE, symObjAddr: 0x42EEC, symBinAddr: 0x10004698C, symSize: 0x2C }
  - { offsetInCU: 0xA4230, offset: 0xA4230, size: 0x8, addend: 0x0, symName: __ZNSt3__1eqB7v160006IPKiEEbRKNS_11__wrap_iterIT_EES7_, symObjAddr: 0x43260, symBinAddr: 0x100046D00, symSize: 0x48 }
  - { offsetInCU: 0xA4276, offset: 0xA4276, size: 0x8, addend: 0x0, symName: __ZNSt3__112construct_atB7v160006INS_4pairIiN5Catch9StringRefEEEJRiRKS3_EPS4_EEPT_SA_DpOT0_, symObjAddr: 0x43540, symBinAddr: 0x100046FE0, symSize: 0x44 }
  - { offsetInCU: 0xA4303, offset: 0xA4303, size: 0x8, addend: 0x0, symName: __ZNSt3__112__to_addressB7v160006INS_10unique_ptrIN5Catch6Detail8EnumInfoENS_14default_deleteIS4_EEEEEEPT_S9_, symObjAddr: 0x43924, symBinAddr: 0x1000473C4, symSize: 0x14 }
  - { offsetInCU: 0xA4361, offset: 0xA4361, size: 0x8, addend: 0x0, symName: __ZNSt3__112construct_atB7v160006INS_10unique_ptrIN5Catch6Detail8EnumInfoENS_14default_deleteIS4_EEEEJS7_EPS7_EEPT_SA_DpOT0_, symObjAddr: 0x439A8, symBinAddr: 0x100047448, symSize: 0x3C }
  - { offsetInCU: 0xA43D9, offset: 0xA43D9, size: 0x8, addend: 0x0, symName: __ZNSt3__119__allocate_at_leastB7v160006INS_9allocatorINS_10unique_ptrIN5Catch6Detail8EnumInfoENS_14default_deleteIS5_EEEEEEEENS_19__allocation_resultINS_16allocator_traitsIT_E7pointerEEERSC_m, symObjAddr: 0x4417C, symBinAddr: 0x100047C1C, symSize: 0x40 }
  - { offsetInCU: 0xA441E, offset: 0xA441E, size: 0x8, addend: 0x0, symName: __ZNSt3__142__uninitialized_allocator_move_if_noexceptB7v160006INS_9allocatorINS_10unique_ptrIN5Catch6Detail8EnumInfoENS_14default_deleteIS5_EEEEEENS_16reverse_iteratorIPS8_EESC_SC_EET2_RT_T0_T1_SD_, symObjAddr: 0x44404, symBinAddr: 0x100047EA4, symSize: 0x12C }
  - { offsetInCU: 0xA44BF, offset: 0xA44BF, size: 0x8, addend: 0x0, symName: __ZNSt3__14swapB7v160006IPNS_10unique_ptrIN5Catch6Detail8EnumInfoENS_14default_deleteIS4_EEEEEENS_9enable_ifIXaasr21is_move_constructibleIT_EE5valuesr18is_move_assignableISA_EE5valueEvE4typeERSA_SD_, symObjAddr: 0x4457C, symBinAddr: 0x10004801C, symSize: 0x3C }
  - { offsetInCU: 0xA4514, offset: 0xA4514, size: 0x8, addend: 0x0, symName: __ZNSt3__125__debug_db_invalidate_allB7v160006INS_6vectorINS_10unique_ptrIN5Catch6Detail8EnumInfoENS_14default_deleteIS5_EEEENS_9allocatorIS8_EEEEEEvPT_, symObjAddr: 0x44664, symBinAddr: 0x100048104, symSize: 0x10 }
  - { offsetInCU: 0xA4547, offset: 0xA4547, size: 0x8, addend: 0x0, symName: __ZNSt3__122__make_exception_guardB7v160006INS_29_AllocatorDestroyRangeReverseINS_9allocatorINS_10unique_ptrIN5Catch6Detail8EnumInfoENS_14default_deleteIS6_EEEEEENS_16reverse_iteratorIPS9_EEEEEENS_28__exception_guard_exceptionsIT_EESG_, symObjAddr: 0x446BC, symBinAddr: 0x10004815C, symSize: 0x4C }
  - { offsetInCU: 0xA457F, offset: 0xA457F, size: 0x8, addend: 0x0, symName: __ZNSt3__1neB7v160006IPNS_10unique_ptrIN5Catch6Detail8EnumInfoENS_14default_deleteIS4_EEEES8_EEbRKNS_16reverse_iteratorIT_EERKNS9_IT0_EE, symObjAddr: 0x4474C, symBinAddr: 0x1000481EC, symSize: 0x48 }
  - { offsetInCU: 0xA45CE, offset: 0xA45CE, size: 0x8, addend: 0x0, symName: __ZNSt3__112__to_addressB7v160006INS_16reverse_iteratorIPNS_10unique_ptrIN5Catch6Detail8EnumInfoENS_14default_deleteIS5_EEEEEEvEENS_5decayIDTclsr19__to_address_helperIT_EE6__callclsr3stdE7declvalIRKSC_EEEEE4typeESE_, symObjAddr: 0x44794, symBinAddr: 0x100048234, symSize: 0x24 }
  - { offsetInCU: 0xA4631, offset: 0xA4631, size: 0x8, addend: 0x0, symName: __ZNSt3__14prevB7v160006IPNS_10unique_ptrIN5Catch6Detail8EnumInfoENS_14default_deleteIS4_EEEEEENS_9enable_ifIXsr25__is_cpp17_input_iteratorIT_EE5valueESA_E4typeESA_NS_15iterator_traitsISA_E15difference_typeE, symObjAddr: 0x44948, symBinAddr: 0x1000483E8, symSize: 0x50 }
  - { offsetInCU: 0xA4677, offset: 0xA4677, size: 0x8, addend: 0x0, symName: __ZNSt3__19__advanceB7v160006IPNS_10unique_ptrIN5Catch6Detail8EnumInfoENS_14default_deleteIS4_EEEEEEvRT_NS_15iterator_traitsIS9_E15difference_typeENS_26random_access_iterator_tagE, symObjAddr: 0x449E8, symBinAddr: 0x100048488, symSize: 0x28 }
  - { offsetInCU: 0xA46C3, offset: 0xA46C3, size: 0x8, addend: 0x0, symName: __ZNSt3__119__allocator_destroyB7v160006INS_9allocatorINS_10unique_ptrIN5Catch6Detail8EnumInfoENS_14default_deleteIS5_EEEEEENS_16reverse_iteratorINSA_IPS8_EEEESD_EEvRT_T0_T1_, symObjAddr: 0x44B14, symBinAddr: 0x1000485B4, symSize: 0x70 }
  - { offsetInCU: 0xA4729, offset: 0xA4729, size: 0x8, addend: 0x0, symName: __ZNSt3__1neB7v160006INS_16reverse_iteratorIPNS_10unique_ptrIN5Catch6Detail8EnumInfoENS_14default_deleteIS5_EEEEEESA_EEbRKNS1_IT_EERKNS1_IT0_EE, symObjAddr: 0x44BC0, symBinAddr: 0x100048660, symSize: 0x60 }
  - { offsetInCU: 0xA4778, offset: 0xA4778, size: 0x8, addend: 0x0, symName: __ZNSt3__112__to_addressB7v160006INS_16reverse_iteratorINS1_IPNS_10unique_ptrIN5Catch6Detail8EnumInfoENS_14default_deleteIS5_EEEEEEEEvEENS_5decayIDTclsr19__to_address_helperIT_EE6__callclsr3stdE7declvalIRKSD_EEEEE4typeESF_, symObjAddr: 0x44C48, symBinAddr: 0x1000486E8, symSize: 0x24 }
  - { offsetInCU: 0xA47B0, offset: 0xA47B0, size: 0x8, addend: 0x0, symName: __ZNSt3__110destroy_atB7v160006INS_10unique_ptrIN5Catch6Detail8EnumInfoENS_14default_deleteIS4_EEEELi0EEEvPT_, symObjAddr: 0x44CC0, symBinAddr: 0x100048760, symSize: 0x24 }
  - { offsetInCU: 0xA47EA, offset: 0xA47EA, size: 0x8, addend: 0x0, symName: __ZNSt3__112__destroy_atB7v160006INS_10unique_ptrIN5Catch6Detail8EnumInfoENS_14default_deleteIS4_EEEELi0EEEvPT_, symObjAddr: 0x44CE4, symBinAddr: 0x100048784, symSize: 0x24 }
  - { offsetInCU: 0xA484F, offset: 0xA484F, size: 0x8, addend: 0x0, symName: __ZNSt3__14prevB7v160006INS_16reverse_iteratorIPNS_10unique_ptrIN5Catch6Detail8EnumInfoENS_14default_deleteIS5_EEEEEEEENS_9enable_ifIXsr25__is_cpp17_input_iteratorIT_EE5valueESC_E4typeESC_NS_15iterator_traitsISC_E15difference_typeE, symObjAddr: 0x44D8C, symBinAddr: 0x10004882C, symSize: 0x60 }
  - { offsetInCU: 0xA4895, offset: 0xA4895, size: 0x8, addend: 0x0, symName: __ZNSt3__19__advanceB7v160006INS_16reverse_iteratorIPNS_10unique_ptrIN5Catch6Detail8EnumInfoENS_14default_deleteIS5_EEEEEEEEvRT_NS_15iterator_traitsISB_E15difference_typeENS_26random_access_iterator_tagE, symObjAddr: 0x44E3C, symBinAddr: 0x1000488DC, symSize: 0x2C }
  - { offsetInCU: 0xA48E2, offset: 0xA48E2, size: 0x8, addend: 0x0, symName: __ZNSt3__118__debug_db_erase_cB7v160006INS_6vectorINS_10unique_ptrIKN5Catch20IExceptionTranslatorENS_14default_deleteIS5_EEEENS_9allocatorIS8_EEEEEEvPT_, symObjAddr: 0x45358, symBinAddr: 0x100048DF8, symSize: 0x10 }
  - { offsetInCU: 0xA4915, offset: 0xA4915, size: 0x8, addend: 0x0, symName: __ZNSt3__112__to_addressB7v160006INS_10unique_ptrIKN5Catch20IExceptionTranslatorENS_14default_deleteIS4_EEEEEEPT_S9_, symObjAddr: 0x4549C, symBinAddr: 0x100048F3C, symSize: 0x14 }
  - { offsetInCU: 0xA494C, offset: 0xA494C, size: 0x8, addend: 0x0, symName: __ZNSt3__110destroy_atB7v160006INS_10unique_ptrIKN5Catch20IExceptionTranslatorENS_14default_deleteIS4_EEEELi0EEEvPT_, symObjAddr: 0x45564, symBinAddr: 0x100049004, symSize: 0x24 }
  - { offsetInCU: 0xA4986, offset: 0xA4986, size: 0x8, addend: 0x0, symName: __ZNSt3__112__destroy_atB7v160006INS_10unique_ptrIKN5Catch20IExceptionTranslatorENS_14default_deleteIS4_EEEELi0EEEvPT_, symObjAddr: 0x45588, symBinAddr: 0x100049028, symSize: 0x24 }
  - { offsetInCU: 0xA49E7, offset: 0xA49E7, size: 0x8, addend: 0x0, symName: __ZNSt3__112construct_atB7v160006INS_10unique_ptrIKN5Catch20IExceptionTranslatorENS_14default_deleteIS4_EEEEJS7_EPS7_EEPT_SA_DpOT0_, symObjAddr: 0x45928, symBinAddr: 0x1000493C8, symSize: 0x3C }
  - { offsetInCU: 0xA4A5F, offset: 0xA4A5F, size: 0x8, addend: 0x0, symName: __ZNSt3__119__allocate_at_leastB7v160006INS_9allocatorINS_10unique_ptrIKN5Catch20IExceptionTranslatorENS_14default_deleteIS5_EEEEEEEENS_19__allocation_resultINS_16allocator_traitsIT_E7pointerEEERSC_m, symObjAddr: 0x45FFC, symBinAddr: 0x100049A9C, symSize: 0x40 }
  - { offsetInCU: 0xA4AA4, offset: 0xA4AA4, size: 0x8, addend: 0x0, symName: __ZNSt3__142__uninitialized_allocator_move_if_noexceptB7v160006INS_9allocatorINS_10unique_ptrIKN5Catch20IExceptionTranslatorENS_14default_deleteIS5_EEEEEENS_16reverse_iteratorIPS8_EESC_SC_EET2_RT_T0_T1_SD_, symObjAddr: 0x461CC, symBinAddr: 0x100049C6C, symSize: 0x12C }
  - { offsetInCU: 0xA4B45, offset: 0xA4B45, size: 0x8, addend: 0x0, symName: __ZNSt3__14swapB7v160006IPNS_10unique_ptrIKN5Catch20IExceptionTranslatorENS_14default_deleteIS4_EEEEEENS_9enable_ifIXaasr21is_move_constructibleIT_EE5valuesr18is_move_assignableISA_EE5valueEvE4typeERSA_SD_, symObjAddr: 0x46344, symBinAddr: 0x100049DE4, symSize: 0x3C }
  - { offsetInCU: 0xA4B9A, offset: 0xA4B9A, size: 0x8, addend: 0x0, symName: __ZNSt3__125__debug_db_invalidate_allB7v160006INS_6vectorINS_10unique_ptrIKN5Catch20IExceptionTranslatorENS_14default_deleteIS5_EEEENS_9allocatorIS8_EEEEEEvPT_, symObjAddr: 0x4642C, symBinAddr: 0x100049ECC, symSize: 0x10 }
  - { offsetInCU: 0xA4BCD, offset: 0xA4BCD, size: 0x8, addend: 0x0, symName: __ZNSt3__122__make_exception_guardB7v160006INS_29_AllocatorDestroyRangeReverseINS_9allocatorINS_10unique_ptrIKN5Catch20IExceptionTranslatorENS_14default_deleteIS6_EEEEEENS_16reverse_iteratorIPS9_EEEEEENS_28__exception_guard_exceptionsIT_EESG_, symObjAddr: 0x4643C, symBinAddr: 0x100049EDC, symSize: 0x4C }
  - { offsetInCU: 0xA4C05, offset: 0xA4C05, size: 0x8, addend: 0x0, symName: __ZNSt3__1neB7v160006IPNS_10unique_ptrIKN5Catch20IExceptionTranslatorENS_14default_deleteIS4_EEEES8_EEbRKNS_16reverse_iteratorIT_EERKNS9_IT0_EE, symObjAddr: 0x464CC, symBinAddr: 0x100049F6C, symSize: 0x48 }
  - { offsetInCU: 0xA4C54, offset: 0xA4C54, size: 0x8, addend: 0x0, symName: __ZNSt3__112__to_addressB7v160006INS_16reverse_iteratorIPNS_10unique_ptrIKN5Catch20IExceptionTranslatorENS_14default_deleteIS5_EEEEEEvEENS_5decayIDTclsr19__to_address_helperIT_EE6__callclsr3stdE7declvalIRKSC_EEEEE4typeESE_, symObjAddr: 0x46514, symBinAddr: 0x100049FB4, symSize: 0x24 }
  - { offsetInCU: 0xA4CB7, offset: 0xA4CB7, size: 0x8, addend: 0x0, symName: __ZNSt3__14prevB7v160006IPNS_10unique_ptrIKN5Catch20IExceptionTranslatorENS_14default_deleteIS4_EEEEEENS_9enable_ifIXsr25__is_cpp17_input_iteratorIT_EE5valueESA_E4typeESA_NS_15iterator_traitsISA_E15difference_typeE, symObjAddr: 0x466C8, symBinAddr: 0x10004A168, symSize: 0x50 }
  - { offsetInCU: 0xA4CFD, offset: 0xA4CFD, size: 0x8, addend: 0x0, symName: __ZNSt3__19__advanceB7v160006IPNS_10unique_ptrIKN5Catch20IExceptionTranslatorENS_14default_deleteIS4_EEEEEEvRT_NS_15iterator_traitsIS9_E15difference_typeENS_26random_access_iterator_tagE, symObjAddr: 0x46768, symBinAddr: 0x10004A208, symSize: 0x28 }
  - { offsetInCU: 0xA4D49, offset: 0xA4D49, size: 0x8, addend: 0x0, symName: __ZNSt3__119__allocator_destroyB7v160006INS_9allocatorINS_10unique_ptrIKN5Catch20IExceptionTranslatorENS_14default_deleteIS5_EEEEEENS_16reverse_iteratorINSA_IPS8_EEEESD_EEvRT_T0_T1_, symObjAddr: 0x46894, symBinAddr: 0x10004A334, symSize: 0x70 }
  - { offsetInCU: 0xA4DAF, offset: 0xA4DAF, size: 0x8, addend: 0x0, symName: __ZNSt3__1neB7v160006INS_16reverse_iteratorIPNS_10unique_ptrIKN5Catch20IExceptionTranslatorENS_14default_deleteIS5_EEEEEESA_EEbRKNS1_IT_EERKNS1_IT0_EE, symObjAddr: 0x46940, symBinAddr: 0x10004A3E0, symSize: 0x60 }
  - { offsetInCU: 0xA4DFE, offset: 0xA4DFE, size: 0x8, addend: 0x0, symName: __ZNSt3__112__to_addressB7v160006INS_16reverse_iteratorINS1_IPNS_10unique_ptrIKN5Catch20IExceptionTranslatorENS_14default_deleteIS5_EEEEEEEEvEENS_5decayIDTclsr19__to_address_helperIT_EE6__callclsr3stdE7declvalIRKSD_EEEEE4typeESF_, symObjAddr: 0x469A0, symBinAddr: 0x10004A440, symSize: 0x24 }
  - { offsetInCU: 0xA4E61, offset: 0xA4E61, size: 0x8, addend: 0x0, symName: __ZNSt3__14prevB7v160006INS_16reverse_iteratorIPNS_10unique_ptrIKN5Catch20IExceptionTranslatorENS_14default_deleteIS5_EEEEEEEENS_9enable_ifIXsr25__is_cpp17_input_iteratorIT_EE5valueESC_E4typeESC_NS_15iterator_traitsISC_E15difference_typeE, symObjAddr: 0x46A9C, symBinAddr: 0x10004A53C, symSize: 0x60 }
  - { offsetInCU: 0xA4EA7, offset: 0xA4EA7, size: 0x8, addend: 0x0, symName: __ZNSt3__19__advanceB7v160006INS_16reverse_iteratorIPNS_10unique_ptrIKN5Catch20IExceptionTranslatorENS_14default_deleteIS5_EEEEEEEEvRT_NS_15iterator_traitsISB_E15difference_typeENS_26random_access_iterator_tagE, symObjAddr: 0x46B4C, symBinAddr: 0x10004A5EC, symSize: 0x2C }
  - { offsetInCU: 0xA4EF4, offset: 0xA4EF4, size: 0x8, addend: 0x0, symName: __ZNSt3__13maxB7v160006ImNS_6__lessImmEEEERKT_S5_S5_T0_, symObjAddr: 0x46EE0, symBinAddr: 0x10004A980, symSize: 0x54 }
  - { offsetInCU: 0xA4F8F, offset: 0xA4F8F, size: 0x8, addend: 0x0, symName: __ZNSt3__122__make_exception_guardB7v160006INS_6vectorIN5Catch11MessageInfoENS_9allocatorIS3_EEE16__destroy_vectorEEENS_28__exception_guard_exceptionsIT_EES9_, symObjAddr: 0x47190, symBinAddr: 0x10004AC30, symSize: 0x40 }
  - { offsetInCU: 0xA4FC6, offset: 0xA4FC6, size: 0x8, addend: 0x0, symName: __ZNSt3__119__debug_db_insert_cB7v160006INS_6vectorIN5Catch11MessageInfoENS_9allocatorIS3_EEEEEEvPT_, symObjAddr: 0x47204, symBinAddr: 0x10004ACA4, symSize: 0x10 }
  - { offsetInCU: 0xA4FF9, offset: 0xA4FF9, size: 0x8, addend: 0x0, symName: __ZNSt3__119__allocate_at_leastB7v160006INS_9allocatorIN5Catch11MessageInfoEEEEENS_19__allocation_resultINS_16allocator_traitsIT_E7pointerEEERS7_m, symObjAddr: 0x47538, symBinAddr: 0x10004AFD8, symSize: 0x40 }
  - { offsetInCU: 0xA503F, offset: 0xA503F, size: 0x8, addend: 0x0, symName: __ZNSt3__112__to_addressB7v160006IN5Catch11MessageInfoEEEPT_S4_, symObjAddr: 0x477EC, symBinAddr: 0x10004B28C, symSize: 0x14 }
  - { offsetInCU: 0xA5075, offset: 0xA5075, size: 0x8, addend: 0x0, symName: __ZNSt3__130__uninitialized_allocator_copyB7v160006INS_9allocatorIN5Catch11MessageInfoEEEPS3_S5_S5_EET2_RT_T0_T1_S6_, symObjAddr: 0x4789C, symBinAddr: 0x10004B33C, symSize: 0xF4 }
  - { offsetInCU: 0xA5114, offset: 0xA5114, size: 0x8, addend: 0x0, symName: __ZNSt3__122__make_exception_guardB7v160006INS_29_AllocatorDestroyRangeReverseINS_9allocatorIN5Catch11MessageInfoEEEPS4_EEEENS_28__exception_guard_exceptionsIT_EES9_, symObjAddr: 0x47A00, symBinAddr: 0x10004B4A0, symSize: 0x4C }
  - { offsetInCU: 0xA5173, offset: 0xA5173, size: 0x8, addend: 0x0, symName: __ZNSt3__112construct_atB7v160006IN5Catch11MessageInfoEJRS2_EPS2_EEPT_S6_DpOT0_, symObjAddr: 0x47BA4, symBinAddr: 0x10004B644, symSize: 0x3C }
  - { offsetInCU: 0xA51EA, offset: 0xA51EA, size: 0x8, addend: 0x0, symName: __ZNSt3__119__allocator_destroyB7v160006INS_9allocatorIN5Catch11MessageInfoEEENS_16reverse_iteratorIPS3_EES7_EEvRT_T0_T1_, symObjAddr: 0x47C98, symBinAddr: 0x10004B738, symSize: 0x70 }
  - { offsetInCU: 0xA524E, offset: 0xA524E, size: 0x8, addend: 0x0, symName: __ZNSt3__1neB7v160006IPN5Catch11MessageInfoES3_EEbRKNS_16reverse_iteratorIT_EERKNS4_IT0_EE, symObjAddr: 0x47D3C, symBinAddr: 0x10004B7DC, symSize: 0x48 }
  - { offsetInCU: 0xA529D, offset: 0xA529D, size: 0x8, addend: 0x0, symName: __ZNSt3__112__to_addressB7v160006INS_16reverse_iteratorIPN5Catch11MessageInfoEEEvEENS_5decayIDTclsr19__to_address_helperIT_EE6__callclsr3stdE7declvalIRKS7_EEEEE4typeES9_, symObjAddr: 0x47DAC, symBinAddr: 0x10004B84C, symSize: 0x24 }
  - { offsetInCU: 0xA52D5, offset: 0xA52D5, size: 0x8, addend: 0x0, symName: __ZNSt3__110destroy_atB7v160006IN5Catch11MessageInfoELi0EEEvPT_, symObjAddr: 0x47E08, symBinAddr: 0x10004B8A8, symSize: 0x24 }
  - { offsetInCU: 0xA530F, offset: 0xA530F, size: 0x8, addend: 0x0, symName: __ZNSt3__112__destroy_atB7v160006IN5Catch11MessageInfoELi0EEEvPT_, symObjAddr: 0x47E2C, symBinAddr: 0x10004B8CC, symSize: 0x24 }
  - { offsetInCU: 0xA5374, offset: 0xA5374, size: 0x8, addend: 0x0, symName: __ZNSt3__14prevB7v160006IPN5Catch11MessageInfoEEENS_9enable_ifIXsr25__is_cpp17_input_iteratorIT_EE5valueES5_E4typeES5_NS_15iterator_traitsIS5_E15difference_typeE, symObjAddr: 0x47EB4, symBinAddr: 0x10004B954, symSize: 0x50 }
  - { offsetInCU: 0xA53BA, offset: 0xA53BA, size: 0x8, addend: 0x0, symName: __ZNSt3__19__advanceB7v160006IPN5Catch11MessageInfoEEEvRT_NS_15iterator_traitsIS4_E15difference_typeENS_26random_access_iterator_tagE, symObjAddr: 0x47F54, symBinAddr: 0x10004B9F4, symSize: 0x28 }
  - { offsetInCU: 0xA5407, offset: 0xA5407, size: 0x8, addend: 0x0, symName: __ZNSt3__118__debug_db_erase_cB7v160006INS_6vectorIN5Catch11MessageInfoENS_9allocatorIS3_EEEEEEvPT_, symObjAddr: 0x48168, symBinAddr: 0x10004BC08, symSize: 0x10 }
  - { offsetInCU: 0xA543A, offset: 0xA543A, size: 0x8, addend: 0x0, symName: __ZNSt3__112construct_atB7v160006IN5Catch11MessageInfoEJRKS2_EPS2_EEPT_S7_DpOT0_, symObjAddr: 0x48438, symBinAddr: 0x10004BED8, symSize: 0x3C }
  - { offsetInCU: 0xA54B1, offset: 0xA54B1, size: 0x8, addend: 0x0, symName: __ZNSt3__142__uninitialized_allocator_move_if_noexceptB7v160006INS_9allocatorIN5Catch11MessageInfoEEENS_16reverse_iteratorIPS3_EES7_S7_EET2_RT_T0_T1_S8_, symObjAddr: 0x488DC, symBinAddr: 0x10004C37C, symSize: 0x124 }
  - { offsetInCU: 0xA5552, offset: 0xA5552, size: 0x8, addend: 0x0, symName: __ZNSt3__14swapB7v160006IPN5Catch11MessageInfoEEENS_9enable_ifIXaasr21is_move_constructibleIT_EE5valuesr18is_move_assignableIS5_EE5valueEvE4typeERS5_S8_, symObjAddr: 0x48A00, symBinAddr: 0x10004C4A0, symSize: 0x3C }
  - { offsetInCU: 0xA55A7, offset: 0xA55A7, size: 0x8, addend: 0x0, symName: __ZNSt3__125__debug_db_invalidate_allB7v160006INS_6vectorIN5Catch11MessageInfoENS_9allocatorIS3_EEEEEEvPT_, symObjAddr: 0x48A3C, symBinAddr: 0x10004C4DC, symSize: 0x10 }
  - { offsetInCU: 0xA55DA, offset: 0xA55DA, size: 0x8, addend: 0x0, symName: __ZNSt3__122__make_exception_guardB7v160006INS_29_AllocatorDestroyRangeReverseINS_9allocatorIN5Catch11MessageInfoEEENS_16reverse_iteratorIPS4_EEEEEENS_28__exception_guard_exceptionsIT_EESB_, symObjAddr: 0x48A4C, symBinAddr: 0x10004C4EC, symSize: 0x4C }
  - { offsetInCU: 0xA5612, offset: 0xA5612, size: 0x8, addend: 0x0, symName: __ZNSt3__112construct_atB7v160006IN5Catch11MessageInfoEJS2_EPS2_EEPT_S5_DpOT0_, symObjAddr: 0x48C18, symBinAddr: 0x10004C6B8, symSize: 0x3C }
  - { offsetInCU: 0xA5689, offset: 0xA5689, size: 0x8, addend: 0x0, symName: __ZNSt3__119__allocator_destroyB7v160006INS_9allocatorIN5Catch11MessageInfoEEENS_16reverse_iteratorINS5_IPS3_EEEES8_EEvRT_T0_T1_, symObjAddr: 0x48DE8, symBinAddr: 0x10004C888, symSize: 0x70 }
  - { offsetInCU: 0xA56EF, offset: 0xA56EF, size: 0x8, addend: 0x0, symName: __ZNSt3__1neB7v160006INS_16reverse_iteratorIPN5Catch11MessageInfoEEES5_EEbRKNS1_IT_EERKNS1_IT0_EE, symObjAddr: 0x48E94, symBinAddr: 0x10004C934, symSize: 0x60 }
  - { offsetInCU: 0xA573E, offset: 0xA573E, size: 0x8, addend: 0x0, symName: __ZNSt3__112__to_addressB7v160006INS_16reverse_iteratorINS1_IPN5Catch11MessageInfoEEEEEvEENS_5decayIDTclsr19__to_address_helperIT_EE6__callclsr3stdE7declvalIRKS8_EEEEE4typeESA_, symObjAddr: 0x48EF4, symBinAddr: 0x10004C994, symSize: 0x24 }
  - { offsetInCU: 0xA57A1, offset: 0xA57A1, size: 0x8, addend: 0x0, symName: __ZNSt3__14prevB7v160006INS_16reverse_iteratorIPN5Catch11MessageInfoEEEEENS_9enable_ifIXsr25__is_cpp17_input_iteratorIT_EE5valueES7_E4typeES7_NS_15iterator_traitsIS7_E15difference_typeE, symObjAddr: 0x48FF0, symBinAddr: 0x10004CA90, symSize: 0x60 }
  - { offsetInCU: 0xA57E7, offset: 0xA57E7, size: 0x8, addend: 0x0, symName: __ZNSt3__19__advanceB7v160006INS_16reverse_iteratorIPN5Catch11MessageInfoEEEEEvRT_NS_15iterator_traitsIS6_E15difference_typeENS_26random_access_iterator_tagE, symObjAddr: 0x490A0, symBinAddr: 0x10004CB40, symSize: 0x2C }
  - { offsetInCU: 0xA5834, offset: 0xA5834, size: 0x8, addend: 0x0, symName: __ZNSt3__1eqB7v160006IPN5Catch8TestCaseEEEbRKNS_11__wrap_iterIT_EES8_, symObjAddr: 0x4978C, symBinAddr: 0x10004D22C, symSize: 0x48 }
  - { offsetInCU: 0xA587A, offset: 0xA587A, size: 0x8, addend: 0x0, symName: __ZNSt3__118__debug_db_erase_cB7v160006INS_6vectorIN5Catch8TestCaseENS_9allocatorIS3_EEEEEEvPT_, symObjAddr: 0x4A8E4, symBinAddr: 0x10004E384, symSize: 0x10 }
  - { offsetInCU: 0xA58AD, offset: 0xA58AD, size: 0x8, addend: 0x0, symName: __ZNSt3__112__to_addressB7v160006IN5Catch8TestCaseEEEPT_S4_, symObjAddr: 0x4AA00, symBinAddr: 0x10004E4A0, symSize: 0x14 }
  - { offsetInCU: 0xA58E4, offset: 0xA58E4, size: 0x8, addend: 0x0, symName: __ZNSt3__110destroy_atB7v160006IN5Catch8TestCaseELi0EEEvPT_, symObjAddr: 0x4AAC8, symBinAddr: 0x10004E568, symSize: 0x24 }
  - { offsetInCU: 0xA591E, offset: 0xA591E, size: 0x8, addend: 0x0, symName: __ZNSt3__112__destroy_atB7v160006IN5Catch8TestCaseELi0EEEvPT_, symObjAddr: 0x4AAEC, symBinAddr: 0x10004E58C, symSize: 0x24 }
  - { offsetInCU: 0xA5958, offset: 0xA5958, size: 0x8, addend: 0x0, symName: __ZNSt3__1eqB7v160006IPKNS_12basic_stringIcNS_11char_traitsIcEENS_9allocatorIcEEEEEEbRKNS_11__wrap_iterIT_EESD_, symObjAddr: 0x4AC80, symBinAddr: 0x10004E720, symSize: 0x48 }
  - { offsetInCU: 0xA59D4, offset: 0xA59D4, size: 0x8, addend: 0x0, symName: __ZNSt3__1neB7v160006IPKN5Catch5clara8TextFlow6ColumnEEEbRKNS_11__wrap_iterIT_EESB_, symObjAddr: 0x4BEDC, symBinAddr: 0x10004F97C, symSize: 0x34 }
  - { offsetInCU: 0xA5A1A, offset: 0xA5A1A, size: 0x8, addend: 0x0, symName: __ZNSt3__119__debug_db_insert_cB7v160006INS_6vectorIN5Catch5clara8TextFlow6Column8iteratorENS_9allocatorIS6_EEEEEEvPT_, symObjAddr: 0x4C074, symBinAddr: 0x10004FB14, symSize: 0x10 }
  - { offsetInCU: 0xA5A4D, offset: 0xA5A4D, size: 0x8, addend: 0x0, symName: __ZNSt3__119__allocate_at_leastB7v160006INS_9allocatorIN5Catch5clara8TextFlow6Column8iteratorEEEEENS_19__allocation_resultINS_16allocator_traitsIT_E7pointerEEERSA_m, symObjAddr: 0x4C61C, symBinAddr: 0x1000500BC, symSize: 0x40 }
  - { offsetInCU: 0xA5A92, offset: 0xA5A92, size: 0x8, addend: 0x0, symName: __ZNSt3__142__uninitialized_allocator_move_if_noexceptB7v160006INS_9allocatorIN5Catch5clara8TextFlow6Column8iteratorEEENS_16reverse_iteratorIPS6_EESA_SA_EET2_RT_T0_T1_SB_, symObjAddr: 0x4C8BC, symBinAddr: 0x10005035C, symSize: 0x12C }
  - { offsetInCU: 0xA5B33, offset: 0xA5B33, size: 0x8, addend: 0x0, symName: __ZNSt3__14swapB7v160006IPN5Catch5clara8TextFlow6Column8iteratorEEENS_9enable_ifIXaasr21is_move_constructibleIT_EE5valuesr18is_move_assignableIS8_EE5valueEvE4typeERS8_SB_, symObjAddr: 0x4CA34, symBinAddr: 0x1000504D4, symSize: 0x3C }
  - { offsetInCU: 0xA5B88, offset: 0xA5B88, size: 0x8, addend: 0x0, symName: __ZNSt3__125__debug_db_invalidate_allB7v160006INS_6vectorIN5Catch5clara8TextFlow6Column8iteratorENS_9allocatorIS6_EEEEEEvPT_, symObjAddr: 0x4CB60, symBinAddr: 0x100050600, symSize: 0x10 }
  - { offsetInCU: 0xA5BBB, offset: 0xA5BBB, size: 0x8, addend: 0x0, symName: __ZNSt3__112__to_addressB7v160006IN5Catch5clara8TextFlow6Column8iteratorEEEPT_S7_, symObjAddr: 0x4CBB8, symBinAddr: 0x100050658, symSize: 0x14 }
  - { offsetInCU: 0xA5BF2, offset: 0xA5BF2, size: 0x8, addend: 0x0, symName: __ZNSt3__122__make_exception_guardB7v160006INS_29_AllocatorDestroyRangeReverseINS_9allocatorIN5Catch5clara8TextFlow6Column8iteratorEEENS_16reverse_iteratorIPS7_EEEEEENS_28__exception_guard_exceptionsIT_EESE_, symObjAddr: 0x4CBCC, symBinAddr: 0x10005066C, symSize: 0x4C }
  - { offsetInCU: 0xA5C2A, offset: 0xA5C2A, size: 0x8, addend: 0x0, symName: __ZNSt3__1neB7v160006IPN5Catch5clara8TextFlow6Column8iteratorES6_EEbRKNS_16reverse_iteratorIT_EERKNS7_IT0_EE, symObjAddr: 0x4CC5C, symBinAddr: 0x1000506FC, symSize: 0x48 }
  - { offsetInCU: 0xA5C79, offset: 0xA5C79, size: 0x8, addend: 0x0, symName: __ZNSt3__112__to_addressB7v160006INS_16reverse_iteratorIPN5Catch5clara8TextFlow6Column8iteratorEEEvEENS_5decayIDTclsr19__to_address_helperIT_EE6__callclsr3stdE7declvalIRKSA_EEEEE4typeESC_, symObjAddr: 0x4CCD4, symBinAddr: 0x100050774, symSize: 0x24 }
  - { offsetInCU: 0xA5CD8, offset: 0xA5CD8, size: 0x8, addend: 0x0, symName: __ZNSt3__112construct_atB7v160006IN5Catch5clara8TextFlow6Column8iteratorEJS5_EPS5_EEPT_S8_DpOT0_, symObjAddr: 0x4CE24, symBinAddr: 0x1000508C4, symSize: 0x40 }
  - { offsetInCU: 0xA5D7B, offset: 0xA5D7B, size: 0x8, addend: 0x0, symName: __ZNSt3__14prevB7v160006IPN5Catch5clara8TextFlow6Column8iteratorEEENS_9enable_ifIXsr25__is_cpp17_input_iteratorIT_EE5valueES8_E4typeES8_NS_15iterator_traitsIS8_E15difference_typeE, symObjAddr: 0x4CEC8, symBinAddr: 0x100050968, symSize: 0x50 }
  - { offsetInCU: 0xA5DC1, offset: 0xA5DC1, size: 0x8, addend: 0x0, symName: __ZNSt3__19__advanceB7v160006IPN5Catch5clara8TextFlow6Column8iteratorEEEvRT_NS_15iterator_traitsIS7_E15difference_typeENS_26random_access_iterator_tagE, symObjAddr: 0x4CF68, symBinAddr: 0x100050A08, symSize: 0x30 }
  - { offsetInCU: 0xA5E0D, offset: 0xA5E0D, size: 0x8, addend: 0x0, symName: __ZNSt3__119__allocator_destroyB7v160006INS_9allocatorIN5Catch5clara8TextFlow6Column8iteratorEEENS_16reverse_iteratorINS8_IPS6_EEEESB_EEvRT_T0_T1_, symObjAddr: 0x4D09C, symBinAddr: 0x100050B3C, symSize: 0x70 }
  - { offsetInCU: 0xA5E73, offset: 0xA5E73, size: 0x8, addend: 0x0, symName: __ZNSt3__1neB7v160006INS_16reverse_iteratorIPN5Catch5clara8TextFlow6Column8iteratorEEES8_EEbRKNS1_IT_EERKNS1_IT0_EE, symObjAddr: 0x4D148, symBinAddr: 0x100050BE8, symSize: 0x60 }
  - { offsetInCU: 0xA5EC2, offset: 0xA5EC2, size: 0x8, addend: 0x0, symName: __ZNSt3__112__to_addressB7v160006INS_16reverse_iteratorINS1_IPN5Catch5clara8TextFlow6Column8iteratorEEEEEvEENS_5decayIDTclsr19__to_address_helperIT_EE6__callclsr3stdE7declvalIRKSB_EEEEE4typeESD_, symObjAddr: 0x4D1D0, symBinAddr: 0x100050C70, symSize: 0x24 }
  - { offsetInCU: 0xA5EFA, offset: 0xA5EFA, size: 0x8, addend: 0x0, symName: __ZNSt3__110destroy_atB7v160006IN5Catch5clara8TextFlow6Column8iteratorELi0EEEvPT_, symObjAddr: 0x4D248, symBinAddr: 0x100050CE8, symSize: 0x24 }
  - { offsetInCU: 0xA5F34, offset: 0xA5F34, size: 0x8, addend: 0x0, symName: __ZNSt3__112__destroy_atB7v160006IN5Catch5clara8TextFlow6Column8iteratorELi0EEEvPT_, symObjAddr: 0x4D26C, symBinAddr: 0x100050D0C, symSize: 0x10 }
  - { offsetInCU: 0xA5F99, offset: 0xA5F99, size: 0x8, addend: 0x0, symName: __ZNSt3__14prevB7v160006INS_16reverse_iteratorIPN5Catch5clara8TextFlow6Column8iteratorEEEEENS_9enable_ifIXsr25__is_cpp17_input_iteratorIT_EE5valueESA_E4typeESA_NS_15iterator_traitsISA_E15difference_typeE, symObjAddr: 0x4D300, symBinAddr: 0x100050DA0, symSize: 0x60 }
  - { offsetInCU: 0xA5FDF, offset: 0xA5FDF, size: 0x8, addend: 0x0, symName: __ZNSt3__19__advanceB7v160006INS_16reverse_iteratorIPN5Catch5clara8TextFlow6Column8iteratorEEEEEvRT_NS_15iterator_traitsIS9_E15difference_typeENS_26random_access_iterator_tagE, symObjAddr: 0x4D3B0, symBinAddr: 0x100050E50, symSize: 0x2C }
  - { offsetInCU: 0xA602C, offset: 0xA602C, size: 0x8, addend: 0x0, symName: __ZNSt3__1eqB7v160006IPKN5Catch5clara8TextFlow6ColumnEEEbRKNS_11__wrap_iterIT_EESB_, symObjAddr: 0x4D79C, symBinAddr: 0x10005123C, symSize: 0x48 }
  - { offsetInCU: 0xA6072, offset: 0xA6072, size: 0x8, addend: 0x0, symName: __ZNSt3__118__debug_db_erase_cB7v160006INS_6vectorIN5Catch5clara8TextFlow6Column8iteratorENS_9allocatorIS6_EEEEEEvPT_, symObjAddr: 0x4DC20, symBinAddr: 0x1000516C0, symSize: 0x10 }
  - { offsetInCU: 0xA60A4, offset: 0xA60A4, size: 0x8, addend: 0x0, symName: __ZNSt3__1neB7v160006IN5Catch5clara8TextFlow6Column8iteratorENS_9allocatorIS5_EEEEbRKNS_6vectorIT_T0_EESD_, symObjAddr: 0x4DE2C, symBinAddr: 0x1000518CC, symSize: 0x34 }
  - { offsetInCU: 0xA60F3, offset: 0xA60F3, size: 0x8, addend: 0x0, symName: __ZNSt3__1eqB7v160006IN5Catch5clara8TextFlow6Column8iteratorENS_9allocatorIS5_EEEEbRKNS_6vectorIT_T0_EESD_, symObjAddr: 0x4DE60, symBinAddr: 0x100051900, symSize: 0x9C }
  - { offsetInCU: 0xA6152, offset: 0xA6152, size: 0x8, addend: 0x0, symName: __ZNSt3__15equalB7v160006INS_11__wrap_iterIPKN5Catch5clara8TextFlow6Column8iteratorEEES9_EEbT_SA_T0_, symObjAddr: 0x4DEFC, symBinAddr: 0x10005199C, symSize: 0x50 }
  - { offsetInCU: 0xA61B0, offset: 0xA61B0, size: 0x8, addend: 0x0, symName: __ZNSt3__15equalB7v160006INS_11__wrap_iterIPKN5Catch5clara8TextFlow6Column8iteratorEEES9_NS_10__equal_toEEEbT_SB_T0_T1_, symObjAddr: 0x4DFAC, symBinAddr: 0x100051A4C, symSize: 0xB0 }
  - { offsetInCU: 0xA6226, offset: 0xA6226, size: 0x8, addend: 0x0, symName: __ZNSt3__1neB7v160006IPKN5Catch5clara8TextFlow6Column8iteratorEEEbRKNS_11__wrap_iterIT_EESC_, symObjAddr: 0x4E05C, symBinAddr: 0x100051AFC, symSize: 0x34 }
  - { offsetInCU: 0xA630D, offset: 0xA630D, size: 0x8, addend: 0x0, symName: __ZNSt3__1eqB7v160006IPKN5Catch5clara8TextFlow6Column8iteratorEEEbRKNS_11__wrap_iterIT_EESC_, symObjAddr: 0x4E0FC, symBinAddr: 0x100051B9C, symSize: 0x48 }
  - { offsetInCU: 0xA6352, offset: 0xA6352, size: 0x8, addend: 0x0, symName: __ZNSt3__1plB7v160006IcNS_11char_traitsIcEENS_9allocatorIcEEEENS_12basic_stringIT_T0_T1_EERKS9_SB_, symObjAddr: 0x4E260, symBinAddr: 0x100051D00, symSize: 0x134 }
  - { offsetInCU: 0xA63F4, offset: 0xA63F4, size: 0x8, addend: 0x0, symName: __ZNSt3__112__to_addressB7v160006IcEEPT_S2_, symObjAddr: 0x4E404, symBinAddr: 0x100051EA4, symSize: 0x14 }
  - { offsetInCU: 0xA642B, offset: 0xA642B, size: 0x8, addend: 0x0, symName: __ZNSt3__14copyB7v160006IPKcPcEET0_T_S5_S4_, symObjAddr: 0x4EA80, symBinAddr: 0x100052520, symSize: 0x40 }
  - { offsetInCU: 0xA6489, offset: 0xA6489, size: 0x8, addend: 0x0, symName: __ZNSt3__16__copyB7v160006INS_17_ClassicAlgPolicyEPKcS3_PcEENS_4pairIT0_T2_EES6_T1_S7_, symObjAddr: 0x4EAC0, symBinAddr: 0x100052560, symSize: 0x44 }
  - { offsetInCU: 0xA64F9, offset: 0xA64F9, size: 0x8, addend: 0x0, symName: __ZNSt3__123__dispatch_copy_or_moveB7v160006INS_17_ClassicAlgPolicyENS_11__copy_loopIS1_EENS_14__copy_trivialEPKcS6_PcEENS_4pairIT2_T4_EES9_T3_SA_, symObjAddr: 0x4EB04, symBinAddr: 0x1000525A4, symSize: 0x44 }
  - { offsetInCU: 0xA657B, offset: 0xA657B, size: 0x8, addend: 0x0, symName: __ZNSt3__121__unwrap_and_dispatchB7v160006INS_10__overloadINS_11__copy_loopINS_17_ClassicAlgPolicyEEENS_14__copy_trivialEEEPKcS8_PcLi0EEENS_4pairIT0_T2_EESB_T1_SC_, symObjAddr: 0x4EB48, symBinAddr: 0x1000525E8, symSize: 0xB4 }
  - { offsetInCU: 0xA6610, offset: 0xA6610, size: 0x8, addend: 0x0, symName: __ZNSt3__114__unwrap_rangeB7v160006IPKcS2_EEDaT_T0_, symObjAddr: 0x4EBFC, symBinAddr: 0x10005269C, symSize: 0x3C }
  - { offsetInCU: 0xA67B4, offset: 0xA67B4, size: 0x8, addend: 0x0, symName: __ZNSt3__113__unwrap_iterB7v160006IPcNS_18__unwrap_iter_implIS1_Lb1EEELi0EEEDTclsrT0_8__unwrapclsr3stdE7declvalIT_EEEES5_, symObjAddr: 0x4EC80, symBinAddr: 0x100052720, symSize: 0x24 }
  - { offsetInCU: 0xA67FA, offset: 0xA67FA, size: 0x8, addend: 0x0, symName: __ZNSt3__19make_pairB7v160006IPKcPcEENS_4pairINS_18__unwrap_ref_decayIT_E4typeENS5_IT0_E4typeEEEOS6_OS9_, symObjAddr: 0x4ECA4, symBinAddr: 0x100052744, symSize: 0x38 }
  - { offsetInCU: 0xA684A, offset: 0xA684A, size: 0x8, addend: 0x0, symName: __ZNSt3__114__rewrap_rangeB7v160006IPKcS2_S2_EET0_S3_T1_, symObjAddr: 0x4ECDC, symBinAddr: 0x10005277C, symSize: 0x2C }
  - { offsetInCU: 0xA68A2, offset: 0xA68A2, size: 0x8, addend: 0x0, symName: __ZNSt3__113__rewrap_iterB7v160006IPcS1_NS_18__unwrap_iter_implIS1_Lb1EEEEET_S4_T0_, symObjAddr: 0x4ED08, symBinAddr: 0x1000527A8, symSize: 0x3C }
  - { offsetInCU: 0xA694D, offset: 0xA694D, size: 0x8, addend: 0x0, symName: __ZNSt3__113__unwrap_iterB7v160006IPKcNS_18__unwrap_iter_implIS2_Lb1EEELi0EEEDTclsrT0_8__unwrapclsr3stdE7declvalIT_EEEES6_, symObjAddr: 0x4ED9C, symBinAddr: 0x10005283C, symSize: 0x24 }
  - { offsetInCU: 0xA69EC, offset: 0xA69EC, size: 0x8, addend: 0x0, symName: __ZNSt3__119__copy_trivial_implB7v160006IKccEENS_4pairIPT_PT0_EES4_S4_S6_, symObjAddr: 0x4EE54, symBinAddr: 0x1000528F4, symSize: 0x7C }
  - { offsetInCU: 0xA6A58, offset: 0xA6A58, size: 0x8, addend: 0x0, symName: __ZNSt3__19make_pairB7v160006IRPKcPcEENS_4pairINS_18__unwrap_ref_decayIT_E4typeENS6_IT0_E4typeEEEOS7_OSA_, symObjAddr: 0x4EED0, symBinAddr: 0x100052970, symSize: 0x38 }
  - { offsetInCU: 0xA6B00, offset: 0xA6B00, size: 0x8, addend: 0x0, symName: __ZNSt3__113__rewrap_iterB7v160006IPKcS2_NS_18__unwrap_iter_implIS2_Lb1EEEEET_S5_T0_, symObjAddr: 0x4F038, symBinAddr: 0x100052AD8, symSize: 0x3C }
  - { offsetInCU: 0xA6B58, offset: 0xA6B58, size: 0x8, addend: 0x0, symName: __ZNSt3__16fill_nB7v160006IPcmcEET_S2_T0_RKT1_, symObjAddr: 0x4F104, symBinAddr: 0x100052BA4, symSize: 0x44 }
  - { offsetInCU: 0xA6BBF, offset: 0xA6BBF, size: 0x8, addend: 0x0, symName: __ZNSt3__18__fill_nB7v160006IPcmcEET_S2_T0_RKT1_, symObjAddr: 0x4F148, symBinAddr: 0x100052BE8, symSize: 0x64 }
  - { offsetInCU: 0xA6C26, offset: 0xA6C26, size: 0x8, addend: 0x0, symName: __ZNSt3__121__convert_to_integralB7v160006Em, symObjAddr: 0x4F1AC, symBinAddr: 0x100052C4C, symSize: 0x14 }
  - { offsetInCU: 0xA6C54, offset: 0xA6C54, size: 0x8, addend: 0x0, symName: __ZNSt3__119__debug_db_insert_cB7v160006INS_6vectorIN5Catch5clara8TextFlow6ColumnENS_9allocatorIS5_EEEEEEvPT_, symObjAddr: 0x4F368, symBinAddr: 0x100052E08, symSize: 0x10 }
  - { offsetInCU: 0xA6C87, offset: 0xA6C87, size: 0x8, addend: 0x0, symName: __ZNSt3__112__to_addressB7v160006IN5Catch5clara8TextFlow6ColumnEEEPT_S6_, symObjAddr: 0x4F708, symBinAddr: 0x1000531A8, symSize: 0x14 }
  - { offsetInCU: 0xA6CE5, offset: 0xA6CE5, size: 0x8, addend: 0x0, symName: __ZNSt3__112construct_atB7v160006IN5Catch5clara8TextFlow6ColumnEJRKS4_EPS4_EEPT_S9_DpOT0_, symObjAddr: 0x4F794, symBinAddr: 0x100053234, symSize: 0x3C }
  - { offsetInCU: 0xA6D5D, offset: 0xA6D5D, size: 0x8, addend: 0x0, symName: __ZNSt3__119__allocate_at_leastB7v160006INS_9allocatorIN5Catch5clara8TextFlow6ColumnEEEEENS_19__allocation_resultINS_16allocator_traitsIT_E7pointerEEERS9_m, symObjAddr: 0x4FD24, symBinAddr: 0x1000537C4, symSize: 0x40 }
  - { offsetInCU: 0xA6DA2, offset: 0xA6DA2, size: 0x8, addend: 0x0, symName: __ZNSt3__142__uninitialized_allocator_move_if_noexceptB7v160006INS_9allocatorIN5Catch5clara8TextFlow6ColumnEEENS_16reverse_iteratorIPS5_EES9_S9_EET2_RT_T0_T1_SA_, symObjAddr: 0x4FFB0, symBinAddr: 0x100053A50, symSize: 0x12C }
  - { offsetInCU: 0xA6E43, offset: 0xA6E43, size: 0x8, addend: 0x0, symName: __ZNSt3__14swapB7v160006IPN5Catch5clara8TextFlow6ColumnEEENS_9enable_ifIXaasr21is_move_constructibleIT_EE5valuesr18is_move_assignableIS7_EE5valueEvE4typeERS7_SA_, symObjAddr: 0x50128, symBinAddr: 0x100053BC8, symSize: 0x3C }
  - { offsetInCU: 0xA6E98, offset: 0xA6E98, size: 0x8, addend: 0x0, symName: __ZNSt3__125__debug_db_invalidate_allB7v160006INS_6vectorIN5Catch5clara8TextFlow6ColumnENS_9allocatorIS5_EEEEEEvPT_, symObjAddr: 0x5022C, symBinAddr: 0x100053CCC, symSize: 0x10 }
  - { offsetInCU: 0xA6ECB, offset: 0xA6ECB, size: 0x8, addend: 0x0, symName: __ZNSt3__122__make_exception_guardB7v160006INS_29_AllocatorDestroyRangeReverseINS_9allocatorIN5Catch5clara8TextFlow6ColumnEEENS_16reverse_iteratorIPS6_EEEEEENS_28__exception_guard_exceptionsIT_EESD_, symObjAddr: 0x50284, symBinAddr: 0x100053D24, symSize: 0x4C }
  - { offsetInCU: 0xA6F03, offset: 0xA6F03, size: 0x8, addend: 0x0, symName: __ZNSt3__1neB7v160006IPN5Catch5clara8TextFlow6ColumnES5_EEbRKNS_16reverse_iteratorIT_EERKNS6_IT0_EE, symObjAddr: 0x50314, symBinAddr: 0x100053DB4, symSize: 0x48 }
  - { offsetInCU: 0xA6F52, offset: 0xA6F52, size: 0x8, addend: 0x0, symName: __ZNSt3__112__to_addressB7v160006INS_16reverse_iteratorIPN5Catch5clara8TextFlow6ColumnEEEvEENS_5decayIDTclsr19__to_address_helperIT_EE6__callclsr3stdE7declvalIRKS9_EEEEE4typeESB_, symObjAddr: 0x5038C, symBinAddr: 0x100053E2C, symSize: 0x24 }
  - { offsetInCU: 0xA6F8A, offset: 0xA6F8A, size: 0x8, addend: 0x0, symName: __ZNSt3__112construct_atB7v160006IN5Catch5clara8TextFlow6ColumnEJS4_EPS4_EEPT_S7_DpOT0_, symObjAddr: 0x504DC, symBinAddr: 0x100053F7C, symSize: 0x3C }
  - { offsetInCU: 0xA7002, offset: 0xA7002, size: 0x8, addend: 0x0, symName: __ZNSt3__119__debug_db_insert_cB7v160006INS_6vectorINS_12basic_stringIcNS_11char_traitsIcEENS_9allocatorIcEEEENS5_IS7_EEEEEEvPT_, symObjAddr: 0x5070C, symBinAddr: 0x1000541AC, symSize: 0x10 }
  - { offsetInCU: 0xA7035, offset: 0xA7035, size: 0x8, addend: 0x0, symName: __ZNSt3__115__debug_db_swapB7v160006INS_6vectorINS_12basic_stringIcNS_11char_traitsIcEENS_9allocatorIcEEEENS5_IS7_EEEEEEvPT_SB_, symObjAddr: 0x5071C, symBinAddr: 0x1000541BC, symSize: 0x14 }
  - { offsetInCU: 0xA70A2, offset: 0xA70A2, size: 0x8, addend: 0x0, symName: __ZNSt3__14prevB7v160006IPN5Catch5clara8TextFlow6ColumnEEENS_9enable_ifIXsr25__is_cpp17_input_iteratorIT_EE5valueES7_E4typeES7_NS_15iterator_traitsIS7_E15difference_typeE, symObjAddr: 0x508A4, symBinAddr: 0x100054344, symSize: 0x50 }
  - { offsetInCU: 0xA70E8, offset: 0xA70E8, size: 0x8, addend: 0x0, symName: __ZNSt3__19__advanceB7v160006IPN5Catch5clara8TextFlow6ColumnEEEvRT_NS_15iterator_traitsIS6_E15difference_typeENS_26random_access_iterator_tagE, symObjAddr: 0x50944, symBinAddr: 0x1000543E4, symSize: 0x30 }
  - { offsetInCU: 0xA7134, offset: 0xA7134, size: 0x8, addend: 0x0, symName: __ZNSt3__119__allocator_destroyB7v160006INS_9allocatorIN5Catch5clara8TextFlow6ColumnEEENS_16reverse_iteratorINS7_IPS5_EEEESA_EEvRT_T0_T1_, symObjAddr: 0x50A78, symBinAddr: 0x100054518, symSize: 0x70 }
  - { offsetInCU: 0xA719A, offset: 0xA719A, size: 0x8, addend: 0x0, symName: __ZNSt3__1neB7v160006INS_16reverse_iteratorIPN5Catch5clara8TextFlow6ColumnEEES7_EEbRKNS1_IT_EERKNS1_IT0_EE, symObjAddr: 0x50B24, symBinAddr: 0x1000545C4, symSize: 0x60 }
  - { offsetInCU: 0xA71E9, offset: 0xA71E9, size: 0x8, addend: 0x0, symName: __ZNSt3__112__to_addressB7v160006INS_16reverse_iteratorINS1_IPN5Catch5clara8TextFlow6ColumnEEEEEvEENS_5decayIDTclsr19__to_address_helperIT_EE6__callclsr3stdE7declvalIRKSA_EEEEE4typeESC_, symObjAddr: 0x50BAC, symBinAddr: 0x10005464C, symSize: 0x24 }
  - { offsetInCU: 0xA7221, offset: 0xA7221, size: 0x8, addend: 0x0, symName: __ZNSt3__110destroy_atB7v160006IN5Catch5clara8TextFlow6ColumnELi0EEEvPT_, symObjAddr: 0x50C24, symBinAddr: 0x1000546C4, symSize: 0x24 }
  - { offsetInCU: 0xA725B, offset: 0xA725B, size: 0x8, addend: 0x0, symName: __ZNSt3__112__destroy_atB7v160006IN5Catch5clara8TextFlow6ColumnELi0EEEvPT_, symObjAddr: 0x50C48, symBinAddr: 0x1000546E8, symSize: 0x24 }
  - { offsetInCU: 0xA72C0, offset: 0xA72C0, size: 0x8, addend: 0x0, symName: __ZNSt3__14prevB7v160006INS_16reverse_iteratorIPN5Catch5clara8TextFlow6ColumnEEEEENS_9enable_ifIXsr25__is_cpp17_input_iteratorIT_EE5valueES9_E4typeES9_NS_15iterator_traitsIS9_E15difference_typeE, symObjAddr: 0x50CF0, symBinAddr: 0x100054790, symSize: 0x60 }
  - { offsetInCU: 0xA7306, offset: 0xA7306, size: 0x8, addend: 0x0, symName: __ZNSt3__19__advanceB7v160006INS_16reverse_iteratorIPN5Catch5clara8TextFlow6ColumnEEEEEvRT_NS_15iterator_traitsIS8_E15difference_typeENS_26random_access_iterator_tagE, symObjAddr: 0x50DA0, symBinAddr: 0x100054840, symSize: 0x2C }
  - { offsetInCU: 0xA7353, offset: 0xA7353, size: 0x8, addend: 0x0, symName: __ZNSt3__118__debug_db_erase_cB7v160006INS_6vectorIN5Catch5clara8TextFlow6ColumnENS_9allocatorIS5_EEEEEEvPT_, symObjAddr: 0x51260, symBinAddr: 0x100054D00, symSize: 0x10 }
  - { offsetInCU: 0xA7385, offset: 0xA7385, size: 0x8, addend: 0x0, symName: __ZNSt3__1eqB7v160006IcNS_11char_traitsIcEEEEbNS_17basic_string_viewIT_T0_EES6_, symObjAddr: 0x51324, symBinAddr: 0x100054DC4, symSize: 0xB0 }
  - { offsetInCU: 0xA73D5, offset: 0xA73D5, size: 0x8, addend: 0x0, symName: __ZNSt3__128__char_traits_length_checkedB7v160006INS_11char_traitsIcEEEEmPKNT_9char_typeE, symObjAddr: 0x51694, symBinAddr: 0x100055134, symSize: 0x24 }
  - { offsetInCU: 0xA740C, offset: 0xA740C, size: 0x8, addend: 0x0, symName: __ZNSt3__13maxB7v160006IdNS_6__lessIddEEEERKT_S5_S5_T0_, symObjAddr: 0x519F4, symBinAddr: 0x100055494, symSize: 0x54 }
  - { offsetInCU: 0xA74A7, offset: 0xA74A7, size: 0x8, addend: 0x0, symName: __ZNSt3__115__debug_db_swapB7v160006INS_12basic_stringIcNS_11char_traitsIcEENS_9allocatorIcEEEEEEvPT_S8_, symObjAddr: 0x51BC4, symBinAddr: 0x100055664, symSize: 0x14 }
  - { offsetInCU: 0xA74E9, offset: 0xA74E9, size: 0x8, addend: 0x0, symName: __ZNSt3__112construct_atB7v160006IN5Catch11MessageInfoEJRNS1_9StringRefERKNS1_14SourceLineInfoERNS1_9ResultWas6OfTypeEEPS2_EEPT_SD_DpOT0_, symObjAddr: 0x520D0, symBinAddr: 0x100055B70, symSize: 0x50 }
  - { offsetInCU: 0xA758A, offset: 0xA758A, size: 0x8, addend: 0x0, symName: __ZNSt3__1neB7v160006ERKNS_16__deque_iteratorIcPcRcPS1_lLl4096EEES6_, symObjAddr: 0x52664, symBinAddr: 0x100056104, symSize: 0x34 }
  - { offsetInCU: 0xA75C7, offset: 0xA75C7, size: 0x8, addend: 0x0, symName: __ZNSt3__1eqB7v160006ERKNS_16__deque_iteratorIcPcRcPS1_lLl4096EEES6_, symObjAddr: 0x528EC, symBinAddr: 0x10005638C, symSize: 0x30 }
  - { offsetInCU: 0xA7605, offset: 0xA7605, size: 0x8, addend: 0x0, symName: __ZNSt3__110destroy_atB7v160006IcLi0EEEvPT_, symObjAddr: 0x5291C, symBinAddr: 0x1000563BC, symSize: 0x24 }
  - { offsetInCU: 0xA763F, offset: 0xA763F, size: 0x8, addend: 0x0, symName: __ZNSt3__112__destroy_atB7v160006IcLi0EEEvPT_, symObjAddr: 0x52940, symBinAddr: 0x1000563E0, symSize: 0x10 }
  - { offsetInCU: 0xA7679, offset: 0xA7679, size: 0x8, addend: 0x0, symName: __ZNSt3__112__to_addressB7v160006IPcEEPT_S3_, symObjAddr: 0x52C08, symBinAddr: 0x1000566A8, symSize: 0x14 }
  - { offsetInCU: 0xA76B0, offset: 0xA76B0, size: 0x8, addend: 0x0, symName: __ZNSt3__110destroy_atB7v160006IPcLi0EEEvPT_, symObjAddr: 0x52C1C, symBinAddr: 0x1000566BC, symSize: 0x24 }
  - { offsetInCU: 0xA76EA, offset: 0xA76EA, size: 0x8, addend: 0x0, symName: __ZNSt3__112__destroy_atB7v160006IPcLi0EEEvPT_, symObjAddr: 0x52C40, symBinAddr: 0x1000566E0, symSize: 0x10 }
  - { offsetInCU: 0xA7724, offset: 0xA7724, size: 0x8, addend: 0x0, symName: __ZNSt3__118__debug_db_erase_cB7v160006INS_6vectorINS_10shared_ptrIN5Catch16IReporterFactoryEEENS_9allocatorIS5_EEEEEEvPT_, symObjAddr: 0x52F90, symBinAddr: 0x100056A30, symSize: 0x10 }
  - { offsetInCU: 0xA7757, offset: 0xA7757, size: 0x8, addend: 0x0, symName: __ZNSt3__112__to_addressB7v160006INS_10shared_ptrIN5Catch16IReporterFactoryEEEEEPT_S6_, symObjAddr: 0x530D4, symBinAddr: 0x100056B74, symSize: 0x14 }
  - { offsetInCU: 0xA778E, offset: 0xA778E, size: 0x8, addend: 0x0, symName: __ZNSt3__110destroy_atB7v160006INS_10shared_ptrIN5Catch16IReporterFactoryEEELi0EEEvPT_, symObjAddr: 0x5319C, symBinAddr: 0x100056C3C, symSize: 0x24 }
  - { offsetInCU: 0xA77C8, offset: 0xA77C8, size: 0x8, addend: 0x0, symName: __ZNSt3__112__destroy_atB7v160006INS_10shared_ptrIN5Catch16IReporterFactoryEEELi0EEEvPT_, symObjAddr: 0x531C0, symBinAddr: 0x100056C60, symSize: 0x24 }
  - { offsetInCU: 0xA7829, offset: 0xA7829, size: 0x8, addend: 0x0, symName: __ZNSt3__112construct_atB7v160006INS_10shared_ptrIN5Catch16IReporterFactoryEEEJRKS4_EPS4_EEPT_S9_DpOT0_, symObjAddr: 0x536F4, symBinAddr: 0x100057194, symSize: 0x3C }
  - { offsetInCU: 0xA78A1, offset: 0xA78A1, size: 0x8, addend: 0x0, symName: __ZNSt3__119__allocate_at_leastB7v160006INS_9allocatorINS_10shared_ptrIN5Catch16IReporterFactoryEEEEEEENS_19__allocation_resultINS_16allocator_traitsIT_E7pointerEEERS9_m, symObjAddr: 0x53C44, symBinAddr: 0x1000576E4, symSize: 0x40 }
  - { offsetInCU: 0xA78E6, offset: 0xA78E6, size: 0x8, addend: 0x0, symName: __ZNSt3__142__uninitialized_allocator_move_if_noexceptB7v160006INS_9allocatorINS_10shared_ptrIN5Catch16IReporterFactoryEEEEENS_16reverse_iteratorIPS5_EES9_S9_EET2_RT_T0_T1_SA_, symObjAddr: 0x53E14, symBinAddr: 0x1000578B4, symSize: 0x12C }
  - { offsetInCU: 0xA7987, offset: 0xA7987, size: 0x8, addend: 0x0, symName: __ZNSt3__14swapB7v160006IPNS_10shared_ptrIN5Catch16IReporterFactoryEEEEENS_9enable_ifIXaasr21is_move_constructibleIT_EE5valuesr18is_move_assignableIS7_EE5valueEvE4typeERS7_SA_, symObjAddr: 0x53F8C, symBinAddr: 0x100057A2C, symSize: 0x3C }
  - { offsetInCU: 0xA79DC, offset: 0xA79DC, size: 0x8, addend: 0x0, symName: __ZNSt3__125__debug_db_invalidate_allB7v160006INS_6vectorINS_10shared_ptrIN5Catch16IReporterFactoryEEENS_9allocatorIS5_EEEEEEvPT_, symObjAddr: 0x54074, symBinAddr: 0x100057B14, symSize: 0x10 }
  - { offsetInCU: 0xA7A0F, offset: 0xA7A0F, size: 0x8, addend: 0x0, symName: __ZNSt3__122__make_exception_guardB7v160006INS_29_AllocatorDestroyRangeReverseINS_9allocatorINS_10shared_ptrIN5Catch16IReporterFactoryEEEEENS_16reverse_iteratorIPS6_EEEEEENS_28__exception_guard_exceptionsIT_EESD_, symObjAddr: 0x54084, symBinAddr: 0x100057B24, symSize: 0x4C }
  - { offsetInCU: 0xA7A47, offset: 0xA7A47, size: 0x8, addend: 0x0, symName: __ZNSt3__1neB7v160006IPNS_10shared_ptrIN5Catch16IReporterFactoryEEES5_EEbRKNS_16reverse_iteratorIT_EERKNS6_IT0_EE, symObjAddr: 0x54114, symBinAddr: 0x100057BB4, symSize: 0x48 }
  - { offsetInCU: 0xA7A96, offset: 0xA7A96, size: 0x8, addend: 0x0, symName: __ZNSt3__112__to_addressB7v160006INS_16reverse_iteratorIPNS_10shared_ptrIN5Catch16IReporterFactoryEEEEEvEENS_5decayIDTclsr19__to_address_helperIT_EE6__callclsr3stdE7declvalIRKS9_EEEEE4typeESB_, symObjAddr: 0x5418C, symBinAddr: 0x100057C2C, symSize: 0x24 }
  - { offsetInCU: 0xA7ACE, offset: 0xA7ACE, size: 0x8, addend: 0x0, symName: __ZNSt3__112construct_atB7v160006INS_10shared_ptrIN5Catch16IReporterFactoryEEEJS4_EPS4_EEPT_S7_DpOT0_, symObjAddr: 0x542DC, symBinAddr: 0x100057D7C, symSize: 0x3C }
  - { offsetInCU: 0xA7B71, offset: 0xA7B71, size: 0x8, addend: 0x0, symName: __ZNSt3__14prevB7v160006IPNS_10shared_ptrIN5Catch16IReporterFactoryEEEEENS_9enable_ifIXsr25__is_cpp17_input_iteratorIT_EE5valueES7_E4typeES7_NS_15iterator_traitsIS7_E15difference_typeE, symObjAddr: 0x543F0, symBinAddr: 0x100057E90, symSize: 0x50 }
  - { offsetInCU: 0xA7BB7, offset: 0xA7BB7, size: 0x8, addend: 0x0, symName: __ZNSt3__19__advanceB7v160006IPNS_10shared_ptrIN5Catch16IReporterFactoryEEEEEvRT_NS_15iterator_traitsIS6_E15difference_typeENS_26random_access_iterator_tagE, symObjAddr: 0x54490, symBinAddr: 0x100057F30, symSize: 0x28 }
  - { offsetInCU: 0xA7C03, offset: 0xA7C03, size: 0x8, addend: 0x0, symName: __ZNSt3__119__allocator_destroyB7v160006INS_9allocatorINS_10shared_ptrIN5Catch16IReporterFactoryEEEEENS_16reverse_iteratorINS7_IPS5_EEEESA_EEvRT_T0_T1_, symObjAddr: 0x545BC, symBinAddr: 0x10005805C, symSize: 0x70 }
  - { offsetInCU: 0xA7C69, offset: 0xA7C69, size: 0x8, addend: 0x0, symName: __ZNSt3__1neB7v160006INS_16reverse_iteratorIPNS_10shared_ptrIN5Catch16IReporterFactoryEEEEES7_EEbRKNS1_IT_EERKNS1_IT0_EE, symObjAddr: 0x54668, symBinAddr: 0x100058108, symSize: 0x60 }
  - { offsetInCU: 0xA7CB8, offset: 0xA7CB8, size: 0x8, addend: 0x0, symName: __ZNSt3__112__to_addressB7v160006INS_16reverse_iteratorINS1_IPNS_10shared_ptrIN5Catch16IReporterFactoryEEEEEEEvEENS_5decayIDTclsr19__to_address_helperIT_EE6__callclsr3stdE7declvalIRKSA_EEEEE4typeESC_, symObjAddr: 0x546C8, symBinAddr: 0x100058168, symSize: 0x24 }
  - { offsetInCU: 0xA7D1B, offset: 0xA7D1B, size: 0x8, addend: 0x0, symName: __ZNSt3__14prevB7v160006INS_16reverse_iteratorIPNS_10shared_ptrIN5Catch16IReporterFactoryEEEEEEENS_9enable_ifIXsr25__is_cpp17_input_iteratorIT_EE5valueES9_E4typeES9_NS_15iterator_traitsIS9_E15difference_typeE, symObjAddr: 0x547C4, symBinAddr: 0x100058264, symSize: 0x60 }
  - { offsetInCU: 0xA7D61, offset: 0xA7D61, size: 0x8, addend: 0x0, symName: __ZNSt3__19__advanceB7v160006INS_16reverse_iteratorIPNS_10shared_ptrIN5Catch16IReporterFactoryEEEEEEEvRT_NS_15iterator_traitsIS8_E15difference_typeENS_26random_access_iterator_tagE, symObjAddr: 0x54874, symBinAddr: 0x100058314, symSize: 0x2C }
  - { offsetInCU: 0xA7DAE, offset: 0xA7DAE, size: 0x8, addend: 0x0, symName: __ZNSt3__118__debug_db_erase_cB7v160006INS_6vectorINS_10shared_ptrIN5Catch16TestCaseTracking8ITrackerEEENS_9allocatorIS6_EEEEEEvPT_, symObjAddr: 0x54D48, symBinAddr: 0x1000587E8, symSize: 0x10 }
  - { offsetInCU: 0xA7DE1, offset: 0xA7DE1, size: 0x8, addend: 0x0, symName: __ZNSt3__112__to_addressB7v160006INS_10shared_ptrIN5Catch16TestCaseTracking8ITrackerEEEEEPT_S7_, symObjAddr: 0x54E8C, symBinAddr: 0x10005892C, symSize: 0x14 }
  - { offsetInCU: 0xA7E18, offset: 0xA7E18, size: 0x8, addend: 0x0, symName: __ZNSt3__110destroy_atB7v160006INS_10shared_ptrIN5Catch16TestCaseTracking8ITrackerEEELi0EEEvPT_, symObjAddr: 0x54F54, symBinAddr: 0x1000589F4, symSize: 0x24 }
  - { offsetInCU: 0xA7E52, offset: 0xA7E52, size: 0x8, addend: 0x0, symName: __ZNSt3__112__destroy_atB7v160006INS_10shared_ptrIN5Catch16TestCaseTracking8ITrackerEEELi0EEEvPT_, symObjAddr: 0x54F78, symBinAddr: 0x100058A18, symSize: 0x24 }
  - { offsetInCU: 0xA7E8C, offset: 0xA7E8C, size: 0x8, addend: 0x0, symName: __ZNSt3__119__debug_db_insert_cB7v160006INS_6vectorIN5Catch13ScopedMessageENS_9allocatorIS3_EEEEEEvPT_, symObjAddr: 0x55108, symBinAddr: 0x100058BA8, symSize: 0x10 }
  - { offsetInCU: 0xA7EBF, offset: 0xA7EBF, size: 0x8, addend: 0x0, symName: __ZNSt3__119__debug_db_insert_cB7v160006INS_6vectorIN5Catch14SectionEndInfoENS_9allocatorIS3_EEEEEEvPT_, symObjAddr: 0x55298, symBinAddr: 0x100058D38, symSize: 0x10 }
  - { offsetInCU: 0xA7EF2, offset: 0xA7EF2, size: 0x8, addend: 0x0, symName: __ZNSt3__119__debug_db_insert_cB7v160006INS_6vectorIPN5Catch16TestCaseTracking8ITrackerENS_9allocatorIS5_EEEEEEvPT_, symObjAddr: 0x55404, symBinAddr: 0x100058EA4, symSize: 0x10 }
  - { offsetInCU: 0xA7F25, offset: 0xA7F25, size: 0x8, addend: 0x0, symName: __ZNSt3__118__debug_db_erase_cB7v160006INS_6vectorIPN5Catch16TestCaseTracking8ITrackerENS_9allocatorIS5_EEEEEEvPT_, symObjAddr: 0x55770, symBinAddr: 0x100059210, symSize: 0x10 }
  - { offsetInCU: 0xA7F58, offset: 0xA7F58, size: 0x8, addend: 0x0, symName: __ZNSt3__112__to_addressB7v160006IPN5Catch16TestCaseTracking8ITrackerEEEPT_S6_, symObjAddr: 0x558B4, symBinAddr: 0x100059354, symSize: 0x14 }
  - { offsetInCU: 0xA7F8F, offset: 0xA7F8F, size: 0x8, addend: 0x0, symName: __ZNSt3__110destroy_atB7v160006IPN5Catch16TestCaseTracking8ITrackerELi0EEEvPT_, symObjAddr: 0x5597C, symBinAddr: 0x10005941C, symSize: 0x24 }
  - { offsetInCU: 0xA7FC9, offset: 0xA7FC9, size: 0x8, addend: 0x0, symName: __ZNSt3__112__destroy_atB7v160006IPN5Catch16TestCaseTracking8ITrackerELi0EEEvPT_, symObjAddr: 0x559A0, symBinAddr: 0x100059440, symSize: 0x10 }
  - { offsetInCU: 0xA8003, offset: 0xA8003, size: 0x8, addend: 0x0, symName: __ZNSt3__118__debug_db_erase_cB7v160006INS_6vectorIN5Catch14SectionEndInfoENS_9allocatorIS3_EEEEEEvPT_, symObjAddr: 0x55C90, symBinAddr: 0x100059730, symSize: 0x10 }
  - { offsetInCU: 0xA8036, offset: 0xA8036, size: 0x8, addend: 0x0, symName: __ZNSt3__112__to_addressB7v160006IN5Catch14SectionEndInfoEEEPT_S4_, symObjAddr: 0x55DD4, symBinAddr: 0x100059874, symSize: 0x14 }
  - { offsetInCU: 0xA806D, offset: 0xA806D, size: 0x8, addend: 0x0, symName: __ZNSt3__110destroy_atB7v160006IN5Catch14SectionEndInfoELi0EEEvPT_, symObjAddr: 0x55E9C, symBinAddr: 0x10005993C, symSize: 0x24 }
  - { offsetInCU: 0xA80A7, offset: 0xA80A7, size: 0x8, addend: 0x0, symName: __ZNSt3__112__destroy_atB7v160006IN5Catch14SectionEndInfoELi0EEEvPT_, symObjAddr: 0x55EC0, symBinAddr: 0x100059960, symSize: 0x24 }
  - { offsetInCU: 0xA80E1, offset: 0xA80E1, size: 0x8, addend: 0x0, symName: __ZNSt3__118__debug_db_erase_cB7v160006INS_6vectorIN5Catch13ScopedMessageENS_9allocatorIS3_EEEEEEvPT_, symObjAddr: 0x561C8, symBinAddr: 0x100059C68, symSize: 0x10 }
  - { offsetInCU: 0xA8114, offset: 0xA8114, size: 0x8, addend: 0x0, symName: __ZNSt3__112__to_addressB7v160006IN5Catch13ScopedMessageEEEPT_S4_, symObjAddr: 0x5630C, symBinAddr: 0x100059DAC, symSize: 0x14 }
  - { offsetInCU: 0xA814B, offset: 0xA814B, size: 0x8, addend: 0x0, symName: __ZNSt3__110destroy_atB7v160006IN5Catch13ScopedMessageELi0EEEvPT_, symObjAddr: 0x563D4, symBinAddr: 0x100059E74, symSize: 0x24 }
  - { offsetInCU: 0xA8185, offset: 0xA8185, size: 0x8, addend: 0x0, symName: __ZNSt3__112__destroy_atB7v160006IN5Catch13ScopedMessageELi0EEEvPT_, symObjAddr: 0x563F8, symBinAddr: 0x100059E98, symSize: 0x24 }
  - { offsetInCU: 0xA81BF, offset: 0xA81BF, size: 0x8, addend: 0x0, symName: __ZNSt3__125__debug_db_invalidate_allB7v160006INS_6vectorIN5Catch13ScopedMessageENS_9allocatorIS3_EEEEEEvPT_, symObjAddr: 0x565F4, symBinAddr: 0x10005A094, symSize: 0x10 }
  - { offsetInCU: 0xA8219, offset: 0xA8219, size: 0x8, addend: 0x0, symName: __ZNSt3__112construct_atB7v160006IPN5Catch16TestCaseTracking8ITrackerEJS4_EPS4_EEPT_S7_DpOT0_, symObjAddr: 0x568A8, symBinAddr: 0x10005A348, symSize: 0x2C }
  - { offsetInCU: 0xA8291, offset: 0xA8291, size: 0x8, addend: 0x0, symName: __ZNSt3__119__allocate_at_leastB7v160006INS_9allocatorIPN5Catch16TestCaseTracking8ITrackerEEEEENS_19__allocation_resultINS_16allocator_traitsIT_E7pointerEEERS9_m, symObjAddr: 0x56D44, symBinAddr: 0x10005A7E4, symSize: 0x40 }
  - { offsetInCU: 0xA82D6, offset: 0xA82D6, size: 0x8, addend: 0x0, symName: __ZNSt3__142__uninitialized_allocator_move_if_noexceptB7v160006INS_9allocatorIPN5Catch16TestCaseTracking8ITrackerEEENS_16reverse_iteratorIPS5_EES9_S5_vEET1_RT_T0_SD_SA_, symObjAddr: 0x56EF8, symBinAddr: 0x10005A998, symSize: 0x78 }
  - { offsetInCU: 0xA8354, offset: 0xA8354, size: 0x8, addend: 0x0, symName: __ZNSt3__14swapB7v160006IPPN5Catch16TestCaseTracking8ITrackerEEENS_9enable_ifIXaasr21is_move_constructibleIT_EE5valuesr18is_move_assignableIS7_EE5valueEvE4typeERS7_SA_, symObjAddr: 0x56FBC, symBinAddr: 0x10005AA5C, symSize: 0x3C }
  - { offsetInCU: 0xA83A9, offset: 0xA83A9, size: 0x8, addend: 0x0, symName: __ZNSt3__125__debug_db_invalidate_allB7v160006INS_6vectorIPN5Catch16TestCaseTracking8ITrackerENS_9allocatorIS5_EEEEEEvPT_, symObjAddr: 0x570A4, symBinAddr: 0x10005AB44, symSize: 0x10 }
  - { offsetInCU: 0xA83DC, offset: 0xA83DC, size: 0x8, addend: 0x0, symName: __ZNSt3__14moveB7v160006INS_16reverse_iteratorIPPN5Catch16TestCaseTracking8ITrackerEEES7_EET0_T_S9_S8_, symObjAddr: 0x570B4, symBinAddr: 0x10005AB54, symSize: 0x78 }
  - { offsetInCU: 0xA843A, offset: 0xA843A, size: 0x8, addend: 0x0, symName: __ZNSt3__16__moveB7v160006INS_17_ClassicAlgPolicyENS_16reverse_iteratorIPPN5Catch16TestCaseTracking8ITrackerEEES8_S8_EENS_4pairIT0_T2_EESA_T1_SB_, symObjAddr: 0x5712C, symBinAddr: 0x10005ABCC, symSize: 0x64 }
  - { offsetInCU: 0xA84AA, offset: 0xA84AA, size: 0x8, addend: 0x0, symName: __ZNSt3__123__dispatch_copy_or_moveB7v160006INS_17_ClassicAlgPolicyENS_11__move_loopIS1_EENS_14__move_trivialENS_16reverse_iteratorIPPN5Catch16TestCaseTracking8ITrackerEEESB_SB_EENS_4pairIT2_T4_EESD_T3_SE_, symObjAddr: 0x57190, symBinAddr: 0x10005AC30, symSize: 0x64 }
  - { offsetInCU: 0xA852C, offset: 0xA852C, size: 0x8, addend: 0x0, symName: __ZNSt3__121__unwrap_and_dispatchB7v160006INS_10__overloadINS_11__move_loopINS_17_ClassicAlgPolicyEEENS_14__move_trivialEEENS_16reverse_iteratorIPPN5Catch16TestCaseTracking8ITrackerEEESD_SD_Li0EEENS_4pairIT0_T2_EESF_T1_SG_, symObjAddr: 0x571F4, symBinAddr: 0x10005AC94, symSize: 0x12C }
  - { offsetInCU: 0xA85C3, offset: 0xA85C3, size: 0x8, addend: 0x0, symName: __ZNSt3__114__unwrap_rangeB7v160006INS_16reverse_iteratorIPPN5Catch16TestCaseTracking8ITrackerEEES7_EEDaT_T0_, symObjAddr: 0x57320, symBinAddr: 0x10005ADC0, symSize: 0x4C }
  - { offsetInCU: 0xA86ED, offset: 0xA86ED, size: 0x8, addend: 0x0, symName: __ZNSt3__113__unwrap_iterB7v160006INS_16reverse_iteratorIPPN5Catch16TestCaseTracking8ITrackerEEENS_18__unwrap_iter_implIS7_Lb0EEELi0EEEDTclsrT0_8__unwrapclsr3stdE7declvalIT_EEEESB_, symObjAddr: 0x5740C, symBinAddr: 0x10005AEAC, symSize: 0x44 }
  - { offsetInCU: 0xA8733, offset: 0xA8733, size: 0x8, addend: 0x0, symName: __ZNSt3__19make_pairB7v160006INS_16reverse_iteratorIPPN5Catch16TestCaseTracking8ITrackerEEES7_EENS_4pairINS_18__unwrap_ref_decayIT_E4typeENS9_IT0_E4typeEEEOSA_OSD_, symObjAddr: 0x57450, symBinAddr: 0x10005AEF0, symSize: 0x38 }
  - { offsetInCU: 0xA8783, offset: 0xA8783, size: 0x8, addend: 0x0, symName: __ZNSt3__114__rewrap_rangeB7v160006INS_16reverse_iteratorIPPN5Catch16TestCaseTracking8ITrackerEEES7_S7_EET0_S8_T1_, symObjAddr: 0x57488, symBinAddr: 0x10005AF28, symSize: 0x5C }
  - { offsetInCU: 0xA87DB, offset: 0xA87DB, size: 0x8, addend: 0x0, symName: __ZNSt3__113__rewrap_iterB7v160006INS_16reverse_iteratorIPPN5Catch16TestCaseTracking8ITrackerEEES7_NS_18__unwrap_iter_implIS7_Lb0EEEEET_SA_T0_, symObjAddr: 0x574E4, symBinAddr: 0x10005AF84, symSize: 0x74 }
  - { offsetInCU: 0xA8886, offset: 0xA8886, size: 0x8, addend: 0x0, symName: __ZNSt3__1neB7v160006IPPN5Catch16TestCaseTracking8ITrackerES5_EEbRKNS_16reverse_iteratorIT_EERKNS6_IT0_EE, symObjAddr: 0x5764C, symBinAddr: 0x10005B0EC, symSize: 0x48 }
  - { offsetInCU: 0xA8947, offset: 0xA8947, size: 0x8, addend: 0x0, symName: __ZNSt3__119static_pointer_castB7v160006IN5Catch10Generators16GeneratorTrackerENS1_16TestCaseTracking8ITrackerEEENS_10shared_ptrIT_EERKNS6_IT0_EE, symObjAddr: 0x57A6C, symBinAddr: 0x10005B50C, symSize: 0x44 }
  - { offsetInCU: 0xA8987, offset: 0xA8987, size: 0x8, addend: 0x0, symName: __ZNSt3__111make_sharedB7v160006IN5Catch10Generators16GeneratorTrackerEJRKNS1_16TestCaseTracking15NameAndLocationERNS4_14TrackerContextEPNS4_8ITrackerEEvEENS_10shared_ptrIT_EEDpOT0_, symObjAddr: 0x57B2C, symBinAddr: 0x10005B5CC, symSize: 0x50 }
  - { offsetInCU: 0xA89F7, offset: 0xA89F7, size: 0x8, addend: 0x0, symName: __ZNSt3__14swapB7v160006IPN5Catch10Generators16GeneratorTrackerEEENS_9enable_ifIXaasr21is_move_constructibleIT_EE5valuesr18is_move_assignableIS6_EE5valueEvE4typeERS6_S9_, symObjAddr: 0x57D60, symBinAddr: 0x10005B800, symSize: 0x3C }
  - { offsetInCU: 0xA8A4B, offset: 0xA8A4B, size: 0x8, addend: 0x0, symName: __ZNSt3__115allocate_sharedB7v160006IN5Catch10Generators16GeneratorTrackerENS_9allocatorIS3_EEJRKNS1_16TestCaseTracking15NameAndLocationERNS6_14TrackerContextEPNS6_8ITrackerEEvEENS_10shared_ptrIT_EERKT0_DpOT1_, symObjAddr: 0x57DF0, symBinAddr: 0x10005B890, symSize: 0xA8 }
  - { offsetInCU: 0xA8DEE, offset: 0xA8DEE, size: 0x8, addend: 0x0, symName: __ZNSt3__112construct_atB7v160006IN5Catch10Generators16GeneratorTrackerEJRKNS1_16TestCaseTracking15NameAndLocationERNS4_14TrackerContextEPNS4_8ITrackerEEPS3_EEPT_SE_DpOT0_, symObjAddr: 0x58504, symBinAddr: 0x10005BFA4, symSize: 0x50 }
  - { offsetInCU: 0xA8E90, offset: 0xA8E90, size: 0x8, addend: 0x0, symName: __ZNSt3__110destroy_atB7v160006IN5Catch10Generators16GeneratorTrackerELi0EEEvPT_, symObjAddr: 0x587E8, symBinAddr: 0x10005C288, symSize: 0x24 }
  - { offsetInCU: 0xA8ECA, offset: 0xA8ECA, size: 0x8, addend: 0x0, symName: __ZNSt3__112__destroy_atB7v160006IN5Catch10Generators16GeneratorTrackerELi0EEEvPT_, symObjAddr: 0x5880C, symBinAddr: 0x10005C2AC, symSize: 0x2C }
  - { offsetInCU: 0xA8F61, offset: 0xA8F61, size: 0x8, addend: 0x0, symName: __ZNSt3__112construct_atB7v160006IN5Catch14SectionEndInfoEJRKS2_EPS2_EEPT_S7_DpOT0_, symObjAddr: 0x58EB4, symBinAddr: 0x10005C954, symSize: 0x3C }
  - { offsetInCU: 0xA8FD9, offset: 0xA8FD9, size: 0x8, addend: 0x0, symName: __ZNSt3__119__allocate_at_leastB7v160006INS_9allocatorIN5Catch14SectionEndInfoEEEEENS_19__allocation_resultINS_16allocator_traitsIT_E7pointerEEERS7_m, symObjAddr: 0x593E8, symBinAddr: 0x10005CE88, symSize: 0x40 }
  - { offsetInCU: 0xA901E, offset: 0xA901E, size: 0x8, addend: 0x0, symName: __ZNSt3__142__uninitialized_allocator_move_if_noexceptB7v160006INS_9allocatorIN5Catch14SectionEndInfoEEENS_16reverse_iteratorIPS3_EES7_S7_EET2_RT_T0_T1_S8_, symObjAddr: 0x595A0, symBinAddr: 0x10005D040, symSize: 0x12C }
  - { offsetInCU: 0xA90BF, offset: 0xA90BF, size: 0x8, addend: 0x0, symName: __ZNSt3__14swapB7v160006IPN5Catch14SectionEndInfoEEENS_9enable_ifIXaasr21is_move_constructibleIT_EE5valuesr18is_move_assignableIS5_EE5valueEvE4typeERS5_S8_, symObjAddr: 0x59718, symBinAddr: 0x10005D1B8, symSize: 0x3C }
  - { offsetInCU: 0xA9114, offset: 0xA9114, size: 0x8, addend: 0x0, symName: __ZNSt3__125__debug_db_invalidate_allB7v160006INS_6vectorIN5Catch14SectionEndInfoENS_9allocatorIS3_EEEEEEvPT_, symObjAddr: 0x5981C, symBinAddr: 0x10005D2BC, symSize: 0x10 }
  - { offsetInCU: 0xA9147, offset: 0xA9147, size: 0x8, addend: 0x0, symName: __ZNSt3__122__make_exception_guardB7v160006INS_29_AllocatorDestroyRangeReverseINS_9allocatorIN5Catch14SectionEndInfoEEENS_16reverse_iteratorIPS4_EEEEEENS_28__exception_guard_exceptionsIT_EESB_, symObjAddr: 0x5982C, symBinAddr: 0x10005D2CC, symSize: 0x4C }
  - { offsetInCU: 0xA917F, offset: 0xA917F, size: 0x8, addend: 0x0, symName: __ZNSt3__1neB7v160006IPN5Catch14SectionEndInfoES3_EEbRKNS_16reverse_iteratorIT_EERKNS4_IT0_EE, symObjAddr: 0x598BC, symBinAddr: 0x10005D35C, symSize: 0x48 }
  - { offsetInCU: 0xA91CE, offset: 0xA91CE, size: 0x8, addend: 0x0, symName: __ZNSt3__112__to_addressB7v160006INS_16reverse_iteratorIPN5Catch14SectionEndInfoEEEvEENS_5decayIDTclsr19__to_address_helperIT_EE6__callclsr3stdE7declvalIRKS7_EEEEE4typeES9_, symObjAddr: 0x59934, symBinAddr: 0x10005D3D4, symSize: 0x24 }
  - { offsetInCU: 0xA9206, offset: 0xA9206, size: 0x8, addend: 0x0, symName: __ZNSt3__112construct_atB7v160006IN5Catch14SectionEndInfoEJS2_EPS2_EEPT_S5_DpOT0_, symObjAddr: 0x59A84, symBinAddr: 0x10005D524, symSize: 0x3C }
  - { offsetInCU: 0xA92A9, offset: 0xA92A9, size: 0x8, addend: 0x0, symName: __ZNSt3__14prevB7v160006IPN5Catch14SectionEndInfoEEENS_9enable_ifIXsr25__is_cpp17_input_iteratorIT_EE5valueES5_E4typeES5_NS_15iterator_traitsIS5_E15difference_typeE, symObjAddr: 0x59C28, symBinAddr: 0x10005D6C8, symSize: 0x50 }
  - { offsetInCU: 0xA92EF, offset: 0xA92EF, size: 0x8, addend: 0x0, symName: __ZNSt3__19__advanceB7v160006IPN5Catch14SectionEndInfoEEEvRT_NS_15iterator_traitsIS4_E15difference_typeENS_26random_access_iterator_tagE, symObjAddr: 0x59CC8, symBinAddr: 0x10005D768, symSize: 0x30 }
  - { offsetInCU: 0xA933B, offset: 0xA933B, size: 0x8, addend: 0x0, symName: __ZNSt3__119__allocator_destroyB7v160006INS_9allocatorIN5Catch14SectionEndInfoEEENS_16reverse_iteratorINS5_IPS3_EEEES8_EEvRT_T0_T1_, symObjAddr: 0x59DFC, symBinAddr: 0x10005D89C, symSize: 0x70 }
  - { offsetInCU: 0xA93A1, offset: 0xA93A1, size: 0x8, addend: 0x0, symName: __ZNSt3__1neB7v160006INS_16reverse_iteratorIPN5Catch14SectionEndInfoEEES5_EEbRKNS1_IT_EERKNS1_IT0_EE, symObjAddr: 0x59EA8, symBinAddr: 0x10005D948, symSize: 0x60 }
  - { offsetInCU: 0xA93F0, offset: 0xA93F0, size: 0x8, addend: 0x0, symName: __ZNSt3__112__to_addressB7v160006INS_16reverse_iteratorINS1_IPN5Catch14SectionEndInfoEEEEEvEENS_5decayIDTclsr19__to_address_helperIT_EE6__callclsr3stdE7declvalIRKS8_EEEEE4typeESA_, symObjAddr: 0x59F08, symBinAddr: 0x10005D9A8, symSize: 0x24 }
  - { offsetInCU: 0xA9453, offset: 0xA9453, size: 0x8, addend: 0x0, symName: __ZNSt3__14prevB7v160006INS_16reverse_iteratorIPN5Catch14SectionEndInfoEEEEENS_9enable_ifIXsr25__is_cpp17_input_iteratorIT_EE5valueES7_E4typeES7_NS_15iterator_traitsIS7_E15difference_typeE, symObjAddr: 0x5A004, symBinAddr: 0x10005DAA4, symSize: 0x60 }
  - { offsetInCU: 0xA9499, offset: 0xA9499, size: 0x8, addend: 0x0, symName: __ZNSt3__19__advanceB7v160006INS_16reverse_iteratorIPN5Catch14SectionEndInfoEEEEEvRT_NS_15iterator_traitsIS6_E15difference_typeENS_26random_access_iterator_tagE, symObjAddr: 0x5A0B4, symBinAddr: 0x10005DB54, symSize: 0x2C }
  - { offsetInCU: 0xA94E6, offset: 0xA94E6, size: 0x8, addend: 0x0, symName: __ZNSt3__1miB7v160006IPKN5Catch11MessageInfoEPS2_EEDTmicldtfp_4baseEcldtfp0_4baseEERKNS_11__wrap_iterIT_EERKNS7_IT0_EE, symObjAddr: 0x5A370, symBinAddr: 0x10005DE10, symSize: 0x48 }
  - { offsetInCU: 0xA9535, offset: 0xA9535, size: 0x8, addend: 0x0, symName: __ZNSt3__14moveB7v160006IPN5Catch11MessageInfoES3_EET0_T_S5_S4_, symObjAddr: 0x5A418, symBinAddr: 0x10005DEB8, symSize: 0x40 }
  - { offsetInCU: 0xA9593, offset: 0xA9593, size: 0x8, addend: 0x0, symName: __ZNSt3__1miB7v160006IPKN5Catch11MessageInfoES4_EEDTmicldtfp_4baseEcldtfp0_4baseEERKNS_11__wrap_iterIT_EERKNS6_IT0_EE, symObjAddr: 0x5A458, symBinAddr: 0x10005DEF8, symSize: 0x48 }
  - { offsetInCU: 0xA95E2, offset: 0xA95E2, size: 0x8, addend: 0x0, symName: __ZNSt3__16__moveB7v160006INS_17_ClassicAlgPolicyEPN5Catch11MessageInfoES4_S4_EENS_4pairIT0_T2_EES6_T1_S7_, symObjAddr: 0x5A518, symBinAddr: 0x10005DFB8, symSize: 0x44 }
  - { offsetInCU: 0xA9652, offset: 0xA9652, size: 0x8, addend: 0x0, symName: __ZNSt3__123__dispatch_copy_or_moveB7v160006INS_17_ClassicAlgPolicyENS_11__move_loopIS1_EENS_14__move_trivialEPN5Catch11MessageInfoES7_S7_EENS_4pairIT2_T4_EES9_T3_SA_, symObjAddr: 0x5A55C, symBinAddr: 0x10005DFFC, symSize: 0x44 }
  - { offsetInCU: 0xA96D4, offset: 0xA96D4, size: 0x8, addend: 0x0, symName: __ZNSt3__121__unwrap_and_dispatchB7v160006INS_10__overloadINS_11__move_loopINS_17_ClassicAlgPolicyEEENS_14__move_trivialEEEPN5Catch11MessageInfoES9_S9_Li0EEENS_4pairIT0_T2_EESB_T1_SC_, symObjAddr: 0x5A5A0, symBinAddr: 0x10005E040, symSize: 0xB4 }
  - { offsetInCU: 0xA9769, offset: 0xA9769, size: 0x8, addend: 0x0, symName: __ZNSt3__114__unwrap_rangeB7v160006IPN5Catch11MessageInfoES3_EEDaT_T0_, symObjAddr: 0x5A654, symBinAddr: 0x10005E0F4, symSize: 0x3C }
  - { offsetInCU: 0xA9893, offset: 0xA9893, size: 0x8, addend: 0x0, symName: __ZNSt3__113__unwrap_iterB7v160006IPN5Catch11MessageInfoENS_18__unwrap_iter_implIS3_Lb1EEELi0EEEDTclsrT0_8__unwrapclsr3stdE7declvalIT_EEEES7_, symObjAddr: 0x5A720, symBinAddr: 0x10005E1C0, symSize: 0x24 }
  - { offsetInCU: 0xA98D9, offset: 0xA98D9, size: 0x8, addend: 0x0, symName: __ZNSt3__19make_pairB7v160006IPN5Catch11MessageInfoES3_EENS_4pairINS_18__unwrap_ref_decayIT_E4typeENS5_IT0_E4typeEEEOS6_OS9_, symObjAddr: 0x5A744, symBinAddr: 0x10005E1E4, symSize: 0x38 }
  - { offsetInCU: 0xA9929, offset: 0xA9929, size: 0x8, addend: 0x0, symName: __ZNSt3__114__rewrap_rangeB7v160006IPN5Catch11MessageInfoES3_S3_EET0_S4_T1_, symObjAddr: 0x5A77C, symBinAddr: 0x10005E21C, symSize: 0x2C }
  - { offsetInCU: 0xA9981, offset: 0xA9981, size: 0x8, addend: 0x0, symName: __ZNSt3__113__rewrap_iterB7v160006IPN5Catch11MessageInfoES3_NS_18__unwrap_iter_implIS3_Lb1EEEEET_S6_T0_, symObjAddr: 0x5A7A8, symBinAddr: 0x10005E248, symSize: 0x3C }
  - { offsetInCU: 0xA9AAB, offset: 0xA9AAB, size: 0x8, addend: 0x0, symName: __ZNSt3__14findB7v160006INS_11__wrap_iterIPN5Catch11MessageInfoEEES3_EET_S6_S6_RKT0_, symObjAddr: 0x5AA34, symBinAddr: 0x10005E4D4, symSize: 0x74 }
  - { offsetInCU: 0xA9B09, offset: 0xA9B09, size: 0x8, addend: 0x0, symName: __ZNSt3__1neB7v160006IPN5Catch11MessageInfoEEEbRKNS_11__wrap_iterIT_EES8_, symObjAddr: 0x5AAA8, symBinAddr: 0x10005E548, symSize: 0x34 }
  - { offsetInCU: 0xA9B4F, offset: 0xA9B4F, size: 0x8, addend: 0x0, symName: __ZNSt3__1eqB7v160006IPN5Catch11MessageInfoEEEbRKNS_11__wrap_iterIT_EES8_, symObjAddr: 0x5AB14, symBinAddr: 0x10005E5B4, symSize: 0x48 }
  - { offsetInCU: 0xA9BBC, offset: 0xA9BBC, size: 0x8, addend: 0x0, symName: __ZNSt3__112construct_atB7v160006IN5Catch13ScopedMessageEJRKNS1_14MessageBuilderEEPS2_EEPT_S8_DpOT0_, symObjAddr: 0x5AE64, symBinAddr: 0x10005E904, symSize: 0x3C }
  - { offsetInCU: 0xA9C34, offset: 0xA9C34, size: 0x8, addend: 0x0, symName: __ZNSt3__119__allocate_at_leastB7v160006INS_9allocatorIN5Catch13ScopedMessageEEEEENS_19__allocation_resultINS_16allocator_traitsIT_E7pointerEEERS7_m, symObjAddr: 0x5B31C, symBinAddr: 0x10005EDBC, symSize: 0x40 }
  - { offsetInCU: 0xA9C79, offset: 0xA9C79, size: 0x8, addend: 0x0, symName: __ZNSt3__142__uninitialized_allocator_move_if_noexceptB7v160006INS_9allocatorIN5Catch13ScopedMessageEEENS_16reverse_iteratorIPS3_EES7_S7_EET2_RT_T0_T1_S8_, symObjAddr: 0x5B4D4, symBinAddr: 0x10005EF74, symSize: 0x12C }
  - { offsetInCU: 0xA9D1A, offset: 0xA9D1A, size: 0x8, addend: 0x0, symName: __ZNSt3__14swapB7v160006IPN5Catch13ScopedMessageEEENS_9enable_ifIXaasr21is_move_constructibleIT_EE5valuesr18is_move_assignableIS5_EE5valueEvE4typeERS5_S8_, symObjAddr: 0x5B64C, symBinAddr: 0x10005F0EC, symSize: 0x3C }
  - { offsetInCU: 0xA9D6F, offset: 0xA9D6F, size: 0x8, addend: 0x0, symName: __ZNSt3__122__make_exception_guardB7v160006INS_29_AllocatorDestroyRangeReverseINS_9allocatorIN5Catch13ScopedMessageEEENS_16reverse_iteratorIPS4_EEEEEENS_28__exception_guard_exceptionsIT_EESB_, symObjAddr: 0x5B750, symBinAddr: 0x10005F1F0, symSize: 0x4C }
  - { offsetInCU: 0xA9DA7, offset: 0xA9DA7, size: 0x8, addend: 0x0, symName: __ZNSt3__1neB7v160006IPN5Catch13ScopedMessageES3_EEbRKNS_16reverse_iteratorIT_EERKNS4_IT0_EE, symObjAddr: 0x5B7E0, symBinAddr: 0x10005F280, symSize: 0x48 }
  - { offsetInCU: 0xA9DF6, offset: 0xA9DF6, size: 0x8, addend: 0x0, symName: __ZNSt3__112__to_addressB7v160006INS_16reverse_iteratorIPN5Catch13ScopedMessageEEEvEENS_5decayIDTclsr19__to_address_helperIT_EE6__callclsr3stdE7declvalIRKS7_EEEEE4typeES9_, symObjAddr: 0x5B858, symBinAddr: 0x10005F2F8, symSize: 0x24 }
  - { offsetInCU: 0xA9E2E, offset: 0xA9E2E, size: 0x8, addend: 0x0, symName: __ZNSt3__112construct_atB7v160006IN5Catch13ScopedMessageEJS2_EPS2_EEPT_S5_DpOT0_, symObjAddr: 0x5B9A8, symBinAddr: 0x10005F448, symSize: 0x3C }
  - { offsetInCU: 0xA9ED1, offset: 0xA9ED1, size: 0x8, addend: 0x0, symName: __ZNSt3__14prevB7v160006IPN5Catch13ScopedMessageEEENS_9enable_ifIXsr25__is_cpp17_input_iteratorIT_EE5valueES5_E4typeES5_NS_15iterator_traitsIS5_E15difference_typeE, symObjAddr: 0x5BA48, symBinAddr: 0x10005F4E8, symSize: 0x50 }
  - { offsetInCU: 0xA9F17, offset: 0xA9F17, size: 0x8, addend: 0x0, symName: __ZNSt3__19__advanceB7v160006IPN5Catch13ScopedMessageEEEvRT_NS_15iterator_traitsIS4_E15difference_typeENS_26random_access_iterator_tagE, symObjAddr: 0x5BAE8, symBinAddr: 0x10005F588, symSize: 0x30 }
  - { offsetInCU: 0xA9F63, offset: 0xA9F63, size: 0x8, addend: 0x0, symName: __ZNSt3__119__allocator_destroyB7v160006INS_9allocatorIN5Catch13ScopedMessageEEENS_16reverse_iteratorINS5_IPS3_EEEES8_EEvRT_T0_T1_, symObjAddr: 0x5BC1C, symBinAddr: 0x10005F6BC, symSize: 0x70 }
  - { offsetInCU: 0xA9FC9, offset: 0xA9FC9, size: 0x8, addend: 0x0, symName: __ZNSt3__1neB7v160006INS_16reverse_iteratorIPN5Catch13ScopedMessageEEES5_EEbRKNS1_IT_EERKNS1_IT0_EE, symObjAddr: 0x5BCC8, symBinAddr: 0x10005F768, symSize: 0x60 }
  - { offsetInCU: 0xAA018, offset: 0xAA018, size: 0x8, addend: 0x0, symName: __ZNSt3__112__to_addressB7v160006INS_16reverse_iteratorINS1_IPN5Catch13ScopedMessageEEEEEvEENS_5decayIDTclsr19__to_address_helperIT_EE6__callclsr3stdE7declvalIRKS8_EEEEE4typeESA_, symObjAddr: 0x5BD28, symBinAddr: 0x10005F7C8, symSize: 0x24 }
  - { offsetInCU: 0xAA07B, offset: 0xAA07B, size: 0x8, addend: 0x0, symName: __ZNSt3__14prevB7v160006INS_16reverse_iteratorIPN5Catch13ScopedMessageEEEEENS_9enable_ifIXsr25__is_cpp17_input_iteratorIT_EE5valueES7_E4typeES7_NS_15iterator_traitsIS7_E15difference_typeE, symObjAddr: 0x5BE24, symBinAddr: 0x10005F8C4, symSize: 0x60 }
  - { offsetInCU: 0xAA0C1, offset: 0xAA0C1, size: 0x8, addend: 0x0, symName: __ZNSt3__19__advanceB7v160006INS_16reverse_iteratorIPN5Catch13ScopedMessageEEEEEvRT_NS_15iterator_traitsIS6_E15difference_typeENS_26random_access_iterator_tagE, symObjAddr: 0x5BED4, symBinAddr: 0x10005F974, symSize: 0x2C }
  - { offsetInCU: 0xAA10E, offset: 0xAA10E, size: 0x8, addend: 0x0, symName: __ZNSt3__1neB7v160006IPN5Catch14SectionEndInfoEEEbRKNS_11__wrap_iterIT_EES8_, symObjAddr: 0x5C4C8, symBinAddr: 0x10005FF68, symSize: 0x34 }
  - { offsetInCU: 0xAA154, offset: 0xAA154, size: 0x8, addend: 0x0, symName: __ZNSt3__1eqB7v160006IPN5Catch14SectionEndInfoEEEbRKNS_11__wrap_iterIT_EES8_, symObjAddr: 0x5C51C, symBinAddr: 0x10005FFBC, symSize: 0x48 }
  - { offsetInCU: 0xAA19A, offset: 0xAA19A, size: 0x8, addend: 0x0, symName: __ZNSt3__119__debug_db_insert_cB7v160006INS_6vectorIN5Catch5clara6detail3OptENS_9allocatorIS5_EEEEEEvPT_, symObjAddr: 0x5C82C, symBinAddr: 0x1000602CC, symSize: 0x10 }
  - { offsetInCU: 0xAA1CD, offset: 0xAA1CD, size: 0x8, addend: 0x0, symName: __ZNSt3__119__debug_db_insert_cB7v160006INS_6vectorIN5Catch5clara6detail3ArgENS_9allocatorIS5_EEEEEEvPT_, symObjAddr: 0x5C998, symBinAddr: 0x100060438, symSize: 0x10 }
  - { offsetInCU: 0xAA200, offset: 0xAA200, size: 0x8, addend: 0x0, symName: __ZNSt3__1eqB7v160006IPKSt13exception_ptrEEbRKNS_11__wrap_iterIT_EES8_, symObjAddr: 0x5CC60, symBinAddr: 0x100060700, symSize: 0x48 }
  - { offsetInCU: 0xAA246, offset: 0xAA246, size: 0x8, addend: 0x0, symName: __ZNSt3__14swapB7v160006IPNS_12basic_stringIcNS_11char_traitsIcEENS_9allocatorIcEEEEEENS_9enable_ifIXaasr21is_move_constructibleIT_EE5valuesr18is_move_assignableIS9_EE5valueEvE4typeERS9_SC_, symObjAddr: 0x5CF28, symBinAddr: 0x1000609C8, symSize: 0x3C }
  - { offsetInCU: 0xAA29B, offset: 0xAA29B, size: 0x8, addend: 0x0, symName: __ZNSt3__115__debug_db_swapB7v160006INS_6vectorIN5Catch5clara6detail3OptENS_9allocatorIS5_EEEEEEvPT_SA_, symObjAddr: 0x5D164, symBinAddr: 0x100060C04, symSize: 0x14 }
  - { offsetInCU: 0xAA2DD, offset: 0xAA2DD, size: 0x8, addend: 0x0, symName: __ZNSt3__125__debug_db_invalidate_allB7v160006INS_6vectorIN5Catch5clara6detail3OptENS_9allocatorIS5_EEEEEEvPT_, symObjAddr: 0x5D29C, symBinAddr: 0x100060D3C, symSize: 0x10 }
  - { offsetInCU: 0xAA310, offset: 0xAA310, size: 0x8, addend: 0x0, symName: __ZNSt3__115__debug_db_swapB7v160006INS_6vectorIN5Catch5clara6detail3ArgENS_9allocatorIS5_EEEEEEvPT_SA_, symObjAddr: 0x5D4A8, symBinAddr: 0x100060F48, symSize: 0x14 }
  - { offsetInCU: 0xAA352, offset: 0xAA352, size: 0x8, addend: 0x0, symName: __ZNSt3__125__debug_db_invalidate_allB7v160006INS_6vectorIN5Catch5clara6detail3ArgENS_9allocatorIS5_EEEEEEvPT_, symObjAddr: 0x5D5E0, symBinAddr: 0x100061080, symSize: 0x10 }
  - { offsetInCU: 0xAA385, offset: 0xAA385, size: 0x8, addend: 0x0, symName: __ZNSt3__1neB7v160006IPN5Catch5clara6detail11HelpColumnsEEEbRKNS_11__wrap_iterIT_EESA_, symObjAddr: 0x5DE74, symBinAddr: 0x100061914, symSize: 0x34 }
  - { offsetInCU: 0xAA3CB, offset: 0xAA3CB, size: 0x8, addend: 0x0, symName: __ZNSt3__119__debug_db_insert_cB7v160006INS_6vectorIN5Catch5clara6detail11HelpColumnsENS_9allocatorIS5_EEEEEEvPT_, symObjAddr: 0x5E71C, symBinAddr: 0x1000621BC, symSize: 0x10 }
  - { offsetInCU: 0xAA3FE, offset: 0xAA3FE, size: 0x8, addend: 0x0, symName: __ZNSt3__122__make_exception_guardB7v160006INS_6vectorIN5Catch5clara6detail11HelpColumnsENS_9allocatorIS5_EEE16__destroy_vectorEEENS_28__exception_guard_exceptionsIT_EESB_, symObjAddr: 0x5EC90, symBinAddr: 0x100062730, symSize: 0x40 }
  - { offsetInCU: 0xAA435, offset: 0xAA435, size: 0x8, addend: 0x0, symName: __ZNSt3__119__allocate_at_leastB7v160006INS_9allocatorIN5Catch5clara6detail11HelpColumnsEEEEENS_19__allocation_resultINS_16allocator_traitsIT_E7pointerEEERS9_m, symObjAddr: 0x5EFD8, symBinAddr: 0x100062A78, symSize: 0x40 }
  - { offsetInCU: 0xAA47B, offset: 0xAA47B, size: 0x8, addend: 0x0, symName: __ZNSt3__112__to_addressB7v160006IN5Catch5clara6detail11HelpColumnsEEEPT_S6_, symObjAddr: 0x5F30C, symBinAddr: 0x100062DAC, symSize: 0x14 }
  - { offsetInCU: 0xAA4B1, offset: 0xAA4B1, size: 0x8, addend: 0x0, symName: __ZNSt3__130__uninitialized_allocator_copyB7v160006INS_9allocatorIN5Catch5clara6detail11HelpColumnsEEEPKS5_S8_PS5_EET2_RT_T0_T1_SA_, symObjAddr: 0x5F3BC, symBinAddr: 0x100062E5C, symSize: 0xF4 }
  - { offsetInCU: 0xAA550, offset: 0xAA550, size: 0x8, addend: 0x0, symName: __ZNSt3__122__make_exception_guardB7v160006INS_29_AllocatorDestroyRangeReverseINS_9allocatorIN5Catch5clara6detail11HelpColumnsEEEPS6_EEEENS_28__exception_guard_exceptionsIT_EESB_, symObjAddr: 0x5F528, symBinAddr: 0x100062FC8, symSize: 0x4C }
  - { offsetInCU: 0xAA5AF, offset: 0xAA5AF, size: 0x8, addend: 0x0, symName: __ZNSt3__112construct_atB7v160006IN5Catch5clara6detail11HelpColumnsEJRKS4_EPS4_EEPT_S9_DpOT0_, symObjAddr: 0x5F6CC, symBinAddr: 0x10006316C, symSize: 0x3C }
  - { offsetInCU: 0xAA626, offset: 0xAA626, size: 0x8, addend: 0x0, symName: __ZNSt3__119__allocator_destroyB7v160006INS_9allocatorIN5Catch5clara6detail11HelpColumnsEEENS_16reverse_iteratorIPS5_EES9_EEvRT_T0_T1_, symObjAddr: 0x5F864, symBinAddr: 0x100063304, symSize: 0x70 }
  - { offsetInCU: 0xAA68A, offset: 0xAA68A, size: 0x8, addend: 0x0, symName: __ZNSt3__1neB7v160006IPN5Catch5clara6detail11HelpColumnsES5_EEbRKNS_16reverse_iteratorIT_EERKNS6_IT0_EE, symObjAddr: 0x5F908, symBinAddr: 0x1000633A8, symSize: 0x48 }
  - { offsetInCU: 0xAA6D9, offset: 0xAA6D9, size: 0x8, addend: 0x0, symName: __ZNSt3__112__to_addressB7v160006INS_16reverse_iteratorIPN5Catch5clara6detail11HelpColumnsEEEvEENS_5decayIDTclsr19__to_address_helperIT_EE6__callclsr3stdE7declvalIRKS9_EEEEE4typeESB_, symObjAddr: 0x5F978, symBinAddr: 0x100063418, symSize: 0x24 }
  - { offsetInCU: 0xAA711, offset: 0xAA711, size: 0x8, addend: 0x0, symName: __ZNSt3__110destroy_atB7v160006IN5Catch5clara6detail11HelpColumnsELi0EEEvPT_, symObjAddr: 0x5F9D4, symBinAddr: 0x100063474, symSize: 0x24 }
  - { offsetInCU: 0xAA74B, offset: 0xAA74B, size: 0x8, addend: 0x0, symName: __ZNSt3__112__destroy_atB7v160006IN5Catch5clara6detail11HelpColumnsELi0EEEvPT_, symObjAddr: 0x5F9F8, symBinAddr: 0x100063498, symSize: 0x24 }
  - { offsetInCU: 0xAA7B0, offset: 0xAA7B0, size: 0x8, addend: 0x0, symName: __ZNSt3__14prevB7v160006IPN5Catch5clara6detail11HelpColumnsEEENS_9enable_ifIXsr25__is_cpp17_input_iteratorIT_EE5valueES7_E4typeES7_NS_15iterator_traitsIS7_E15difference_typeE, symObjAddr: 0x5FA80, symBinAddr: 0x100063520, symSize: 0x50 }
  - { offsetInCU: 0xAA7F6, offset: 0xAA7F6, size: 0x8, addend: 0x0, symName: __ZNSt3__19__advanceB7v160006IPN5Catch5clara6detail11HelpColumnsEEEvRT_NS_15iterator_traitsIS6_E15difference_typeENS_26random_access_iterator_tagE, symObjAddr: 0x5FB20, symBinAddr: 0x1000635C0, symSize: 0x30 }
  - { offsetInCU: 0xAA843, offset: 0xAA843, size: 0x8, addend: 0x0, symName: __ZNSt3__118__debug_db_erase_cB7v160006INS_6vectorIN5Catch5clara6detail11HelpColumnsENS_9allocatorIS5_EEEEEEvPT_, symObjAddr: 0x5FD58, symBinAddr: 0x1000637F8, symSize: 0x10 }
  - { offsetInCU: 0xAA876, offset: 0xAA876, size: 0x8, addend: 0x0, symName: __ZNSt3__1miB7v160006IPKN5Catch5clara6detail11HelpColumnsEPS4_EEDTmicldtfp_4baseEcldtfp0_4baseEERKNS_11__wrap_iterIT_EERKNS9_IT0_EE, symObjAddr: 0x5FF48, symBinAddr: 0x1000639E8, symSize: 0x48 }
  - { offsetInCU: 0xAA8C5, offset: 0xAA8C5, size: 0x8, addend: 0x0, symName: __ZNSt3__18distanceB7v160006INS_11__wrap_iterIPN5Catch5clara6detail11HelpColumnsEEEEENS_15iterator_traitsIT_E15difference_typeES9_S9_, symObjAddr: 0x5FF90, symBinAddr: 0x100063A30, symSize: 0x3C }
  - { offsetInCU: 0xAA90B, offset: 0xAA90B, size: 0x8, addend: 0x0, symName: __ZNSt3__14copyB7v160006INS_11__wrap_iterIPN5Catch5clara6detail11HelpColumnsEEES6_EET0_T_S9_S8_, symObjAddr: 0x601F4, symBinAddr: 0x100063C94, symSize: 0x50 }
  - { offsetInCU: 0xAA969, offset: 0xAA969, size: 0x8, addend: 0x0, symName: __ZNSt3__110__distanceB7v160006INS_11__wrap_iterIPN5Catch5clara6detail11HelpColumnsEEEEENS_15iterator_traitsIT_E15difference_typeES9_S9_NS_26random_access_iterator_tagE, symObjAddr: 0x60610, symBinAddr: 0x1000640B0, symSize: 0x30 }
  - { offsetInCU: 0xAA9BA, offset: 0xAA9BA, size: 0x8, addend: 0x0, symName: __ZNSt3__1miB7v160006IPN5Catch5clara6detail11HelpColumnsES5_EEDTmicldtfp_4baseEcldtfp0_4baseEERKNS_11__wrap_iterIT_EERKNS7_IT0_EE, symObjAddr: 0x60640, symBinAddr: 0x1000640E0, symSize: 0x48 }
  - { offsetInCU: 0xAAA09, offset: 0xAAA09, size: 0x8, addend: 0x0, symName: __ZNSt3__19__advanceB7v160006INS_11__wrap_iterIPN5Catch5clara6detail11HelpColumnsEEEEEvRT_NS_15iterator_traitsIS8_E15difference_typeENS_26random_access_iterator_tagE, symObjAddr: 0x60688, symBinAddr: 0x100064128, symSize: 0x2C }
  - { offsetInCU: 0xAAA55, offset: 0xAAA55, size: 0x8, addend: 0x0, symName: __ZNSt3__130__uninitialized_allocator_copyB7v160006INS_9allocatorIN5Catch5clara6detail11HelpColumnsEEENS_11__wrap_iterIPS5_EES9_S8_EET2_RT_T0_T1_SA_, symObjAddr: 0x606E4, symBinAddr: 0x100064184, symSize: 0xF8 }
  - { offsetInCU: 0xAAAF4, offset: 0xAAAF4, size: 0x8, addend: 0x0, symName: __ZNSt3__112construct_atB7v160006IN5Catch5clara6detail11HelpColumnsEJRS4_EPS4_EEPT_S8_DpOT0_, symObjAddr: 0x6080C, symBinAddr: 0x1000642AC, symSize: 0x3C }
  - { offsetInCU: 0xAAB6C, offset: 0xAAB6C, size: 0x8, addend: 0x0, symName: __ZNSt3__113move_backwardB7v160006IPN5Catch5clara6detail11HelpColumnsES5_EET0_T_S7_S6_, symObjAddr: 0x60878, symBinAddr: 0x100064318, symSize: 0x40 }
  - { offsetInCU: 0xAABCA, offset: 0xAABCA, size: 0x8, addend: 0x0, symName: __ZNSt3__112construct_atB7v160006IN5Catch5clara6detail11HelpColumnsEJS4_EPS4_EEPT_S7_DpOT0_, symObjAddr: 0x608B8, symBinAddr: 0x100064358, symSize: 0x3C }
  - { offsetInCU: 0xAAC42, offset: 0xAAC42, size: 0x8, addend: 0x0, symName: __ZNSt3__115__move_backwardB7v160006INS_17_ClassicAlgPolicyEPN5Catch5clara6detail11HelpColumnsES6_S6_EENS_4pairIT0_T2_EES8_T1_S9_, symObjAddr: 0x60970, symBinAddr: 0x100064410, symSize: 0x44 }
  - { offsetInCU: 0xAACB2, offset: 0xAACB2, size: 0x8, addend: 0x0, symName: __ZNSt3__123__dispatch_copy_or_moveB7v160006INS_17_ClassicAlgPolicyENS_20__move_backward_loopIS1_EENS_23__move_backward_trivialEPN5Catch5clara6detail11HelpColumnsES9_S9_EENS_4pairIT2_T4_EESB_T3_SC_, symObjAddr: 0x609B4, symBinAddr: 0x100064454, symSize: 0x44 }
  - { offsetInCU: 0xAAD34, offset: 0xAAD34, size: 0x8, addend: 0x0, symName: __ZNSt3__121__unwrap_and_dispatchB7v160006INS_10__overloadINS_20__move_backward_loopINS_17_ClassicAlgPolicyEEENS_23__move_backward_trivialEEEPN5Catch5clara6detail11HelpColumnsESB_SB_Li0EEENS_4pairIT0_T2_EESD_T1_SE_, symObjAddr: 0x609F8, symBinAddr: 0x100064498, symSize: 0xB4 }
  - { offsetInCU: 0xAADC9, offset: 0xAADC9, size: 0x8, addend: 0x0, symName: __ZNSt3__114__unwrap_rangeB7v160006IPN5Catch5clara6detail11HelpColumnsES5_EEDaT_T0_, symObjAddr: 0x60AAC, symBinAddr: 0x10006454C, symSize: 0x3C }
  - { offsetInCU: 0xAAF87, offset: 0xAAF87, size: 0x8, addend: 0x0, symName: __ZNSt3__113__unwrap_iterB7v160006IPN5Catch5clara6detail11HelpColumnsENS_18__unwrap_iter_implIS5_Lb1EEELi0EEEDTclsrT0_8__unwrapclsr3stdE7declvalIT_EEEES9_, symObjAddr: 0x60B8C, symBinAddr: 0x10006462C, symSize: 0x24 }
  - { offsetInCU: 0xAAFCD, offset: 0xAAFCD, size: 0x8, addend: 0x0, symName: __ZNSt3__19make_pairB7v160006IPN5Catch5clara6detail11HelpColumnsES5_EENS_4pairINS_18__unwrap_ref_decayIT_E4typeENS7_IT0_E4typeEEEOS8_OSB_, symObjAddr: 0x60BB0, symBinAddr: 0x100064650, symSize: 0x38 }
  - { offsetInCU: 0xAB01D, offset: 0xAB01D, size: 0x8, addend: 0x0, symName: __ZNSt3__114__rewrap_rangeB7v160006IPN5Catch5clara6detail11HelpColumnsES5_S5_EET0_S6_T1_, symObjAddr: 0x60BE8, symBinAddr: 0x100064688, symSize: 0x2C }
  - { offsetInCU: 0xAB075, offset: 0xAB075, size: 0x8, addend: 0x0, symName: __ZNSt3__113__rewrap_iterB7v160006IPN5Catch5clara6detail11HelpColumnsES5_NS_18__unwrap_iter_implIS5_Lb1EEEEET_S8_T0_, symObjAddr: 0x60C14, symBinAddr: 0x1000646B4, symSize: 0x3C }
  - { offsetInCU: 0xAB19F, offset: 0xAB19F, size: 0x8, addend: 0x0, symName: __ZNSt3__16__copyB7v160006INS_17_ClassicAlgPolicyENS_11__wrap_iterIPN5Catch5clara6detail11HelpColumnsEEES8_S7_EENS_4pairIT0_T2_EESA_T1_SB_, symObjAddr: 0x60E4C, symBinAddr: 0x1000648EC, symSize: 0x54 }
  - { offsetInCU: 0xAB20F, offset: 0xAB20F, size: 0x8, addend: 0x0, symName: __ZNSt3__123__dispatch_copy_or_moveB7v160006INS_17_ClassicAlgPolicyENS_11__copy_loopIS1_EENS_14__copy_trivialENS_11__wrap_iterIPN5Catch5clara6detail11HelpColumnsEEESB_SA_EENS_4pairIT2_T4_EESD_T3_SE_, symObjAddr: 0x60EA0, symBinAddr: 0x100064940, symSize: 0x54 }
  - { offsetInCU: 0xAB291, offset: 0xAB291, size: 0x8, addend: 0x0, symName: __ZNSt3__121__unwrap_and_dispatchB7v160006INS_10__overloadINS_11__copy_loopINS_17_ClassicAlgPolicyEEENS_14__copy_trivialEEENS_11__wrap_iterIPN5Catch5clara6detail11HelpColumnsEEESD_SC_Li0EEENS_4pairIT0_T2_EESF_T1_SG_, symObjAddr: 0x60EF4, symBinAddr: 0x100064994, symSize: 0xCC }
  - { offsetInCU: 0xAB326, offset: 0xAB326, size: 0x8, addend: 0x0, symName: __ZNSt3__114__unwrap_rangeB7v160006INS_11__wrap_iterIPN5Catch5clara6detail11HelpColumnsEEES7_EEDaT_T0_, symObjAddr: 0x60FC0, symBinAddr: 0x100064A60, symSize: 0x4C }
  - { offsetInCU: 0xAB548, offset: 0xAB548, size: 0x8, addend: 0x0, symName: __ZNSt3__19make_pairB7v160006INS_11__wrap_iterIPN5Catch5clara6detail11HelpColumnsEEES6_EENS_4pairINS_18__unwrap_ref_decayIT_E4typeENS9_IT0_E4typeEEEOSA_OSD_, symObjAddr: 0x61094, symBinAddr: 0x100064B34, symSize: 0x38 }
  - { offsetInCU: 0xAB598, offset: 0xAB598, size: 0x8, addend: 0x0, symName: __ZNSt3__114__rewrap_rangeB7v160006INS_11__wrap_iterIPN5Catch5clara6detail11HelpColumnsEEES7_S6_EET0_S8_T1_, symObjAddr: 0x610CC, symBinAddr: 0x100064B6C, symSize: 0x3C }
  - { offsetInCU: 0xAB643, offset: 0xAB643, size: 0x8, addend: 0x0, symName: __ZNSt3__113__unwrap_iterB7v160006INS_11__wrap_iterIPN5Catch5clara6detail11HelpColumnsEEENS_18__unwrap_iter_implIS7_Lb1EEELi0EEEDTclsrT0_8__unwrapclsr3stdE7declvalIT_EEEESB_, symObjAddr: 0x61170, symBinAddr: 0x100064C10, symSize: 0x2C }
  - { offsetInCU: 0xAB6E2, offset: 0xAB6E2, size: 0x8, addend: 0x0, symName: __ZNSt3__112__to_addressB7v160006INS_11__wrap_iterIPN5Catch5clara6detail11HelpColumnsEEEvEENS_5decayIDTclsr19__to_address_helperIT_EE6__callclsr3stdE7declvalIRKS9_EEEEE4typeESB_, symObjAddr: 0x611C4, symBinAddr: 0x100064C64, symSize: 0x24 }
  - { offsetInCU: 0xAB862, offset: 0xAB862, size: 0x8, addend: 0x0, symName: __ZNSt3__113__rewrap_iterB7v160006INS_11__wrap_iterIPN5Catch5clara6detail11HelpColumnsEEES6_NS_18__unwrap_iter_implIS7_Lb1EEEEET_SA_T0_, symObjAddr: 0x61338, symBinAddr: 0x100064DD8, symSize: 0x4C }
  - { offsetInCU: 0xAB8B9, offset: 0xAB8B9, size: 0x8, addend: 0x0, symName: __ZNSt3__142__uninitialized_allocator_move_if_noexceptB7v160006INS_9allocatorIN5Catch5clara6detail11HelpColumnsEEENS_16reverse_iteratorIPS5_EES9_S9_EET2_RT_T0_T1_SA_, symObjAddr: 0x61728, symBinAddr: 0x1000651C8, symSize: 0x124 }
  - { offsetInCU: 0xAB959, offset: 0xAB959, size: 0x8, addend: 0x0, symName: __ZNSt3__142__uninitialized_allocator_move_if_noexceptB7v160006INS_9allocatorIN5Catch5clara6detail11HelpColumnsEEEPS5_S7_S7_EET2_RT_T0_T1_S8_, symObjAddr: 0x6184C, symBinAddr: 0x1000652EC, symSize: 0xF4 }
  - { offsetInCU: 0xAB9F8, offset: 0xAB9F8, size: 0x8, addend: 0x0, symName: __ZNSt3__14swapB7v160006IPN5Catch5clara6detail11HelpColumnsEEENS_9enable_ifIXaasr21is_move_constructibleIT_EE5valuesr18is_move_assignableIS7_EE5valueEvE4typeERS7_SA_, symObjAddr: 0x61940, symBinAddr: 0x1000653E0, symSize: 0x3C }
  - { offsetInCU: 0xABA4D, offset: 0xABA4D, size: 0x8, addend: 0x0, symName: __ZNSt3__125__debug_db_invalidate_allB7v160006INS_6vectorIN5Catch5clara6detail11HelpColumnsENS_9allocatorIS5_EEEEEEvPT_, symObjAddr: 0x6197C, symBinAddr: 0x10006541C, symSize: 0x10 }
  - { offsetInCU: 0xABA80, offset: 0xABA80, size: 0x8, addend: 0x0, symName: __ZNSt3__122__make_exception_guardB7v160006INS_29_AllocatorDestroyRangeReverseINS_9allocatorIN5Catch5clara6detail11HelpColumnsEEENS_16reverse_iteratorIPS6_EEEEEENS_28__exception_guard_exceptionsIT_EESD_, symObjAddr: 0x6198C, symBinAddr: 0x10006542C, symSize: 0x4C }
  - { offsetInCU: 0xABAB7, offset: 0xABAB7, size: 0x8, addend: 0x0, symName: __ZNSt3__119__allocator_destroyB7v160006INS_9allocatorIN5Catch5clara6detail11HelpColumnsEEENS_16reverse_iteratorINS7_IPS5_EEEESA_EEvRT_T0_T1_, symObjAddr: 0x61C2C, symBinAddr: 0x1000656CC, symSize: 0x70 }
  - { offsetInCU: 0xABB1D, offset: 0xABB1D, size: 0x8, addend: 0x0, symName: __ZNSt3__1neB7v160006INS_16reverse_iteratorIPN5Catch5clara6detail11HelpColumnsEEES7_EEbRKNS1_IT_EERKNS1_IT0_EE, symObjAddr: 0x61CD8, symBinAddr: 0x100065778, symSize: 0x60 }
  - { offsetInCU: 0xABB6C, offset: 0xABB6C, size: 0x8, addend: 0x0, symName: __ZNSt3__112__to_addressB7v160006INS_16reverse_iteratorINS1_IPN5Catch5clara6detail11HelpColumnsEEEEEvEENS_5decayIDTclsr19__to_address_helperIT_EE6__callclsr3stdE7declvalIRKSA_EEEEE4typeESC_, symObjAddr: 0x61D38, symBinAddr: 0x1000657D8, symSize: 0x24 }
  - { offsetInCU: 0xABBCF, offset: 0xABBCF, size: 0x8, addend: 0x0, symName: __ZNSt3__14prevB7v160006INS_16reverse_iteratorIPN5Catch5clara6detail11HelpColumnsEEEEENS_9enable_ifIXsr25__is_cpp17_input_iteratorIT_EE5valueES9_E4typeES9_NS_15iterator_traitsIS9_E15difference_typeE, symObjAddr: 0x61E34, symBinAddr: 0x1000658D4, symSize: 0x60 }
  - { offsetInCU: 0xABC15, offset: 0xABC15, size: 0x8, addend: 0x0, symName: __ZNSt3__19__advanceB7v160006INS_16reverse_iteratorIPN5Catch5clara6detail11HelpColumnsEEEEEvRT_NS_15iterator_traitsIS8_E15difference_typeENS_26random_access_iterator_tagE, symObjAddr: 0x61EE4, symBinAddr: 0x100065984, symSize: 0x2C }
  - { offsetInCU: 0xABC62, offset: 0xABC62, size: 0x8, addend: 0x0, symName: __ZNSt3__1eqB7v160006IPN5Catch5clara6detail11HelpColumnsEEEbRKNS_11__wrap_iterIT_EESA_, symObjAddr: 0x62218, symBinAddr: 0x100065CB8, symSize: 0x48 }
  - { offsetInCU: 0xABCA8, offset: 0xABCA8, size: 0x8, addend: 0x0, symName: __ZNSt3__122__make_exception_guardB7v160006INS_6vectorIN5Catch5clara8TextFlow6ColumnENS_9allocatorIS5_EEE16__destroy_vectorEEENS_28__exception_guard_exceptionsIT_EESB_, symObjAddr: 0x624FC, symBinAddr: 0x100065F9C, symSize: 0x40 }
  - { offsetInCU: 0xABCDE, offset: 0xABCDE, size: 0x8, addend: 0x0, symName: __ZNSt3__130__uninitialized_allocator_copyB7v160006INS_9allocatorIN5Catch5clara8TextFlow6ColumnEEEPS5_S7_S7_EET2_RT_T0_T1_S8_, symObjAddr: 0x62778, symBinAddr: 0x100066218, symSize: 0xF4 }
  - { offsetInCU: 0xABD7D, offset: 0xABD7D, size: 0x8, addend: 0x0, symName: __ZNSt3__122__make_exception_guardB7v160006INS_29_AllocatorDestroyRangeReverseINS_9allocatorIN5Catch5clara8TextFlow6ColumnEEEPS6_EEEENS_28__exception_guard_exceptionsIT_EESB_, symObjAddr: 0x6286C, symBinAddr: 0x10006630C, symSize: 0x4C }
  - { offsetInCU: 0xABDB5, offset: 0xABDB5, size: 0x8, addend: 0x0, symName: __ZNSt3__112construct_atB7v160006IN5Catch5clara8TextFlow6ColumnEJRS4_EPS4_EEPT_S8_DpOT0_, symObjAddr: 0x62A10, symBinAddr: 0x1000664B0, symSize: 0x3C }
  - { offsetInCU: 0xABE2C, offset: 0xABE2C, size: 0x8, addend: 0x0, symName: __ZNSt3__119__allocator_destroyB7v160006INS_9allocatorIN5Catch5clara8TextFlow6ColumnEEENS_16reverse_iteratorIPS5_EES9_EEvRT_T0_T1_, symObjAddr: 0x62B04, symBinAddr: 0x1000665A4, symSize: 0x70 }
  - { offsetInCU: 0xABE90, offset: 0xABE90, size: 0x8, addend: 0x0, symName: __ZNSt3__122__make_exception_guardB7v160006INS_6vectorINS_12basic_stringIcNS_11char_traitsIcEENS_9allocatorIcEEEENS5_IS7_EEE16__destroy_vectorEEENS_28__exception_guard_exceptionsIT_EESC_, symObjAddr: 0x63170, symBinAddr: 0x100066C10, symSize: 0x40 }
  - { offsetInCU: 0xABEC7, offset: 0xABEC7, size: 0x8, addend: 0x0, symName: __ZNSt3__18distanceB7v160006IPKPKcEENS_15iterator_traitsIT_E15difference_typeES6_S6_, symObjAddr: 0x631E4, symBinAddr: 0x100066C84, symSize: 0x2C }
  - { offsetInCU: 0xABF0D, offset: 0xABF0D, size: 0x8, addend: 0x0, symName: __ZNSt3__110__distanceB7v160006IPKPKcEENS_15iterator_traitsIT_E15difference_typeES6_S6_NS_26random_access_iterator_tagE, symObjAddr: 0x6347C, symBinAddr: 0x100066F1C, symSize: 0x28 }
  - { offsetInCU: 0xABF5E, offset: 0xABF5E, size: 0x8, addend: 0x0, symName: __ZNSt3__119__allocate_at_leastB7v160006INS_9allocatorINS_12basic_stringIcNS_11char_traitsIcEENS1_IcEEEEEEEENS_19__allocation_resultINS_16allocator_traitsIT_E7pointerEEERSA_m, symObjAddr: 0x63520, symBinAddr: 0x100066FC0, symSize: 0x40 }
  - { offsetInCU: 0xABFA4, offset: 0xABFA4, size: 0x8, addend: 0x0, symName: __ZNSt3__112__to_addressB7v160006INS_12basic_stringIcNS_11char_traitsIcEENS_9allocatorIcEEEEEEPT_S8_, symObjAddr: 0x63794, symBinAddr: 0x100067234, symSize: 0x14 }
  - { offsetInCU: 0xABFDA, offset: 0xABFDA, size: 0x8, addend: 0x0, symName: __ZNSt3__130__uninitialized_allocator_copyB7v160006INS_9allocatorINS_12basic_stringIcNS_11char_traitsIcEENS1_IcEEEEEEPKPKcSB_PS6_EET2_RT_T0_T1_SD_, symObjAddr: 0x63844, symBinAddr: 0x1000672E4, symSize: 0xF4 }
  - { offsetInCU: 0xAC079, offset: 0xAC079, size: 0x8, addend: 0x0, symName: __ZNSt3__122__make_exception_guardB7v160006INS_29_AllocatorDestroyRangeReverseINS_9allocatorINS_12basic_stringIcNS_11char_traitsIcEENS2_IcEEEEEEPS7_EEEENS_28__exception_guard_exceptionsIT_EESC_, symObjAddr: 0x639B0, symBinAddr: 0x100067450, symSize: 0x4C }
  - { offsetInCU: 0xAC0B1, offset: 0xAC0B1, size: 0x8, addend: 0x0, symName: __ZNSt3__112construct_atB7v160006INS_12basic_stringIcNS_11char_traitsIcEENS_9allocatorIcEEEEJRKPKcEPS6_EEPT_SD_DpOT0_, symObjAddr: 0x63B54, symBinAddr: 0x1000675F4, symSize: 0x40 }
  - { offsetInCU: 0xAC128, offset: 0xAC128, size: 0x8, addend: 0x0, symName: __ZNSt3__119__allocator_destroyB7v160006INS_9allocatorINS_12basic_stringIcNS_11char_traitsIcEENS1_IcEEEEEENS_16reverse_iteratorIPS6_EESA_EEvRT_T0_T1_, symObjAddr: 0x63C4C, symBinAddr: 0x1000676EC, symSize: 0x70 }
  - { offsetInCU: 0xAC18C, offset: 0xAC18C, size: 0x8, addend: 0x0, symName: __ZNSt3__1neB7v160006IPNS_12basic_stringIcNS_11char_traitsIcEENS_9allocatorIcEEEES7_EEbRKNS_16reverse_iteratorIT_EERKNS8_IT0_EE, symObjAddr: 0x63CF0, symBinAddr: 0x100067790, symSize: 0x48 }
  - { offsetInCU: 0xAC1DB, offset: 0xAC1DB, size: 0x8, addend: 0x0, symName: __ZNSt3__112__to_addressB7v160006INS_16reverse_iteratorIPNS_12basic_stringIcNS_11char_traitsIcEENS_9allocatorIcEEEEEEvEENS_5decayIDTclsr19__to_address_helperIT_EE6__callclsr3stdE7declvalIRKSB_EEEEE4typeESD_, symObjAddr: 0x63D38, symBinAddr: 0x1000677D8, symSize: 0x24 }
  - { offsetInCU: 0xAC23E, offset: 0xAC23E, size: 0x8, addend: 0x0, symName: __ZNSt3__14prevB7v160006IPNS_12basic_stringIcNS_11char_traitsIcEENS_9allocatorIcEEEEEENS_9enable_ifIXsr25__is_cpp17_input_iteratorIT_EE5valueES9_E4typeES9_NS_15iterator_traitsIS9_E15difference_typeE, symObjAddr: 0x63DF8, symBinAddr: 0x100067898, symSize: 0x50 }
  - { offsetInCU: 0xAC284, offset: 0xAC284, size: 0x8, addend: 0x0, symName: __ZNSt3__19__advanceB7v160006IPNS_12basic_stringIcNS_11char_traitsIcEENS_9allocatorIcEEEEEEvRT_NS_15iterator_traitsIS8_E15difference_typeENS_26random_access_iterator_tagE, symObjAddr: 0x63E98, symBinAddr: 0x100067938, symSize: 0x30 }
  - { offsetInCU: 0xAC2D1, offset: 0xAC2D1, size: 0x8, addend: 0x0, symName: __ZNSt3__118__debug_db_erase_cB7v160006INS_6vectorINS_12basic_stringIcNS_11char_traitsIcEENS_9allocatorIcEEEENS5_IS7_EEEEEEvPT_, symObjAddr: 0x640D0, symBinAddr: 0x100067B70, symSize: 0x10 }
  - { offsetInCU: 0xAC304, offset: 0xAC304, size: 0x8, addend: 0x0, symName: __ZNSt3__18distanceB7v160006IPNS_12basic_stringIcNS_11char_traitsIcEENS_9allocatorIcEEEEEENS_15iterator_traitsIT_E15difference_typeES9_S9_, symObjAddr: 0x644B0, symBinAddr: 0x100067F50, symSize: 0x2C }
  - { offsetInCU: 0xAC34A, offset: 0xAC34A, size: 0x8, addend: 0x0, symName: __ZNSt3__14copyB7v160006IPNS_12basic_stringIcNS_11char_traitsIcEENS_9allocatorIcEEEES7_EET0_T_S9_S8_, symObjAddr: 0x6452C, symBinAddr: 0x100067FCC, symSize: 0x40 }
  - { offsetInCU: 0xAC3A8, offset: 0xAC3A8, size: 0x8, addend: 0x0, symName: __ZNSt3__125__debug_db_invalidate_allB7v160006INS_6vectorINS_12basic_stringIcNS_11char_traitsIcEENS_9allocatorIcEEEENS5_IS7_EEEEEEvPT_, symObjAddr: 0x64798, symBinAddr: 0x100068238, symSize: 0x10 }
  - { offsetInCU: 0xAC3DB, offset: 0xAC3DB, size: 0x8, addend: 0x0, symName: __ZNSt3__110__distanceB7v160006IPNS_12basic_stringIcNS_11char_traitsIcEENS_9allocatorIcEEEEEENS_15iterator_traitsIT_E15difference_typeES9_S9_NS_26random_access_iterator_tagE, symObjAddr: 0x647A8, symBinAddr: 0x100068248, symSize: 0x28 }
  - { offsetInCU: 0xAC42C, offset: 0xAC42C, size: 0x8, addend: 0x0, symName: __ZNSt3__16__copyB7v160006INS_17_ClassicAlgPolicyEPNS_12basic_stringIcNS_11char_traitsIcEENS_9allocatorIcEEEES8_S8_EENS_4pairIT0_T2_EESA_T1_SB_, symObjAddr: 0x647D0, symBinAddr: 0x100068270, symSize: 0x44 }
  - { offsetInCU: 0xAC49C, offset: 0xAC49C, size: 0x8, addend: 0x0, symName: __ZNSt3__123__dispatch_copy_or_moveB7v160006INS_17_ClassicAlgPolicyENS_11__copy_loopIS1_EENS_14__copy_trivialEPNS_12basic_stringIcNS_11char_traitsIcEENS_9allocatorIcEEEESB_SB_EENS_4pairIT2_T4_EESD_T3_SE_, symObjAddr: 0x64814, symBinAddr: 0x1000682B4, symSize: 0x44 }
  - { offsetInCU: 0xAC51E, offset: 0xAC51E, size: 0x8, addend: 0x0, symName: __ZNSt3__121__unwrap_and_dispatchB7v160006INS_10__overloadINS_11__copy_loopINS_17_ClassicAlgPolicyEEENS_14__copy_trivialEEEPNS_12basic_stringIcNS_11char_traitsIcEENS_9allocatorIcEEEESD_SD_Li0EEENS_4pairIT0_T2_EESF_T1_SG_, symObjAddr: 0x64858, symBinAddr: 0x1000682F8, symSize: 0xB4 }
  - { offsetInCU: 0xAC5B3, offset: 0xAC5B3, size: 0x8, addend: 0x0, symName: __ZNSt3__114__unwrap_rangeB7v160006IPNS_12basic_stringIcNS_11char_traitsIcEENS_9allocatorIcEEEES7_EEDaT_T0_, symObjAddr: 0x6490C, symBinAddr: 0x1000683AC, symSize: 0x3C }
  - { offsetInCU: 0xAC6DD, offset: 0xAC6DD, size: 0x8, addend: 0x0, symName: __ZNSt3__113__unwrap_iterB7v160006IPNS_12basic_stringIcNS_11char_traitsIcEENS_9allocatorIcEEEENS_18__unwrap_iter_implIS7_Lb1EEELi0EEEDTclsrT0_8__unwrapclsr3stdE7declvalIT_EEEESB_, symObjAddr: 0x649D0, symBinAddr: 0x100068470, symSize: 0x24 }
  - { offsetInCU: 0xAC723, offset: 0xAC723, size: 0x8, addend: 0x0, symName: __ZNSt3__19make_pairB7v160006IPNS_12basic_stringIcNS_11char_traitsIcEENS_9allocatorIcEEEES7_EENS_4pairINS_18__unwrap_ref_decayIT_E4typeENS9_IT0_E4typeEEEOSA_OSD_, symObjAddr: 0x649F4, symBinAddr: 0x100068494, symSize: 0x38 }
  - { offsetInCU: 0xAC773, offset: 0xAC773, size: 0x8, addend: 0x0, symName: __ZNSt3__114__rewrap_rangeB7v160006IPNS_12basic_stringIcNS_11char_traitsIcEENS_9allocatorIcEEEES7_S7_EET0_S8_T1_, symObjAddr: 0x64A2C, symBinAddr: 0x1000684CC, symSize: 0x2C }
  - { offsetInCU: 0xAC7CB, offset: 0xAC7CB, size: 0x8, addend: 0x0, symName: __ZNSt3__113__rewrap_iterB7v160006IPNS_12basic_stringIcNS_11char_traitsIcEENS_9allocatorIcEEEES7_NS_18__unwrap_iter_implIS7_Lb1EEEEET_SA_T0_, symObjAddr: 0x64A58, symBinAddr: 0x1000684F8, symSize: 0x3C }
  - { offsetInCU: 0xAC8CD, offset: 0xAC8CD, size: 0x8, addend: 0x0, symName: __ZNSt3__130__uninitialized_allocator_copyB7v160006INS_9allocatorINS_12basic_stringIcNS_11char_traitsIcEENS1_IcEEEEEEPS6_S8_S8_EET2_RT_T0_T1_S9_, symObjAddr: 0x64C04, symBinAddr: 0x1000686A4, symSize: 0xF4 }
  - { offsetInCU: 0xAC96C, offset: 0xAC96C, size: 0x8, addend: 0x0, symName: __ZNSt3__112construct_atB7v160006INS_12basic_stringIcNS_11char_traitsIcEENS_9allocatorIcEEEEJRS6_EPS6_EEPT_SA_DpOT0_, symObjAddr: 0x64D28, symBinAddr: 0x1000687C8, symSize: 0x3C }
  - { offsetInCU: 0xAC9E4, offset: 0xAC9E4, size: 0x8, addend: 0x0, symName: __ZNSt3__18distanceB7v160006IPN5Catch5clara6detail3OptEEENS_15iterator_traitsIT_E15difference_typeES7_S7_, symObjAddr: 0x6534C, symBinAddr: 0x100068DEC, symSize: 0x2C }
  - { offsetInCU: 0xACA2A, offset: 0xACA2A, size: 0x8, addend: 0x0, symName: __ZNSt3__14copyB7v160006IPN5Catch5clara6detail3OptES5_EET0_T_S7_S6_, symObjAddr: 0x653C8, symBinAddr: 0x100068E68, symSize: 0x40 }
  - { offsetInCU: 0xACA88, offset: 0xACA88, size: 0x8, addend: 0x0, symName: __ZNSt3__110__distanceB7v160006IPN5Catch5clara6detail3OptEEENS_15iterator_traitsIT_E15difference_typeES7_S7_NS_26random_access_iterator_tagE, symObjAddr: 0x6565C, symBinAddr: 0x1000690FC, symSize: 0x28 }
  - { offsetInCU: 0xACAD9, offset: 0xACAD9, size: 0x8, addend: 0x0, symName: __ZNSt3__19__advanceB7v160006IPN5Catch5clara6detail3OptEEEvRT_NS_15iterator_traitsIS6_E15difference_typeENS_26random_access_iterator_tagE, symObjAddr: 0x65684, symBinAddr: 0x100069124, symSize: 0x30 }
  - { offsetInCU: 0xACB26, offset: 0xACB26, size: 0x8, addend: 0x0, symName: __ZNSt3__16__copyB7v160006INS_17_ClassicAlgPolicyEPN5Catch5clara6detail3OptES6_S6_EENS_4pairIT0_T2_EES8_T1_S9_, symObjAddr: 0x656B4, symBinAddr: 0x100069154, symSize: 0x44 }
  - { offsetInCU: 0xACB96, offset: 0xACB96, size: 0x8, addend: 0x0, symName: __ZNSt3__123__dispatch_copy_or_moveB7v160006INS_17_ClassicAlgPolicyENS_11__copy_loopIS1_EENS_14__copy_trivialEPN5Catch5clara6detail3OptES9_S9_EENS_4pairIT2_T4_EESB_T3_SC_, symObjAddr: 0x656F8, symBinAddr: 0x100069198, symSize: 0x44 }
  - { offsetInCU: 0xACC18, offset: 0xACC18, size: 0x8, addend: 0x0, symName: __ZNSt3__121__unwrap_and_dispatchB7v160006INS_10__overloadINS_11__copy_loopINS_17_ClassicAlgPolicyEEENS_14__copy_trivialEEEPN5Catch5clara6detail3OptESB_SB_Li0EEENS_4pairIT0_T2_EESD_T1_SE_, symObjAddr: 0x6573C, symBinAddr: 0x1000691DC, symSize: 0xB4 }
  - { offsetInCU: 0xACCAD, offset: 0xACCAD, size: 0x8, addend: 0x0, symName: __ZNSt3__114__unwrap_rangeB7v160006IPN5Catch5clara6detail3OptES5_EEDaT_T0_, symObjAddr: 0x657F0, symBinAddr: 0x100069290, symSize: 0x3C }
  - { offsetInCU: 0xACDD7, offset: 0xACDD7, size: 0x8, addend: 0x0, symName: __ZNSt3__113__unwrap_iterB7v160006IPN5Catch5clara6detail3OptENS_18__unwrap_iter_implIS5_Lb1EEELi0EEEDTclsrT0_8__unwrapclsr3stdE7declvalIT_EEEES9_, symObjAddr: 0x658B4, symBinAddr: 0x100069354, symSize: 0x24 }
  - { offsetInCU: 0xACE1D, offset: 0xACE1D, size: 0x8, addend: 0x0, symName: __ZNSt3__19make_pairB7v160006IPN5Catch5clara6detail3OptES5_EENS_4pairINS_18__unwrap_ref_decayIT_E4typeENS7_IT0_E4typeEEEOS8_OSB_, symObjAddr: 0x658D8, symBinAddr: 0x100069378, symSize: 0x38 }
  - { offsetInCU: 0xACE6D, offset: 0xACE6D, size: 0x8, addend: 0x0, symName: __ZNSt3__114__rewrap_rangeB7v160006IPN5Catch5clara6detail3OptES5_S5_EET0_S6_T1_, symObjAddr: 0x65910, symBinAddr: 0x1000693B0, symSize: 0x2C }
  - { offsetInCU: 0xACEC5, offset: 0xACEC5, size: 0x8, addend: 0x0, symName: __ZNSt3__113__rewrap_iterB7v160006IPN5Catch5clara6detail3OptES5_NS_18__unwrap_iter_implIS5_Lb1EEEEET_S8_T0_, symObjAddr: 0x6593C, symBinAddr: 0x1000693DC, symSize: 0x3C }
  - { offsetInCU: 0xACF70, offset: 0xACF70, size: 0x8, addend: 0x0, symName: __ZNSt3__14swapB7v160006IPN5Catch5clara6detail8BoundRefEEENS_9enable_ifIXaasr21is_move_constructibleIT_EE5valuesr18is_move_assignableIS7_EE5valueEvE4typeERS7_SA_, symObjAddr: 0x65BCC, symBinAddr: 0x10006966C, symSize: 0x3C }
  - { offsetInCU: 0xAD01C, offset: 0xAD01C, size: 0x8, addend: 0x0, symName: __ZNSt3__130__uninitialized_allocator_copyB7v160006INS_9allocatorIN5Catch5clara6detail3OptEEEPS5_S7_S7_EET2_RT_T0_T1_S8_, symObjAddr: 0x65CEC, symBinAddr: 0x10006978C, symSize: 0xF4 }
  - { offsetInCU: 0xAD0BB, offset: 0xAD0BB, size: 0x8, addend: 0x0, symName: __ZNSt3__122__make_exception_guardB7v160006INS_29_AllocatorDestroyRangeReverseINS_9allocatorIN5Catch5clara6detail3OptEEEPS6_EEEENS_28__exception_guard_exceptionsIT_EESB_, symObjAddr: 0x65E58, symBinAddr: 0x1000698F8, symSize: 0x4C }
  - { offsetInCU: 0xAD11A, offset: 0xAD11A, size: 0x8, addend: 0x0, symName: __ZNSt3__112construct_atB7v160006IN5Catch5clara6detail3OptEJRS4_EPS4_EEPT_S8_DpOT0_, symObjAddr: 0x65FFC, symBinAddr: 0x100069A9C, symSize: 0x3C }
  - { offsetInCU: 0xAD191, offset: 0xAD191, size: 0x8, addend: 0x0, symName: __ZNSt3__119__allocator_destroyB7v160006INS_9allocatorIN5Catch5clara6detail3OptEEENS_16reverse_iteratorIPS5_EES9_EEvRT_T0_T1_, symObjAddr: 0x6630C, symBinAddr: 0x100069DAC, symSize: 0x70 }
  - { offsetInCU: 0xAD1F5, offset: 0xAD1F5, size: 0x8, addend: 0x0, symName: __ZNSt3__1neB7v160006IPN5Catch5clara6detail3OptES5_EEbRKNS_16reverse_iteratorIT_EERKNS6_IT0_EE, symObjAddr: 0x663B0, symBinAddr: 0x100069E50, symSize: 0x48 }
  - { offsetInCU: 0xAD244, offset: 0xAD244, size: 0x8, addend: 0x0, symName: __ZNSt3__112__to_addressB7v160006INS_16reverse_iteratorIPN5Catch5clara6detail3OptEEEvEENS_5decayIDTclsr19__to_address_helperIT_EE6__callclsr3stdE7declvalIRKS9_EEEEE4typeESB_, symObjAddr: 0x663F8, symBinAddr: 0x100069E98, symSize: 0x24 }
  - { offsetInCU: 0xAD2A7, offset: 0xAD2A7, size: 0x8, addend: 0x0, symName: __ZNSt3__14prevB7v160006IPN5Catch5clara6detail3OptEEENS_9enable_ifIXsr25__is_cpp17_input_iteratorIT_EE5valueES7_E4typeES7_NS_15iterator_traitsIS7_E15difference_typeE, symObjAddr: 0x664B8, symBinAddr: 0x100069F58, symSize: 0x50 }
  - { offsetInCU: 0xAD2ED, offset: 0xAD2ED, size: 0x8, addend: 0x0, symName: __ZNSt3__119__allocate_at_leastB7v160006INS_9allocatorIN5Catch5clara6detail3OptEEEEENS_19__allocation_resultINS_16allocator_traitsIT_E7pointerEEERS9_m, symObjAddr: 0x66630, symBinAddr: 0x10006A0D0, symSize: 0x40 }
  - { offsetInCU: 0xAD333, offset: 0xAD333, size: 0x8, addend: 0x0, symName: __ZNSt3__18distanceB7v160006IPN5Catch5clara6detail3ArgEEENS_15iterator_traitsIT_E15difference_typeES7_S7_, symObjAddr: 0x669D8, symBinAddr: 0x10006A478, symSize: 0x2C }
  - { offsetInCU: 0xAD379, offset: 0xAD379, size: 0x8, addend: 0x0, symName: __ZNSt3__14copyB7v160006IPN5Catch5clara6detail3ArgES5_EET0_T_S7_S6_, symObjAddr: 0x66A54, symBinAddr: 0x10006A4F4, symSize: 0x40 }
  - { offsetInCU: 0xAD3D7, offset: 0xAD3D7, size: 0x8, addend: 0x0, symName: __ZNSt3__110__distanceB7v160006IPN5Catch5clara6detail3ArgEEENS_15iterator_traitsIT_E15difference_typeES7_S7_NS_26random_access_iterator_tagE, symObjAddr: 0x66CE8, symBinAddr: 0x10006A788, symSize: 0x28 }
  - { offsetInCU: 0xAD428, offset: 0xAD428, size: 0x8, addend: 0x0, symName: __ZNSt3__19__advanceB7v160006IPN5Catch5clara6detail3ArgEEEvRT_NS_15iterator_traitsIS6_E15difference_typeENS_26random_access_iterator_tagE, symObjAddr: 0x66D10, symBinAddr: 0x10006A7B0, symSize: 0x30 }
  - { offsetInCU: 0xAD475, offset: 0xAD475, size: 0x8, addend: 0x0, symName: __ZNSt3__16__copyB7v160006INS_17_ClassicAlgPolicyEPN5Catch5clara6detail3ArgES6_S6_EENS_4pairIT0_T2_EES8_T1_S9_, symObjAddr: 0x66D40, symBinAddr: 0x10006A7E0, symSize: 0x44 }
  - { offsetInCU: 0xAD4E5, offset: 0xAD4E5, size: 0x8, addend: 0x0, symName: __ZNSt3__123__dispatch_copy_or_moveB7v160006INS_17_ClassicAlgPolicyENS_11__copy_loopIS1_EENS_14__copy_trivialEPN5Catch5clara6detail3ArgES9_S9_EENS_4pairIT2_T4_EESB_T3_SC_, symObjAddr: 0x66D84, symBinAddr: 0x10006A824, symSize: 0x44 }
  - { offsetInCU: 0xAD567, offset: 0xAD567, size: 0x8, addend: 0x0, symName: __ZNSt3__121__unwrap_and_dispatchB7v160006INS_10__overloadINS_11__copy_loopINS_17_ClassicAlgPolicyEEENS_14__copy_trivialEEEPN5Catch5clara6detail3ArgESB_SB_Li0EEENS_4pairIT0_T2_EESD_T1_SE_, symObjAddr: 0x66DC8, symBinAddr: 0x10006A868, symSize: 0xB4 }
  - { offsetInCU: 0xAD5FC, offset: 0xAD5FC, size: 0x8, addend: 0x0, symName: __ZNSt3__114__unwrap_rangeB7v160006IPN5Catch5clara6detail3ArgES5_EEDaT_T0_, symObjAddr: 0x66E7C, symBinAddr: 0x10006A91C, symSize: 0x3C }
  - { offsetInCU: 0xAD726, offset: 0xAD726, size: 0x8, addend: 0x0, symName: __ZNSt3__113__unwrap_iterB7v160006IPN5Catch5clara6detail3ArgENS_18__unwrap_iter_implIS5_Lb1EEELi0EEEDTclsrT0_8__unwrapclsr3stdE7declvalIT_EEEES9_, symObjAddr: 0x66F40, symBinAddr: 0x10006A9E0, symSize: 0x24 }
  - { offsetInCU: 0xAD76C, offset: 0xAD76C, size: 0x8, addend: 0x0, symName: __ZNSt3__19make_pairB7v160006IPN5Catch5clara6detail3ArgES5_EENS_4pairINS_18__unwrap_ref_decayIT_E4typeENS7_IT0_E4typeEEEOS8_OSB_, symObjAddr: 0x66F64, symBinAddr: 0x10006AA04, symSize: 0x38 }
  - { offsetInCU: 0xAD7BC, offset: 0xAD7BC, size: 0x8, addend: 0x0, symName: __ZNSt3__114__rewrap_rangeB7v160006IPN5Catch5clara6detail3ArgES5_S5_EET0_S6_T1_, symObjAddr: 0x66F9C, symBinAddr: 0x10006AA3C, symSize: 0x2C }
  - { offsetInCU: 0xAD814, offset: 0xAD814, size: 0x8, addend: 0x0, symName: __ZNSt3__113__rewrap_iterB7v160006IPN5Catch5clara6detail3ArgES5_NS_18__unwrap_iter_implIS5_Lb1EEEEET_S8_T0_, symObjAddr: 0x66FC8, symBinAddr: 0x10006AA68, symSize: 0x3C }
  - { offsetInCU: 0xAD916, offset: 0xAD916, size: 0x8, addend: 0x0, symName: __ZNSt3__130__uninitialized_allocator_copyB7v160006INS_9allocatorIN5Catch5clara6detail3ArgEEEPS5_S7_S7_EET2_RT_T0_T1_S8_, symObjAddr: 0x67294, symBinAddr: 0x10006AD34, symSize: 0xF4 }
  - { offsetInCU: 0xAD9B5, offset: 0xAD9B5, size: 0x8, addend: 0x0, symName: __ZNSt3__122__make_exception_guardB7v160006INS_29_AllocatorDestroyRangeReverseINS_9allocatorIN5Catch5clara6detail3ArgEEEPS6_EEEENS_28__exception_guard_exceptionsIT_EESB_, symObjAddr: 0x67400, symBinAddr: 0x10006AEA0, symSize: 0x4C }
  - { offsetInCU: 0xADA14, offset: 0xADA14, size: 0x8, addend: 0x0, symName: __ZNSt3__112construct_atB7v160006IN5Catch5clara6detail3ArgEJRS4_EPS4_EEPT_S8_DpOT0_, symObjAddr: 0x675A4, symBinAddr: 0x10006B044, symSize: 0x3C }
  - { offsetInCU: 0xADA8B, offset: 0xADA8B, size: 0x8, addend: 0x0, symName: __ZNSt3__119__allocator_destroyB7v160006INS_9allocatorIN5Catch5clara6detail3ArgEEENS_16reverse_iteratorIPS5_EES9_EEvRT_T0_T1_, symObjAddr: 0x67850, symBinAddr: 0x10006B2F0, symSize: 0x70 }
  - { offsetInCU: 0xADAEF, offset: 0xADAEF, size: 0x8, addend: 0x0, symName: __ZNSt3__1neB7v160006IPN5Catch5clara6detail3ArgES5_EEbRKNS_16reverse_iteratorIT_EERKNS6_IT0_EE, symObjAddr: 0x678F4, symBinAddr: 0x10006B394, symSize: 0x48 }
  - { offsetInCU: 0xADB3E, offset: 0xADB3E, size: 0x8, addend: 0x0, symName: __ZNSt3__112__to_addressB7v160006INS_16reverse_iteratorIPN5Catch5clara6detail3ArgEEEvEENS_5decayIDTclsr19__to_address_helperIT_EE6__callclsr3stdE7declvalIRKS9_EEEEE4typeESB_, symObjAddr: 0x6793C, symBinAddr: 0x10006B3DC, symSize: 0x24 }
  - { offsetInCU: 0xADBA1, offset: 0xADBA1, size: 0x8, addend: 0x0, symName: __ZNSt3__14prevB7v160006IPN5Catch5clara6detail3ArgEEENS_9enable_ifIXsr25__is_cpp17_input_iteratorIT_EE5valueES7_E4typeES7_NS_15iterator_traitsIS7_E15difference_typeE, symObjAddr: 0x679FC, symBinAddr: 0x10006B49C, symSize: 0x50 }
  - { offsetInCU: 0xADBE7, offset: 0xADBE7, size: 0x8, addend: 0x0, symName: __ZNSt3__119__allocate_at_leastB7v160006INS_9allocatorIN5Catch5clara6detail3ArgEEEEENS_19__allocation_resultINS_16allocator_traitsIT_E7pointerEEERS9_m, symObjAddr: 0x67B74, symBinAddr: 0x10006B614, symSize: 0x40 }
  - { offsetInCU: 0xADC2D, offset: 0xADC2D, size: 0x8, addend: 0x0, symName: __ZNSt3__112construct_atB7v160006INS_12basic_stringIcNS_11char_traitsIcEENS_9allocatorIcEEEEJS6_EPS6_EEPT_S9_DpOT0_, symObjAddr: 0x67F98, symBinAddr: 0x10006BA38, symSize: 0x3C }
  - { offsetInCU: 0xADCA4, offset: 0xADCA4, size: 0x8, addend: 0x0, symName: __ZNSt3__142__uninitialized_allocator_move_if_noexceptB7v160006INS_9allocatorINS_12basic_stringIcNS_11char_traitsIcEENS1_IcEEEEEENS_16reverse_iteratorIPS6_EESA_SA_EET2_RT_T0_T1_SB_, symObjAddr: 0x68394, symBinAddr: 0x10006BE34, symSize: 0x124 }
  - { offsetInCU: 0xADD45, offset: 0xADD45, size: 0x8, addend: 0x0, symName: __ZNSt3__122__make_exception_guardB7v160006INS_29_AllocatorDestroyRangeReverseINS_9allocatorINS_12basic_stringIcNS_11char_traitsIcEENS2_IcEEEEEENS_16reverse_iteratorIPS7_EEEEEENS_28__exception_guard_exceptionsIT_EESE_, symObjAddr: 0x684B8, symBinAddr: 0x10006BF58, symSize: 0x4C }
  - { offsetInCU: 0xADD7C, offset: 0xADD7C, size: 0x8, addend: 0x0, symName: __ZNSt3__119__allocator_destroyB7v160006INS_9allocatorINS_12basic_stringIcNS_11char_traitsIcEENS1_IcEEEEEENS_16reverse_iteratorINS8_IPS6_EEEESB_EEvRT_T0_T1_, symObjAddr: 0x68758, symBinAddr: 0x10006C1F8, symSize: 0x70 }
  - { offsetInCU: 0xADDE2, offset: 0xADDE2, size: 0x8, addend: 0x0, symName: __ZNSt3__1neB7v160006INS_16reverse_iteratorIPNS_12basic_stringIcNS_11char_traitsIcEENS_9allocatorIcEEEEEES9_EEbRKNS1_IT_EERKNS1_IT0_EE, symObjAddr: 0x68804, symBinAddr: 0x10006C2A4, symSize: 0x60 }
  - { offsetInCU: 0xADE31, offset: 0xADE31, size: 0x8, addend: 0x0, symName: __ZNSt3__112__to_addressB7v160006INS_16reverse_iteratorINS1_IPNS_12basic_stringIcNS_11char_traitsIcEENS_9allocatorIcEEEEEEEEvEENS_5decayIDTclsr19__to_address_helperIT_EE6__callclsr3stdE7declvalIRKSC_EEEEE4typeESE_, symObjAddr: 0x68864, symBinAddr: 0x10006C304, symSize: 0x24 }
  - { offsetInCU: 0xADE94, offset: 0xADE94, size: 0x8, addend: 0x0, symName: __ZNSt3__14prevB7v160006INS_16reverse_iteratorIPNS_12basic_stringIcNS_11char_traitsIcEENS_9allocatorIcEEEEEEEENS_9enable_ifIXsr25__is_cpp17_input_iteratorIT_EE5valueESB_E4typeESB_NS_15iterator_traitsISB_E15difference_typeE, symObjAddr: 0x68960, symBinAddr: 0x10006C400, symSize: 0x60 }
  - { offsetInCU: 0xADEDA, offset: 0xADEDA, size: 0x8, addend: 0x0, symName: __ZNSt3__19__advanceB7v160006INS_16reverse_iteratorIPNS_12basic_stringIcNS_11char_traitsIcEENS_9allocatorIcEEEEEEEEvRT_NS_15iterator_traitsISA_E15difference_typeENS_26random_access_iterator_tagE, symObjAddr: 0x68A10, symBinAddr: 0x10006C4B0, symSize: 0x2C }
  - { offsetInCU: 0xADF27, offset: 0xADF27, size: 0x8, addend: 0x0, symName: __ZNSt3__13minB7v160006IiNS_6__lessIiiEEEERKT_S5_S5_T0_, symObjAddr: 0x68CA4, symBinAddr: 0x10006C744, symSize: 0x54 }
  - { offsetInCU: 0xADFC2, offset: 0xADFC2, size: 0x8, addend: 0x0, symName: __ZNSt3__1neB7v160006IPN5Catch8TestSpec11FilterMatchEEEbRKNS_11__wrap_iterIT_EES9_, symObjAddr: 0x694E8, symBinAddr: 0x10006CF88, symSize: 0x34 }
  - { offsetInCU: 0xAE008, offset: 0xAE008, size: 0x8, addend: 0x0, symName: __ZNSt3__1neB7v160006IPKNS_10shared_ptrIN5Catch16IReporterFactoryEEEEEbRKNS_11__wrap_iterIT_EESB_, symObjAddr: 0x698F8, symBinAddr: 0x10006D398, symSize: 0x34 }
  - { offsetInCU: 0xAE04E, offset: 0xAE04E, size: 0x8, addend: 0x0, symName: __ZNSt3__1eqB7v160006IPKNS_10shared_ptrIN5Catch16IReporterFactoryEEEEEbRKNS_11__wrap_iterIT_EESB_, symObjAddr: 0x69B14, symBinAddr: 0x10006D5B4, symSize: 0x48 }
  - { offsetInCU: 0xAE094, offset: 0xAE094, size: 0x8, addend: 0x0, symName: __ZNSt3__119__debug_db_insert_cB7v160006INS_6vectorIN5Catch8TestSpec11FilterMatchENS_9allocatorIS4_EEEEEEvPT_, symObjAddr: 0x69EB0, symBinAddr: 0x10006D950, symSize: 0x10 }
  - { offsetInCU: 0xAE0C7, offset: 0xAE0C7, size: 0x8, addend: 0x0, symName: __ZNSt3__115__debug_db_swapB7v160006INS_6vectorIN5Catch8TestSpec11FilterMatchENS_9allocatorIS4_EEEEEEvPT_S9_, symObjAddr: 0x6A114, symBinAddr: 0x10006DBB4, symSize: 0x14 }
  - { offsetInCU: 0xAE109, offset: 0xAE109, size: 0x8, addend: 0x0, symName: __ZNSt3__125__debug_db_invalidate_allB7v160006INS_6vectorIN5Catch8TestSpec11FilterMatchENS_9allocatorIS4_EEEEEEvPT_, symObjAddr: 0x6A338, symBinAddr: 0x10006DDD8, symSize: 0x10 }
  - { offsetInCU: 0xAE13C, offset: 0xAE13C, size: 0x8, addend: 0x0, symName: __ZNSt3__112__to_addressB7v160006IN5Catch8TestSpec11FilterMatchEEEPT_S5_, symObjAddr: 0x6A3FC, symBinAddr: 0x10006DE9C, symSize: 0x14 }
  - { offsetInCU: 0xAE173, offset: 0xAE173, size: 0x8, addend: 0x0, symName: __ZNSt3__110destroy_atB7v160006IN5Catch8TestSpec11FilterMatchELi0EEEvPT_, symObjAddr: 0x6A410, symBinAddr: 0x10006DEB0, symSize: 0x24 }
  - { offsetInCU: 0xAE1AD, offset: 0xAE1AD, size: 0x8, addend: 0x0, symName: __ZNSt3__112__destroy_atB7v160006IN5Catch8TestSpec11FilterMatchELi0EEEvPT_, symObjAddr: 0x6A434, symBinAddr: 0x10006DED4, symSize: 0x24 }
  - { offsetInCU: 0xAE1E7, offset: 0xAE1E7, size: 0x8, addend: 0x0, symName: __ZNSt3__118__debug_db_erase_cB7v160006INS_6vectorIPKN5Catch8TestCaseENS_9allocatorIS5_EEEEEEvPT_, symObjAddr: 0x6A6D4, symBinAddr: 0x10006E174, symSize: 0x10 }
  - { offsetInCU: 0xAE21A, offset: 0xAE21A, size: 0x8, addend: 0x0, symName: __ZNSt3__112__to_addressB7v160006IPKN5Catch8TestCaseEEEPT_S6_, symObjAddr: 0x6A818, symBinAddr: 0x10006E2B8, symSize: 0x14 }
  - { offsetInCU: 0xAE251, offset: 0xAE251, size: 0x8, addend: 0x0, symName: __ZNSt3__110destroy_atB7v160006IPKN5Catch8TestCaseELi0EEEvPT_, symObjAddr: 0x6A8E0, symBinAddr: 0x10006E380, symSize: 0x24 }
  - { offsetInCU: 0xAE28B, offset: 0xAE28B, size: 0x8, addend: 0x0, symName: __ZNSt3__112__destroy_atB7v160006IPKN5Catch8TestCaseELi0EEEvPT_, symObjAddr: 0x6A904, symBinAddr: 0x10006E3A4, symSize: 0x10 }
  - { offsetInCU: 0xAE316, offset: 0xAE316, size: 0x8, addend: 0x0, symName: __ZNSt3__112construct_atB7v160006IPKN5Catch8TestCaseEJS4_EPS4_EEPT_S7_DpOT0_, symObjAddr: 0x6B628, symBinAddr: 0x10006F0C8, symSize: 0x2C }
  - { offsetInCU: 0xAE38D, offset: 0xAE38D, size: 0x8, addend: 0x0, symName: __ZNSt3__127__tree_balance_after_insertB7v160006IPNS_16__tree_node_baseIPvEEEEvT_S5_, symObjAddr: 0x6B6C8, symBinAddr: 0x10006F168, symSize: 0x32C }
  - { offsetInCU: 0xAE40A, offset: 0xAE40A, size: 0x8, addend: 0x0, symName: __ZNSt3__120__tree_is_left_childB7v160006IPNS_16__tree_node_baseIPvEEEEbT_, symObjAddr: 0x6BA34, symBinAddr: 0x10006F4D4, symSize: 0x2C }
  - { offsetInCU: 0xAE440, offset: 0xAE440, size: 0x8, addend: 0x0, symName: __ZNSt3__118__tree_left_rotateB7v160006IPNS_16__tree_node_baseIPvEEEEvT_, symObjAddr: 0x6BA60, symBinAddr: 0x10006F500, symSize: 0xD8 }
  - { offsetInCU: 0xAE482, offset: 0xAE482, size: 0x8, addend: 0x0, symName: __ZNSt3__119__tree_right_rotateB7v160006IPNS_16__tree_node_baseIPvEEEEvT_, symObjAddr: 0x6BB38, symBinAddr: 0x10006F5D8, symSize: 0xCC }
  - { offsetInCU: 0xAE4C5, offset: 0xAE4C5, size: 0x8, addend: 0x0, symName: __ZNSt3__1eqB7v160006IPN5Catch8TestSpec11FilterMatchEEEbRKNS_11__wrap_iterIT_EES9_, symObjAddr: 0x6BFE8, symBinAddr: 0x10006FA88, symSize: 0x48 }
  - { offsetInCU: 0xAE50B, offset: 0xAE50B, size: 0x8, addend: 0x0, symName: __ZNSt3__1neB7v160006IPKPKN5Catch8TestCaseEEEbRKNS_11__wrap_iterIT_EESB_, symObjAddr: 0x6C074, symBinAddr: 0x10006FB14, symSize: 0x34 }
  - { offsetInCU: 0xAE551, offset: 0xAE551, size: 0x8, addend: 0x0, symName: __ZNSt3__1eqB7v160006IPKPKN5Catch8TestCaseEEEbRKNS_11__wrap_iterIT_EESB_, symObjAddr: 0x6C1F8, symBinAddr: 0x10006FC98, symSize: 0x48 }
  - { offsetInCU: 0xAE596, offset: 0xAE596, size: 0x8, addend: 0x0, symName: __ZNSt3__1eqB7v160006ERKNS_21__tree_const_iteratorIPKN5Catch8TestCaseEPNS_11__tree_nodeIS4_PvEElEESB_, symObjAddr: 0x6C77C, symBinAddr: 0x10007021C, symSize: 0x30 }
  - { offsetInCU: 0xAE5D4, offset: 0xAE5D4, size: 0x8, addend: 0x0, symName: __ZNSt3__14nextB7v160006INS_21__tree_const_iteratorIPKN5Catch8TestCaseEPNS_11__tree_nodeIS5_PvEElEEEENS_9enable_ifIXsr25__is_cpp17_input_iteratorIT_EE5valueESC_E4typeESC_NS_15iterator_traitsISC_E15difference_typeE, symObjAddr: 0x6C874, symBinAddr: 0x100070314, symSize: 0x50 }
  - { offsetInCU: 0xAE61A, offset: 0xAE61A, size: 0x8, addend: 0x0, symName: __ZNSt3__116__tree_prev_iterB7v160006IPNS_16__tree_node_baseIPvEEPNS_15__tree_end_nodeIS4_EEEET_T0_, symObjAddr: 0x6C930, symBinAddr: 0x1000703D0, symSize: 0x88 }
  - { offsetInCU: 0xAE669, offset: 0xAE669, size: 0x8, addend: 0x0, symName: __ZNSt3__110__tree_maxB7v160006IPNS_16__tree_node_baseIPvEEEET_S5_, symObjAddr: 0x6C9B8, symBinAddr: 0x100070458, symSize: 0x40 }
  - { offsetInCU: 0xAE6A0, offset: 0xAE6A0, size: 0x8, addend: 0x0, symName: __ZNSt3__19__advanceB7v160006INS_21__tree_const_iteratorIPKN5Catch8TestCaseEPNS_11__tree_nodeIS5_PvEElEEEEvRT_NS_15iterator_traitsISB_E15difference_typeENS_26bidirectional_iterator_tagE, symObjAddr: 0x6CA48, symBinAddr: 0x1000704E8, symSize: 0xA4 }
  - { offsetInCU: 0xAE6ED, offset: 0xAE6ED, size: 0x8, addend: 0x0, symName: __ZNSt3__116__tree_next_iterB7v160006IPNS_15__tree_end_nodeIPNS_16__tree_node_baseIPvEEEES5_EET_T0_, symObjAddr: 0x6CB24, symBinAddr: 0x1000705C4, symSize: 0x80 }
  - { offsetInCU: 0xAE72D, offset: 0xAE72D, size: 0x8, addend: 0x0, symName: __ZNSt3__110__tree_minB7v160006IPNS_16__tree_node_baseIPvEEEET_S5_, symObjAddr: 0x6CBA4, symBinAddr: 0x100070644, symSize: 0x40 }
  - { offsetInCU: 0xAE764, offset: 0xAE764, size: 0x8, addend: 0x0, symName: __ZNSt3__112construct_atB7v160006IPKN5Catch8TestCaseEJRKS4_EPS4_EEPT_S9_DpOT0_, symObjAddr: 0x6CC14, symBinAddr: 0x1000706B4, symSize: 0x2C }
  - { offsetInCU: 0xAE7DB, offset: 0xAE7DB, size: 0x8, addend: 0x0, symName: __ZNSt3__1neB7v160006ERKNS_21__tree_const_iteratorIPKN5Catch8TestCaseEPNS_11__tree_nodeIS4_PvEElEESB_, symObjAddr: 0x6CE78, symBinAddr: 0x100070918, symSize: 0x34 }
  - { offsetInCU: 0xAE819, offset: 0xAE819, size: 0x8, addend: 0x0, symName: __ZNSt3__13maxB7v160006IiNS_6__lessIiiEEEERKT_S5_S5_T0_, symObjAddr: 0x6CED4, symBinAddr: 0x100070974, symSize: 0x54 }
  - { offsetInCU: 0xAE877, offset: 0xAE877, size: 0x8, addend: 0x0, symName: __ZNSt3__119__debug_db_insert_cB7v160006INS_6vectorIPN5Catch10ISingletonENS_9allocatorIS4_EEEEEEvPT_, symObjAddr: 0x6D038, symBinAddr: 0x100070AD8, symSize: 0x10 }
  - { offsetInCU: 0xAE8AA, offset: 0xAE8AA, size: 0x8, addend: 0x0, symName: __ZNSt3__112__to_addressB7v160006IPN5Catch10ISingletonEEEPT_S5_, symObjAddr: 0x6D36C, symBinAddr: 0x100070E0C, symSize: 0x14 }
  - { offsetInCU: 0xAE908, offset: 0xAE908, size: 0x8, addend: 0x0, symName: __ZNSt3__112construct_atB7v160006IPN5Catch10ISingletonEJRKS3_EPS3_EEPT_S8_DpOT0_, symObjAddr: 0x6D3F0, symBinAddr: 0x100070E90, symSize: 0x2C }
  - { offsetInCU: 0xAE980, offset: 0xAE980, size: 0x8, addend: 0x0, symName: __ZNSt3__119__allocate_at_leastB7v160006INS_9allocatorIPN5Catch10ISingletonEEEEENS_19__allocation_resultINS_16allocator_traitsIT_E7pointerEEERS8_m, symObjAddr: 0x6D98C, symBinAddr: 0x10007142C, symSize: 0x40 }
  - { offsetInCU: 0xAE9C5, offset: 0xAE9C5, size: 0x8, addend: 0x0, symName: __ZNSt3__142__uninitialized_allocator_move_if_noexceptB7v160006INS_9allocatorIPN5Catch10ISingletonEEENS_16reverse_iteratorIPS4_EES8_S4_vEET1_RT_T0_SC_S9_, symObjAddr: 0x6DBF8, symBinAddr: 0x100071698, symSize: 0x78 }
  - { offsetInCU: 0xAEA43, offset: 0xAEA43, size: 0x8, addend: 0x0, symName: __ZNSt3__14swapB7v160006IPPN5Catch10ISingletonEEENS_9enable_ifIXaasr21is_move_constructibleIT_EE5valuesr18is_move_assignableIS6_EE5valueEvE4typeERS6_S9_, symObjAddr: 0x6DCBC, symBinAddr: 0x10007175C, symSize: 0x3C }
  - { offsetInCU: 0xAEA98, offset: 0xAEA98, size: 0x8, addend: 0x0, symName: __ZNSt3__125__debug_db_invalidate_allB7v160006INS_6vectorIPN5Catch10ISingletonENS_9allocatorIS4_EEEEEEvPT_, symObjAddr: 0x6DDA4, symBinAddr: 0x100071844, symSize: 0x10 }
  - { offsetInCU: 0xAEACB, offset: 0xAEACB, size: 0x8, addend: 0x0, symName: __ZNSt3__14moveB7v160006INS_16reverse_iteratorIPPN5Catch10ISingletonEEES6_EET0_T_S8_S7_, symObjAddr: 0x6DDFC, symBinAddr: 0x10007189C, symSize: 0x78 }
  - { offsetInCU: 0xAEB29, offset: 0xAEB29, size: 0x8, addend: 0x0, symName: __ZNSt3__16__moveB7v160006INS_17_ClassicAlgPolicyENS_16reverse_iteratorIPPN5Catch10ISingletonEEES7_S7_EENS_4pairIT0_T2_EES9_T1_SA_, symObjAddr: 0x6DE74, symBinAddr: 0x100071914, symSize: 0x64 }
  - { offsetInCU: 0xAEB99, offset: 0xAEB99, size: 0x8, addend: 0x0, symName: __ZNSt3__123__dispatch_copy_or_moveB7v160006INS_17_ClassicAlgPolicyENS_11__move_loopIS1_EENS_14__move_trivialENS_16reverse_iteratorIPPN5Catch10ISingletonEEESA_SA_EENS_4pairIT2_T4_EESC_T3_SD_, symObjAddr: 0x6DED8, symBinAddr: 0x100071978, symSize: 0x64 }
  - { offsetInCU: 0xAEC1B, offset: 0xAEC1B, size: 0x8, addend: 0x0, symName: __ZNSt3__121__unwrap_and_dispatchB7v160006INS_10__overloadINS_11__move_loopINS_17_ClassicAlgPolicyEEENS_14__move_trivialEEENS_16reverse_iteratorIPPN5Catch10ISingletonEEESC_SC_Li0EEENS_4pairIT0_T2_EESE_T1_SF_, symObjAddr: 0x6DF3C, symBinAddr: 0x1000719DC, symSize: 0x12C }
  - { offsetInCU: 0xAECB2, offset: 0xAECB2, size: 0x8, addend: 0x0, symName: __ZNSt3__114__unwrap_rangeB7v160006INS_16reverse_iteratorIPPN5Catch10ISingletonEEES6_EEDaT_T0_, symObjAddr: 0x6E068, symBinAddr: 0x100071B08, symSize: 0x4C }
  - { offsetInCU: 0xAEDDC, offset: 0xAEDDC, size: 0x8, addend: 0x0, symName: __ZNSt3__113__unwrap_iterB7v160006INS_16reverse_iteratorIPPN5Catch10ISingletonEEENS_18__unwrap_iter_implIS6_Lb0EEELi0EEEDTclsrT0_8__unwrapclsr3stdE7declvalIT_EEEESA_, symObjAddr: 0x6E154, symBinAddr: 0x100071BF4, symSize: 0x44 }
  - { offsetInCU: 0xAEE22, offset: 0xAEE22, size: 0x8, addend: 0x0, symName: __ZNSt3__19make_pairB7v160006INS_16reverse_iteratorIPPN5Catch10ISingletonEEES6_EENS_4pairINS_18__unwrap_ref_decayIT_E4typeENS8_IT0_E4typeEEEOS9_OSC_, symObjAddr: 0x6E198, symBinAddr: 0x100071C38, symSize: 0x38 }
  - { offsetInCU: 0xAEE72, offset: 0xAEE72, size: 0x8, addend: 0x0, symName: __ZNSt3__114__rewrap_rangeB7v160006INS_16reverse_iteratorIPPN5Catch10ISingletonEEES6_S6_EET0_S7_T1_, symObjAddr: 0x6E1D0, symBinAddr: 0x100071C70, symSize: 0x5C }
  - { offsetInCU: 0xAEECA, offset: 0xAEECA, size: 0x8, addend: 0x0, symName: __ZNSt3__113__rewrap_iterB7v160006INS_16reverse_iteratorIPPN5Catch10ISingletonEEES6_NS_18__unwrap_iter_implIS6_Lb0EEEEET_S9_T0_, symObjAddr: 0x6E22C, symBinAddr: 0x100071CCC, symSize: 0x74 }
  - { offsetInCU: 0xAEF75, offset: 0xAEF75, size: 0x8, addend: 0x0, symName: __ZNSt3__1neB7v160006IPPN5Catch10ISingletonES4_EEbRKNS_16reverse_iteratorIT_EERKNS5_IT0_EE, symObjAddr: 0x6E394, symBinAddr: 0x100071E34, symSize: 0x48 }
  - { offsetInCU: 0xAF037, offset: 0xAF037, size: 0x8, addend: 0x0, symName: __ZNSt3__110destroy_atB7v160006IPN5Catch10ISingletonELi0EEEvPT_, symObjAddr: 0x6E720, symBinAddr: 0x1000721C0, symSize: 0x24 }
  - { offsetInCU: 0xAF071, offset: 0xAF071, size: 0x8, addend: 0x0, symName: __ZNSt3__112__destroy_atB7v160006IPN5Catch10ISingletonELi0EEEvPT_, symObjAddr: 0x6E744, symBinAddr: 0x1000721E4, symSize: 0x10 }
  - { offsetInCU: 0xAF0AB, offset: 0xAF0AB, size: 0x8, addend: 0x0, symName: __ZNSt3__1eqB7v160006IPPN5Catch10ISingletonEEEbRKNS_11__wrap_iterIT_EES9_, symObjAddr: 0x6E874, symBinAddr: 0x100072314, symSize: 0x48 }
  - { offsetInCU: 0xAF0F1, offset: 0xAF0F1, size: 0x8, addend: 0x0, symName: __ZNSt3__118__debug_db_erase_cB7v160006INS_6vectorIPN5Catch10ISingletonENS_9allocatorIS4_EEEEEEvPT_, symObjAddr: 0x6EA08, symBinAddr: 0x1000724A8, symSize: 0x10 }
  - { offsetInCU: 0xAF124, offset: 0xAF124, size: 0x8, addend: 0x0, symName: __ZNSt3__112__to_addressB7v160006ISt13exception_ptrEEPT_S3_, symObjAddr: 0x6ED28, symBinAddr: 0x1000727C8, symSize: 0x14 }
  - { offsetInCU: 0xAF182, offset: 0xAF182, size: 0x8, addend: 0x0, symName: __ZNSt3__112construct_atB7v160006ISt13exception_ptrJRKS1_EPS1_EEPT_S6_DpOT0_, symObjAddr: 0x6EDAC, symBinAddr: 0x10007284C, symSize: 0x3C }
  - { offsetInCU: 0xAF1FA, offset: 0xAF1FA, size: 0x8, addend: 0x0, symName: __ZNSt3__119__allocate_at_leastB7v160006INS_9allocatorISt13exception_ptrEEEENS_19__allocation_resultINS_16allocator_traitsIT_E7pointerEEERS6_m, symObjAddr: 0x6F358, symBinAddr: 0x100072DF8, symSize: 0x40 }
  - { offsetInCU: 0xAF23F, offset: 0xAF23F, size: 0x8, addend: 0x0, symName: __ZNSt3__142__uninitialized_allocator_move_if_noexceptB7v160006INS_9allocatorISt13exception_ptrEENS_16reverse_iteratorIPS2_EES6_S6_EET2_RT_T0_T1_S7_, symObjAddr: 0x6F5E0, symBinAddr: 0x100073080, symSize: 0x12C }
  - { offsetInCU: 0xAF2E0, offset: 0xAF2E0, size: 0x8, addend: 0x0, symName: __ZNSt3__14swapB7v160006IPSt13exception_ptrEENS_9enable_ifIXaasr21is_move_constructibleIT_EE5valuesr18is_move_assignableIS4_EE5valueEvE4typeERS4_S7_, symObjAddr: 0x6F758, symBinAddr: 0x1000731F8, symSize: 0x3C }
  - { offsetInCU: 0xAF335, offset: 0xAF335, size: 0x8, addend: 0x0, symName: __ZNSt3__125__debug_db_invalidate_allB7v160006INS_6vectorISt13exception_ptrNS_9allocatorIS2_EEEEEEvPT_, symObjAddr: 0x6F840, symBinAddr: 0x1000732E0, symSize: 0x10 }
  - { offsetInCU: 0xAF368, offset: 0xAF368, size: 0x8, addend: 0x0, symName: __ZNSt3__122__make_exception_guardB7v160006INS_29_AllocatorDestroyRangeReverseINS_9allocatorISt13exception_ptrEENS_16reverse_iteratorIPS3_EEEEEENS_28__exception_guard_exceptionsIT_EESA_, symObjAddr: 0x6F898, symBinAddr: 0x100073338, symSize: 0x4C }
  - { offsetInCU: 0xAF3A0, offset: 0xAF3A0, size: 0x8, addend: 0x0, symName: __ZNSt3__1neB7v160006IPSt13exception_ptrS2_EEbRKNS_16reverse_iteratorIT_EERKNS3_IT0_EE, symObjAddr: 0x6F928, symBinAddr: 0x1000733C8, symSize: 0x48 }
  - { offsetInCU: 0xAF3EF, offset: 0xAF3EF, size: 0x8, addend: 0x0, symName: __ZNSt3__112__to_addressB7v160006INS_16reverse_iteratorIPSt13exception_ptrEEvEENS_5decayIDTclsr19__to_address_helperIT_EE6__callclsr3stdE7declvalIRKS6_EEEEE4typeES8_, symObjAddr: 0x6F9A0, symBinAddr: 0x100073440, symSize: 0x24 }
  - { offsetInCU: 0xAF427, offset: 0xAF427, size: 0x8, addend: 0x0, symName: __ZNSt3__112construct_atB7v160006ISt13exception_ptrJS1_EPS1_EEPT_S4_DpOT0_, symObjAddr: 0x6FAF0, symBinAddr: 0x100073590, symSize: 0x3C }
  - { offsetInCU: 0xAF4CA, offset: 0xAF4CA, size: 0x8, addend: 0x0, symName: __ZNSt3__14prevB7v160006IPSt13exception_ptrEENS_9enable_ifIXsr25__is_cpp17_input_iteratorIT_EE5valueES4_E4typeES4_NS_15iterator_traitsIS4_E15difference_typeE, symObjAddr: 0x6FB90, symBinAddr: 0x100073630, symSize: 0x50 }
  - { offsetInCU: 0xAF510, offset: 0xAF510, size: 0x8, addend: 0x0, symName: __ZNSt3__19__advanceB7v160006IPSt13exception_ptrEEvRT_NS_15iterator_traitsIS3_E15difference_typeENS_26random_access_iterator_tagE, symObjAddr: 0x6FC30, symBinAddr: 0x1000736D0, symSize: 0x28 }
  - { offsetInCU: 0xAF55C, offset: 0xAF55C, size: 0x8, addend: 0x0, symName: __ZNSt3__119__allocator_destroyB7v160006INS_9allocatorISt13exception_ptrEENS_16reverse_iteratorINS4_IPS2_EEEES7_EEvRT_T0_T1_, symObjAddr: 0x6FD5C, symBinAddr: 0x1000737FC, symSize: 0x70 }
  - { offsetInCU: 0xAF5C2, offset: 0xAF5C2, size: 0x8, addend: 0x0, symName: __ZNSt3__1neB7v160006INS_16reverse_iteratorIPSt13exception_ptrEES4_EEbRKNS1_IT_EERKNS1_IT0_EE, symObjAddr: 0x6FE08, symBinAddr: 0x1000738A8, symSize: 0x60 }
  - { offsetInCU: 0xAF611, offset: 0xAF611, size: 0x8, addend: 0x0, symName: __ZNSt3__112__to_addressB7v160006INS_16reverse_iteratorINS1_IPSt13exception_ptrEEEEvEENS_5decayIDTclsr19__to_address_helperIT_EE6__callclsr3stdE7declvalIRKS7_EEEEE4typeES9_, symObjAddr: 0x6FE90, symBinAddr: 0x100073930, symSize: 0x24 }
  - { offsetInCU: 0xAF649, offset: 0xAF649, size: 0x8, addend: 0x0, symName: __ZNSt3__110destroy_atB7v160006ISt13exception_ptrLi0EEEvPT_, symObjAddr: 0x6FF08, symBinAddr: 0x1000739A8, symSize: 0x24 }
  - { offsetInCU: 0xAF683, offset: 0xAF683, size: 0x8, addend: 0x0, symName: __ZNSt3__112__destroy_atB7v160006ISt13exception_ptrLi0EEEvPT_, symObjAddr: 0x6FF2C, symBinAddr: 0x1000739CC, symSize: 0x24 }
  - { offsetInCU: 0xAF6E8, offset: 0xAF6E8, size: 0x8, addend: 0x0, symName: __ZNSt3__14prevB7v160006INS_16reverse_iteratorIPSt13exception_ptrEEEENS_9enable_ifIXsr25__is_cpp17_input_iteratorIT_EE5valueES6_E4typeES6_NS_15iterator_traitsIS6_E15difference_typeE, symObjAddr: 0x6FFD4, symBinAddr: 0x100073A74, symSize: 0x60 }
  - { offsetInCU: 0xAF72E, offset: 0xAF72E, size: 0x8, addend: 0x0, symName: __ZNSt3__19__advanceB7v160006INS_16reverse_iteratorIPSt13exception_ptrEEEEvRT_NS_15iterator_traitsIS5_E15difference_typeENS_26random_access_iterator_tagE, symObjAddr: 0x70084, symBinAddr: 0x100073B24, symSize: 0x2C }
  - { offsetInCU: 0xAF77B, offset: 0xAF77B, size: 0x8, addend: 0x0, symName: __ZNSt3__112__to_addressB7v160006INS_10unique_ptrINS_19basic_ostringstreamIcNS_11char_traitsIcEENS_9allocatorIcEEEENS_14default_deleteIS7_EEEEEEPT_SC_, symObjAddr: 0x71768, symBinAddr: 0x100075208, symSize: 0x14 }
  - { offsetInCU: 0xAF7D9, offset: 0xAF7D9, size: 0x8, addend: 0x0, symName: __ZNSt3__112construct_atB7v160006INS_10unique_ptrINS_19basic_ostringstreamIcNS_11char_traitsIcEENS_9allocatorIcEEEENS_14default_deleteIS7_EEEEJSA_EPSA_EEPT_SD_DpOT0_, symObjAddr: 0x717EC, symBinAddr: 0x10007528C, symSize: 0x3C }
  - { offsetInCU: 0xAF851, offset: 0xAF851, size: 0x8, addend: 0x0, symName: __ZNSt3__119__allocate_at_leastB7v160006INS_9allocatorINS_10unique_ptrINS_19basic_ostringstreamIcNS_11char_traitsIcEENS1_IcEEEENS_14default_deleteIS7_EEEEEEEENS_19__allocation_resultINS_16allocator_traitsIT_E7pointerEEERSE_m, symObjAddr: 0x71F98, symBinAddr: 0x100075A38, symSize: 0x40 }
  - { offsetInCU: 0xAF896, offset: 0xAF896, size: 0x8, addend: 0x0, symName: __ZNSt3__142__uninitialized_allocator_move_if_noexceptB7v160006INS_9allocatorINS_10unique_ptrINS_19basic_ostringstreamIcNS_11char_traitsIcEENS1_IcEEEENS_14default_deleteIS7_EEEEEENS_16reverse_iteratorIPSA_EESE_SE_EET2_RT_T0_T1_SF_, symObjAddr: 0x72220, symBinAddr: 0x100075CC0, symSize: 0x12C }
  - { offsetInCU: 0xAF937, offset: 0xAF937, size: 0x8, addend: 0x0, symName: __ZNSt3__14swapB7v160006IPNS_10unique_ptrINS_19basic_ostringstreamIcNS_11char_traitsIcEENS_9allocatorIcEEEENS_14default_deleteIS7_EEEEEENS_9enable_ifIXaasr21is_move_constructibleIT_EE5valuesr18is_move_assignableISD_EE5valueEvE4typeERSD_SG_, symObjAddr: 0x72398, symBinAddr: 0x100075E38, symSize: 0x3C }
  - { offsetInCU: 0xAF98C, offset: 0xAF98C, size: 0x8, addend: 0x0, symName: __ZNSt3__125__debug_db_invalidate_allB7v160006INS_6vectorINS_10unique_ptrINS_19basic_ostringstreamIcNS_11char_traitsIcEENS_9allocatorIcEEEENS_14default_deleteIS8_EEEENS6_ISB_EEEEEEvPT_, symObjAddr: 0x72480, symBinAddr: 0x100075F20, symSize: 0x10 }
  - { offsetInCU: 0xAF9BF, offset: 0xAF9BF, size: 0x8, addend: 0x0, symName: __ZNSt3__122__make_exception_guardB7v160006INS_29_AllocatorDestroyRangeReverseINS_9allocatorINS_10unique_ptrINS_19basic_ostringstreamIcNS_11char_traitsIcEENS2_IcEEEENS_14default_deleteIS8_EEEEEENS_16reverse_iteratorIPSB_EEEEEENS_28__exception_guard_exceptionsIT_EESI_, symObjAddr: 0x724D8, symBinAddr: 0x100075F78, symSize: 0x4C }
  - { offsetInCU: 0xAF9F7, offset: 0xAF9F7, size: 0x8, addend: 0x0, symName: __ZNSt3__1neB7v160006IPNS_10unique_ptrINS_19basic_ostringstreamIcNS_11char_traitsIcEENS_9allocatorIcEEEENS_14default_deleteIS7_EEEESB_EEbRKNS_16reverse_iteratorIT_EERKNSC_IT0_EE, symObjAddr: 0x72568, symBinAddr: 0x100076008, symSize: 0x48 }
  - { offsetInCU: 0xAFA46, offset: 0xAFA46, size: 0x8, addend: 0x0, symName: __ZNSt3__112__to_addressB7v160006INS_16reverse_iteratorIPNS_10unique_ptrINS_19basic_ostringstreamIcNS_11char_traitsIcEENS_9allocatorIcEEEENS_14default_deleteIS8_EEEEEEvEENS_5decayIDTclsr19__to_address_helperIT_EE6__callclsr3stdE7declvalIRKSF_EEEEE4typeESH_, symObjAddr: 0x725B0, symBinAddr: 0x100076050, symSize: 0x24 }
  - { offsetInCU: 0xAFAA9, offset: 0xAFAA9, size: 0x8, addend: 0x0, symName: __ZNSt3__14prevB7v160006IPNS_10unique_ptrINS_19basic_ostringstreamIcNS_11char_traitsIcEENS_9allocatorIcEEEENS_14default_deleteIS7_EEEEEENS_9enable_ifIXsr25__is_cpp17_input_iteratorIT_EE5valueESD_E4typeESD_NS_15iterator_traitsISD_E15difference_typeE, symObjAddr: 0x72764, symBinAddr: 0x100076204, symSize: 0x50 }
  - { offsetInCU: 0xAFAEF, offset: 0xAFAEF, size: 0x8, addend: 0x0, symName: __ZNSt3__19__advanceB7v160006IPNS_10unique_ptrINS_19basic_ostringstreamIcNS_11char_traitsIcEENS_9allocatorIcEEEENS_14default_deleteIS7_EEEEEEvRT_NS_15iterator_traitsISC_E15difference_typeENS_26random_access_iterator_tagE, symObjAddr: 0x72804, symBinAddr: 0x1000762A4, symSize: 0x28 }
  - { offsetInCU: 0xAFB3B, offset: 0xAFB3B, size: 0x8, addend: 0x0, symName: __ZNSt3__119__allocator_destroyB7v160006INS_9allocatorINS_10unique_ptrINS_19basic_ostringstreamIcNS_11char_traitsIcEENS1_IcEEEENS_14default_deleteIS7_EEEEEENS_16reverse_iteratorINSC_IPSA_EEEESF_EEvRT_T0_T1_, symObjAddr: 0x72930, symBinAddr: 0x1000763D0, symSize: 0x70 }
  - { offsetInCU: 0xAFBA1, offset: 0xAFBA1, size: 0x8, addend: 0x0, symName: __ZNSt3__1neB7v160006INS_16reverse_iteratorIPNS_10unique_ptrINS_19basic_ostringstreamIcNS_11char_traitsIcEENS_9allocatorIcEEEENS_14default_deleteIS8_EEEEEESD_EEbRKNS1_IT_EERKNS1_IT0_EE, symObjAddr: 0x729DC, symBinAddr: 0x10007647C, symSize: 0x60 }
  - { offsetInCU: 0xAFBF0, offset: 0xAFBF0, size: 0x8, addend: 0x0, symName: __ZNSt3__112__to_addressB7v160006INS_16reverse_iteratorINS1_IPNS_10unique_ptrINS_19basic_ostringstreamIcNS_11char_traitsIcEENS_9allocatorIcEEEENS_14default_deleteIS8_EEEEEEEEvEENS_5decayIDTclsr19__to_address_helperIT_EE6__callclsr3stdE7declvalIRKSG_EEEEE4typeESI_, symObjAddr: 0x72A64, symBinAddr: 0x100076504, symSize: 0x24 }
  - { offsetInCU: 0xAFC28, offset: 0xAFC28, size: 0x8, addend: 0x0, symName: __ZNSt3__110destroy_atB7v160006INS_10unique_ptrINS_19basic_ostringstreamIcNS_11char_traitsIcEENS_9allocatorIcEEEENS_14default_deleteIS7_EEEELi0EEEvPT_, symObjAddr: 0x72ADC, symBinAddr: 0x10007657C, symSize: 0x24 }
  - { offsetInCU: 0xAFC62, offset: 0xAFC62, size: 0x8, addend: 0x0, symName: __ZNSt3__112__destroy_atB7v160006INS_10unique_ptrINS_19basic_ostringstreamIcNS_11char_traitsIcEENS_9allocatorIcEEEENS_14default_deleteIS7_EEEELi0EEEvPT_, symObjAddr: 0x72B00, symBinAddr: 0x1000765A0, symSize: 0x24 }
  - { offsetInCU: 0xAFCC7, offset: 0xAFCC7, size: 0x8, addend: 0x0, symName: __ZNSt3__14prevB7v160006INS_16reverse_iteratorIPNS_10unique_ptrINS_19basic_ostringstreamIcNS_11char_traitsIcEENS_9allocatorIcEEEENS_14default_deleteIS8_EEEEEEEENS_9enable_ifIXsr25__is_cpp17_input_iteratorIT_EE5valueESF_E4typeESF_NS_15iterator_traitsISF_E15difference_typeE, symObjAddr: 0x72BA8, symBinAddr: 0x100076648, symSize: 0x60 }
  - { offsetInCU: 0xAFD0D, offset: 0xAFD0D, size: 0x8, addend: 0x0, symName: __ZNSt3__19__advanceB7v160006INS_16reverse_iteratorIPNS_10unique_ptrINS_19basic_ostringstreamIcNS_11char_traitsIcEENS_9allocatorIcEEEENS_14default_deleteIS8_EEEEEEEEvRT_NS_15iterator_traitsISE_E15difference_typeENS_26random_access_iterator_tagE, symObjAddr: 0x72C58, symBinAddr: 0x1000766F8, symSize: 0x2C }
  - { offsetInCU: 0xAFD5A, offset: 0xAFD5A, size: 0x8, addend: 0x0, symName: __ZNSt3__15equalB7v160006INS_11__wrap_iterIPKcEES4_NS_10__equal_toEEEbT_S6_T0_T1_, symObjAddr: 0x732FC, symBinAddr: 0x100076D9C, symSize: 0xB0 }
  - { offsetInCU: 0xAFDD0, offset: 0xAFDD0, size: 0x8, addend: 0x0, symName: __ZNSt3__15equalB7v160006INS_16reverse_iteratorINS_11__wrap_iterIPKcEEEES6_NS_10__equal_toEEEbT_S8_T0_T1_, symObjAddr: 0x73474, symBinAddr: 0x100076F14, symSize: 0xBC }
  - { offsetInCU: 0xAFE46, offset: 0xAFE46, size: 0x8, addend: 0x0, symName: __ZNSt3__1neB7v160006INS_11__wrap_iterIPKcEES4_EEbRKNS_16reverse_iteratorIT_EERKNS5_IT0_EE, symObjAddr: 0x73530, symBinAddr: 0x100076FD0, symSize: 0x54 }
  - { offsetInCU: 0xAFE94, offset: 0xAFE94, size: 0x8, addend: 0x0, symName: __ZNSt3__110__str_findB7v160006IcmNS_11char_traitsIcEELm18446744073709551615EEET0_PKT_S3_S6_S3_S3_, symObjAddr: 0x73684, symBinAddr: 0x100077124, symSize: 0xE4 }
  - { offsetInCU: 0xAFF3C, offset: 0xAFF3C, size: 0x8, addend: 0x0, symName: __ZNSt3__118__search_substringB7v160006IcNS_11char_traitsIcEEEEPKT_S5_S5_S5_S5_, symObjAddr: 0x73768, symBinAddr: 0x100077208, symSize: 0x154 }
  - { offsetInCU: 0xAFFD7, offset: 0xAFFD7, size: 0x8, addend: 0x0, symName: __ZNSt3__1neB7v160006IPcEEbRKNS_11__wrap_iterIT_EES6_, symObjAddr: 0x738BC, symBinAddr: 0x10007735C, symSize: 0x34 }
  - { offsetInCU: 0xB001D, offset: 0xB001D, size: 0x8, addend: 0x0, symName: __ZNSt3__1eqB7v160006IPcEEbRKNS_11__wrap_iterIT_EES6_, symObjAddr: 0x73928, symBinAddr: 0x1000773C8, symSize: 0x48 }
  - { offsetInCU: 0xB0062, offset: 0xB0062, size: 0x8, addend: 0x0, symName: __ZNSt3__123__str_find_first_not_ofB7v160006IcmNS_11char_traitsIcEELm18446744073709551615EEET0_PKT_S3_S6_S3_S3_, symObjAddr: 0x73A40, symBinAddr: 0x1000774E0, symSize: 0xDC }
  - { offsetInCU: 0xB0135, offset: 0xB0135, size: 0x8, addend: 0x0, symName: __ZNSt3__122__str_find_last_not_ofB7v160006IcmNS_11char_traitsIcEELm18446744073709551615EEET0_PKT_S3_S6_S3_S3_, symObjAddr: 0x73B1C, symBinAddr: 0x1000775BC, symSize: 0xDC }
  - { offsetInCU: 0xB01EC, offset: 0xB01EC, size: 0x8, addend: 0x0, symName: __ZNSt3__13minB7v160006ImNS_6__lessImmEEEERKT_S5_S5_T0_, symObjAddr: 0x73C24, symBinAddr: 0x1000776C4, symSize: 0x54 }
  - { offsetInCU: 0xB024A, offset: 0xB024A, size: 0x8, addend: 0x0, symName: __ZNSt3__112construct_atB7v160006INS_12basic_stringIcNS_11char_traitsIcEENS_9allocatorIcEEEEJRKS6_EPS6_EEPT_SB_DpOT0_, symObjAddr: 0x74118, symBinAddr: 0x100077BB8, symSize: 0x3C }
  - { offsetInCU: 0xB02C2, offset: 0xB02C2, size: 0x8, addend: 0x0, symName: __ZNSt3__125__debug_db_invalidate_allB7v160006INS_12basic_stringIcNS_11char_traitsIcEENS_9allocatorIcEEEEEEvPT_, symObjAddr: 0x74154, symBinAddr: 0x100077BF4, symSize: 0x10 }
  - { offsetInCU: 0xB02F5, offset: 0xB02F5, size: 0x8, addend: 0x0, symName: __ZNSt3__1miB7v160006IPKNS_12basic_stringIcNS_11char_traitsIcEENS_9allocatorIcEEEEPS6_EEDTmicldtfp_4baseEcldtfp0_4baseEERKNS_11__wrap_iterIT_EERKNSB_IT0_EE, symObjAddr: 0x74450, symBinAddr: 0x100077EF0, symSize: 0x48 }
  - { offsetInCU: 0xB0344, offset: 0xB0344, size: 0x8, addend: 0x0, symName: __ZNSt3__18distanceB7v160006IPKNS_12basic_stringIcNS_11char_traitsIcEENS_9allocatorIcEEEEEENS_15iterator_traitsIT_E15difference_typeESA_SA_, symObjAddr: 0x74498, symBinAddr: 0x100077F38, symSize: 0x2C }
  - { offsetInCU: 0xB038A, offset: 0xB038A, size: 0x8, addend: 0x0, symName: __ZNSt3__14copyB7v160006IPKNS_12basic_stringIcNS_11char_traitsIcEENS_9allocatorIcEEEEPS6_EET0_T_SB_SA_, symObjAddr: 0x746DC, symBinAddr: 0x10007817C, symSize: 0x40 }
  - { offsetInCU: 0xB03E8, offset: 0xB03E8, size: 0x8, addend: 0x0, symName: __ZNSt3__110__distanceB7v160006IPKNS_12basic_stringIcNS_11char_traitsIcEENS_9allocatorIcEEEEEENS_15iterator_traitsIT_E15difference_typeESA_SA_NS_26random_access_iterator_tagE, symObjAddr: 0x74948, symBinAddr: 0x1000783E8, symSize: 0x28 }
  - { offsetInCU: 0xB0439, offset: 0xB0439, size: 0x8, addend: 0x0, symName: __ZNSt3__19__advanceB7v160006IPKNS_12basic_stringIcNS_11char_traitsIcEENS_9allocatorIcEEEEEEvRT_NS_15iterator_traitsIS9_E15difference_typeENS_26random_access_iterator_tagE, symObjAddr: 0x74970, symBinAddr: 0x100078410, symSize: 0x30 }
  - { offsetInCU: 0xB0485, offset: 0xB0485, size: 0x8, addend: 0x0, symName: __ZNSt3__130__uninitialized_allocator_copyB7v160006INS_9allocatorINS_12basic_stringIcNS_11char_traitsIcEENS1_IcEEEEEEPKS6_S9_PS6_EET2_RT_T0_T1_SB_, symObjAddr: 0x749A0, symBinAddr: 0x100078440, symSize: 0xF4 }
  - { offsetInCU: 0xB0524, offset: 0xB0524, size: 0x8, addend: 0x0, symName: __ZNSt3__113move_backwardB7v160006IPNS_12basic_stringIcNS_11char_traitsIcEENS_9allocatorIcEEEES7_EET0_T_S9_S8_, symObjAddr: 0x74A94, symBinAddr: 0x100078534, symSize: 0x40 }
  - { offsetInCU: 0xB0582, offset: 0xB0582, size: 0x8, addend: 0x0, symName: __ZNSt3__115__move_backwardB7v160006INS_17_ClassicAlgPolicyEPNS_12basic_stringIcNS_11char_traitsIcEENS_9allocatorIcEEEES8_S8_EENS_4pairIT0_T2_EESA_T1_SB_, symObjAddr: 0x74AD4, symBinAddr: 0x100078574, symSize: 0x44 }
  - { offsetInCU: 0xB05F2, offset: 0xB05F2, size: 0x8, addend: 0x0, symName: __ZNSt3__123__dispatch_copy_or_moveB7v160006INS_17_ClassicAlgPolicyENS_20__move_backward_loopIS1_EENS_23__move_backward_trivialEPNS_12basic_stringIcNS_11char_traitsIcEENS_9allocatorIcEEEESB_SB_EENS_4pairIT2_T4_EESD_T3_SE_, symObjAddr: 0x74B18, symBinAddr: 0x1000785B8, symSize: 0x44 }
  - { offsetInCU: 0xB0674, offset: 0xB0674, size: 0x8, addend: 0x0, symName: __ZNSt3__121__unwrap_and_dispatchB7v160006INS_10__overloadINS_20__move_backward_loopINS_17_ClassicAlgPolicyEEENS_23__move_backward_trivialEEEPNS_12basic_stringIcNS_11char_traitsIcEENS_9allocatorIcEEEESD_SD_Li0EEENS_4pairIT0_T2_EESF_T1_SG_, symObjAddr: 0x74B5C, symBinAddr: 0x1000785FC, symSize: 0xB4 }
  - { offsetInCU: 0xB0730, offset: 0xB0730, size: 0x8, addend: 0x0, symName: __ZNSt3__16__copyB7v160006INS_17_ClassicAlgPolicyEPKNS_12basic_stringIcNS_11char_traitsIcEENS_9allocatorIcEEEES9_PS7_EENS_4pairIT0_T2_EESC_T1_SD_, symObjAddr: 0x74CF8, symBinAddr: 0x100078798, symSize: 0x44 }
  - { offsetInCU: 0xB07A0, offset: 0xB07A0, size: 0x8, addend: 0x0, symName: __ZNSt3__123__dispatch_copy_or_moveB7v160006INS_17_ClassicAlgPolicyENS_11__copy_loopIS1_EENS_14__copy_trivialEPKNS_12basic_stringIcNS_11char_traitsIcEENS_9allocatorIcEEEESC_PSA_EENS_4pairIT2_T4_EESF_T3_SG_, symObjAddr: 0x74D3C, symBinAddr: 0x1000787DC, symSize: 0x44 }
  - { offsetInCU: 0xB0822, offset: 0xB0822, size: 0x8, addend: 0x0, symName: __ZNSt3__121__unwrap_and_dispatchB7v160006INS_10__overloadINS_11__copy_loopINS_17_ClassicAlgPolicyEEENS_14__copy_trivialEEEPKNS_12basic_stringIcNS_11char_traitsIcEENS_9allocatorIcEEEESE_PSC_Li0EEENS_4pairIT0_T2_EESH_T1_SI_, symObjAddr: 0x74D80, symBinAddr: 0x100078820, symSize: 0xB4 }
  - { offsetInCU: 0xB08B7, offset: 0xB08B7, size: 0x8, addend: 0x0, symName: __ZNSt3__114__unwrap_rangeB7v160006IPKNS_12basic_stringIcNS_11char_traitsIcEENS_9allocatorIcEEEES8_EEDaT_T0_, symObjAddr: 0x74E34, symBinAddr: 0x1000788D4, symSize: 0x3C }
  - { offsetInCU: 0xB09E0, offset: 0xB09E0, size: 0x8, addend: 0x0, symName: __ZNSt3__19make_pairB7v160006IPKNS_12basic_stringIcNS_11char_traitsIcEENS_9allocatorIcEEEEPS6_EENS_4pairINS_18__unwrap_ref_decayIT_E4typeENSB_IT0_E4typeEEEOSC_OSF_, symObjAddr: 0x74EF8, symBinAddr: 0x100078998, symSize: 0x38 }
  - { offsetInCU: 0xB0A30, offset: 0xB0A30, size: 0x8, addend: 0x0, symName: __ZNSt3__114__rewrap_rangeB7v160006IPKNS_12basic_stringIcNS_11char_traitsIcEENS_9allocatorIcEEEES8_S8_EET0_S9_T1_, symObjAddr: 0x74F30, symBinAddr: 0x1000789D0, symSize: 0x2C }
  - { offsetInCU: 0xB0BB0, offset: 0xB0BB0, size: 0x8, addend: 0x0, symName: __ZNSt3__113__unwrap_iterB7v160006IPKNS_12basic_stringIcNS_11char_traitsIcEENS_9allocatorIcEEEENS_18__unwrap_iter_implIS8_Lb1EEELi0EEEDTclsrT0_8__unwrapclsr3stdE7declvalIT_EEEESC_, symObjAddr: 0x74FB4, symBinAddr: 0x100078A54, symSize: 0x24 }
  - { offsetInCU: 0xB0C4F, offset: 0xB0C4F, size: 0x8, addend: 0x0, symName: __ZNSt3__113__rewrap_iterB7v160006IPKNS_12basic_stringIcNS_11char_traitsIcEENS_9allocatorIcEEEES8_NS_18__unwrap_iter_implIS8_Lb1EEEEET_SB_T0_, symObjAddr: 0x75108, symBinAddr: 0x100078BA8, symSize: 0x3C }
  - { offsetInCU: 0xB0CA6, offset: 0xB0CA6, size: 0x8, addend: 0x0, symName: __ZNSt3__142__uninitialized_allocator_move_if_noexceptB7v160006INS_9allocatorINS_12basic_stringIcNS_11char_traitsIcEENS1_IcEEEEEEPS6_S8_S8_EET2_RT_T0_T1_S9_, symObjAddr: 0x75270, symBinAddr: 0x100078D10, symSize: 0xF4 }
  - { offsetInCU: 0xB0D44, offset: 0xB0D44, size: 0x8, addend: 0x0, symName: __ZNSt3__14sortB7v160006INS_11__wrap_iterIPNS_12basic_stringIcNS_11char_traitsIcEENS_9allocatorIcEEEEEENS_6__lessIS7_S7_EEEEvT_SC_T0_, symObjAddr: 0x753E8, symBinAddr: 0x100078E88, symSize: 0x40 }
  - { offsetInCU: 0xB0D9E, offset: 0xB0D9E, size: 0x8, addend: 0x0, symName: __ZNSt3__111__sort_implB7v160006INS_17_ClassicAlgPolicyENS_11__wrap_iterIPNS_12basic_stringIcNS_11char_traitsIcEENS_9allocatorIcEEEEEENS_6__lessIS8_S8_EEEEvT0_SD_RT1_, symObjAddr: 0x75428, symBinAddr: 0x100078EC8, symSize: 0x84 }
  - { offsetInCU: 0xB0E46, offset: 0xB0E46, size: 0x8, addend: 0x0, symName: __ZNSt3__123__debug_randomize_rangeB7v160006INS_17_ClassicAlgPolicyENS_11__wrap_iterIPNS_12basic_stringIcNS_11char_traitsIcEENS_9allocatorIcEEEEEESA_EEvT0_T1_, symObjAddr: 0x754AC, symBinAddr: 0x100078F4C, symSize: 0x14 }
  - { offsetInCU: 0xB0E99, offset: 0xB0E99, size: 0x8, addend: 0x0, symName: __ZNSt3__16__sortIRNS_6__lessINS_12basic_stringIcNS_11char_traitsIcEENS_9allocatorIcEEEES7_EEPS7_EEvT0_SB_T_, symObjAddr: 0x754C0, symBinAddr: 0x100078F60, symSize: 0x68 }
  - { offsetInCU: 0xB0F2A, offset: 0xB0F2A, size: 0x8, addend: 0x0, symName: __ZNSt3__113__unwrap_iterB7v160006INS_11__wrap_iterIPNS_12basic_stringIcNS_11char_traitsIcEENS_9allocatorIcEEEEEENS_18__unwrap_iter_implIS9_Lb1EEELi0EEEDTclsrT0_8__unwrapclsr3stdE7declvalIT_EEEESD_, symObjAddr: 0x75528, symBinAddr: 0x100078FC8, symSize: 0x2C }
  - { offsetInCU: 0xB0F70, offset: 0xB0F70, size: 0x8, addend: 0x0, symName: __ZNSt3__17__log2iB7v160006IlEET_S1_, symObjAddr: 0x75554, symBinAddr: 0x100078FF4, symSize: 0x54 }
  - { offsetInCU: 0xB101B, offset: 0xB101B, size: 0x8, addend: 0x0, symName: __ZNSt3__112__libcpp_clzB7v160006Em, symObjAddr: 0x75CA4, symBinAddr: 0x100079744, symSize: 0x1C }
  - { offsetInCU: 0xB1049, offset: 0xB1049, size: 0x8, addend: 0x0, symName: __ZNSt3__124__sort3_maybe_branchlessB7v160006INS_17_ClassicAlgPolicyERNS_6__lessINS_12basic_stringIcNS_11char_traitsIcEENS_9allocatorIcEEEES8_EEPS8_EENS_9enable_ifIXntsr21__use_branchless_sortIT0_T1_EE5valueEvE4typeESE_SE_SE_SD_, symObjAddr: 0x75D44, symBinAddr: 0x1000797E4, symSize: 0x3C }
  - { offsetInCU: 0xB10BE, offset: 0xB10BE, size: 0x8, addend: 0x0, symName: __ZNSt3__124__sort4_maybe_branchlessB7v160006INS_17_ClassicAlgPolicyERNS_6__lessINS_12basic_stringIcNS_11char_traitsIcEENS_9allocatorIcEEEES8_EEPS8_EENS_9enable_ifIXntsr21__use_branchless_sortIT0_T1_EE5valueEvE4typeESE_SE_SE_SE_SD_, symObjAddr: 0x75D80, symBinAddr: 0x100079820, symSize: 0x44 }
  - { offsetInCU: 0xB1143, offset: 0xB1143, size: 0x8, addend: 0x0, symName: __ZNSt3__124__sort5_maybe_branchlessB7v160006INS_17_ClassicAlgPolicyERNS_6__lessINS_12basic_stringIcNS_11char_traitsIcEENS_9allocatorIcEEEES8_EEPS8_EENS_9enable_ifIXntsr21__use_branchless_sortIT0_T1_EE5valueEvE4typeESE_SE_SE_SE_SE_SD_, symObjAddr: 0x75DC4, symBinAddr: 0x100079864, symSize: 0x4C }
  - { offsetInCU: 0xB11D8, offset: 0xB11D8, size: 0x8, addend: 0x0, symName: __ZNSt3__114__partial_sortB7v160006INS_17_ClassicAlgPolicyERNS_6__lessINS_12basic_stringIcNS_11char_traitsIcEENS_9allocatorIcEEEES8_EEPS8_SB_EET1_SC_SC_T2_RT0_, symObjAddr: 0x75F8C, symBinAddr: 0x100079A2C, symSize: 0x94 }
  - { offsetInCU: 0xB1266, offset: 0xB1266, size: 0x8, addend: 0x0, symName: __ZNSt3__119__sort5_wrap_policyB7v160006INS_17_ClassicAlgPolicyERNS_6__lessINS_12basic_stringIcNS_11char_traitsIcEENS_9allocatorIcEEEES8_EEPS8_EEjT1_SC_SC_SC_SC_T0_, symObjAddr: 0x76020, symBinAddr: 0x100079AC0, symSize: 0x54 }
  - { offsetInCU: 0xB1315, offset: 0xB1315, size: 0x8, addend: 0x0, symName: __ZNSt3__17__sort3B7v160006INS_17_ClassicAlgPolicyERNS_6__lessINS_12basic_stringIcNS_11char_traitsIcEENS_9allocatorIcEEEES8_EEPS8_EEjT1_SC_SC_T0_, symObjAddr: 0x76074, symBinAddr: 0x100079B14, symSize: 0x144 }
  - { offsetInCU: 0xB139A, offset: 0xB139A, size: 0x8, addend: 0x0, symName: __ZNSt3__19iter_swapB7v160006IPNS_12basic_stringIcNS_11char_traitsIcEENS_9allocatorIcEEEES7_EEvT_T0_, symObjAddr: 0x7653C, symBinAddr: 0x100079FDC, symSize: 0x2C }
  - { offsetInCU: 0xB13E4, offset: 0xB13E4, size: 0x8, addend: 0x0, symName: __ZNSt3__14swapB7v160006IcNS_11char_traitsIcEENS_9allocatorIcEEEEvRNS_12basic_stringIT_T0_T1_EESA_, symObjAddr: 0x76568, symBinAddr: 0x10007A008, symSize: 0x2C }
  - { offsetInCU: 0xB1439, offset: 0xB1439, size: 0x8, addend: 0x0, symName: __ZNSt3__14swapB7v160006INS_12basic_stringIcNS_11char_traitsIcEENS_9allocatorIcEEE5__repEEENS_9enable_ifIXaasr21is_move_constructibleIT_EE5valuesr18is_move_assignableIS9_EE5valueEvE4typeERS9_SC_, symObjAddr: 0x7663C, symBinAddr: 0x10007A0DC, symSize: 0x54 }
  - { offsetInCU: 0xB148E, offset: 0xB148E, size: 0x8, addend: 0x0, symName: __ZNSt3__116__swap_allocatorB7v160006INS_9allocatorIcEEEEvRT_S4_, symObjAddr: 0x76690, symBinAddr: 0x10007A130, symSize: 0x2C }
  - { offsetInCU: 0xB14D0, offset: 0xB14D0, size: 0x8, addend: 0x0, symName: __ZNSt3__116__swap_allocatorB7v160006INS_9allocatorIcEEEEvRT_S4_NS_17integral_constantIbLb0EEE, symObjAddr: 0x766BC, symBinAddr: 0x10007A15C, symSize: 0x14 }
  - { offsetInCU: 0xB1515, offset: 0xB1515, size: 0x8, addend: 0x0, symName: __ZNSt3__17__sort4B7v160006INS_17_ClassicAlgPolicyERNS_6__lessINS_12basic_stringIcNS_11char_traitsIcEENS_9allocatorIcEEEES8_EEPS8_EEjT1_SC_SC_SC_T0_, symObjAddr: 0x766D0, symBinAddr: 0x10007A170, symSize: 0xE4 }
  - { offsetInCU: 0xB15A9, offset: 0xB15A9, size: 0x8, addend: 0x0, symName: __ZNSt3__123__debug_randomize_rangeB7v160006INS_17_ClassicAlgPolicyEPNS_12basic_stringIcNS_11char_traitsIcEENS_9allocatorIcEEEES8_EEvT0_T1_, symObjAddr: 0x767B4, symBinAddr: 0x10007A254, symSize: 0x14 }
  - { offsetInCU: 0xB15FD, offset: 0xB15FD, size: 0x8, addend: 0x0, symName: __ZNSt3__119__partial_sort_implB7v160006INS_17_ClassicAlgPolicyERNS_6__lessINS_12basic_stringIcNS_11char_traitsIcEENS_9allocatorIcEEEES8_EEPS8_SB_EET1_SC_SC_T2_OT0_, symObjAddr: 0x767C8, symBinAddr: 0x10007A268, symSize: 0x110 }
  - { offsetInCU: 0xB169A, offset: 0xB169A, size: 0x8, addend: 0x0, symName: __ZNSt3__111__make_heapB7v160006INS_17_ClassicAlgPolicyERNS_6__lessINS_12basic_stringIcNS_11char_traitsIcEENS_9allocatorIcEEEES8_EEPS8_EEvT1_SC_OT0_, symObjAddr: 0x768D8, symBinAddr: 0x10007A378, symSize: 0xC0 }
  - { offsetInCU: 0xB1744, offset: 0xB1744, size: 0x8, addend: 0x0, symName: __ZNSt3__111__sort_heapB7v160006INS_17_ClassicAlgPolicyERNS_6__lessINS_12basic_stringIcNS_11char_traitsIcEENS_9allocatorIcEEEES8_EEPS8_EEvT1_SC_OT0_, symObjAddr: 0x76BEC, symBinAddr: 0x10007A68C, symSize: 0x90 }
  - { offsetInCU: 0xB17DF, offset: 0xB17DF, size: 0x8, addend: 0x0, symName: __ZNSt3__110__pop_heapB7v160006INS_17_ClassicAlgPolicyENS_6__lessINS_12basic_stringIcNS_11char_traitsIcEENS_9allocatorIcEEEES8_EEPS8_EEvT1_SB_RT0_NS_15iterator_traitsISB_E15difference_typeE, symObjAddr: 0x76C7C, symBinAddr: 0x10007A71C, symSize: 0x138 }
  - { offsetInCU: 0xB1890, offset: 0xB1890, size: 0x8, addend: 0x0, symName: __ZNSt3__19__sift_upB7v160006INS_17_ClassicAlgPolicyERNS_6__lessINS_12basic_stringIcNS_11char_traitsIcEENS_9allocatorIcEEEES8_EEPS8_EEvT1_SC_OT0_NS_15iterator_traitsISC_E15difference_typeE, symObjAddr: 0x76EBC, symBinAddr: 0x10007A95C, symSize: 0x164 }
  - { offsetInCU: 0xB1938, offset: 0xB1938, size: 0x8, addend: 0x0, symName: __ZNSt3__17__sort5IRNS_6__lessINS_12basic_stringIcNS_11char_traitsIcEENS_9allocatorIcEEEES7_EEPS7_EEjT0_SB_SB_SB_SB_T_, symObjAddr: 0x77020, symBinAddr: 0x10007AAC0, symSize: 0x12C }
  - { offsetInCU: 0xB1A45, offset: 0xB1A45, size: 0x8, addend: 0x0, symName: __ZNSt3__112__to_addressB7v160006INS_11__wrap_iterIPNS_12basic_stringIcNS_11char_traitsIcEENS_9allocatorIcEEEEEEvEENS_5decayIDTclsr19__to_address_helperIT_EE6__callclsr3stdE7declvalIRKSB_EEEEE4typeESD_, symObjAddr: 0x77174, symBinAddr: 0x10007AC14, symSize: 0x24 }
  - { offsetInCU: 0xB1AEA, offset: 0xB1AEA, size: 0x8, addend: 0x0, symName: __ZNSt3__14moveB7v160006IPNS_12basic_stringIcNS_11char_traitsIcEENS_9allocatorIcEEEES7_EET0_T_S9_S8_, symObjAddr: 0x771F4, symBinAddr: 0x10007AC94, symSize: 0x40 }
  - { offsetInCU: 0xB1B48, offset: 0xB1B48, size: 0x8, addend: 0x0, symName: __ZNSt3__1miB7v160006IPKNS_12basic_stringIcNS_11char_traitsIcEENS_9allocatorIcEEEES8_EEDTmicldtfp_4baseEcldtfp0_4baseEERKNS_11__wrap_iterIT_EERKNSA_IT0_EE, symObjAddr: 0x77234, symBinAddr: 0x10007ACD4, symSize: 0x48 }
  - { offsetInCU: 0xB1B97, offset: 0xB1B97, size: 0x8, addend: 0x0, symName: __ZNSt3__16__moveB7v160006INS_17_ClassicAlgPolicyEPNS_12basic_stringIcNS_11char_traitsIcEENS_9allocatorIcEEEES8_S8_EENS_4pairIT0_T2_EESA_T1_SB_, symObjAddr: 0x7727C, symBinAddr: 0x10007AD1C, symSize: 0x44 }
  - { offsetInCU: 0xB1C07, offset: 0xB1C07, size: 0x8, addend: 0x0, symName: __ZNSt3__123__dispatch_copy_or_moveB7v160006INS_17_ClassicAlgPolicyENS_11__move_loopIS1_EENS_14__move_trivialEPNS_12basic_stringIcNS_11char_traitsIcEENS_9allocatorIcEEEESB_SB_EENS_4pairIT2_T4_EESD_T3_SE_, symObjAddr: 0x772C0, symBinAddr: 0x10007AD60, symSize: 0x44 }
  - { offsetInCU: 0xB1C89, offset: 0xB1C89, size: 0x8, addend: 0x0, symName: __ZNSt3__121__unwrap_and_dispatchB7v160006INS_10__overloadINS_11__move_loopINS_17_ClassicAlgPolicyEEENS_14__move_trivialEEEPNS_12basic_stringIcNS_11char_traitsIcEENS_9allocatorIcEEEESD_SD_Li0EEENS_4pairIT0_T2_EESF_T1_SG_, symObjAddr: 0x77304, symBinAddr: 0x10007ADA4, symSize: 0xB4 }
  - { offsetInCU: 0xB1D1E, offset: 0xB1D1E, size: 0x8, addend: 0x0, symName: __ZNSt3__16uniqueB7v160006INS_11__wrap_iterIPNS_12basic_stringIcNS_11char_traitsIcEENS_9allocatorIcEEEEEENS_10__equal_toEEET_SB_SB_T0_, symObjAddr: 0x77448, symBinAddr: 0x10007AEE8, symSize: 0x54 }
  - { offsetInCU: 0xB1D7C, offset: 0xB1D7C, size: 0x8, addend: 0x0, symName: __ZNSt3__18__uniqueB7v160006INS_17_ClassicAlgPolicyENS_11__wrap_iterIPNS_12basic_stringIcNS_11char_traitsIcEENS_9allocatorIcEEEEEESA_RNS_10__equal_toEEENS_4pairIT0_SE_EESE_T1_OT2_, symObjAddr: 0x7749C, symBinAddr: 0x10007AF3C, symSize: 0x13C }
  - { offsetInCU: 0xB1E09, offset: 0xB1E09, size: 0x8, addend: 0x0, symName: __ZNSt3__115__adjacent_findB7v160006INS_11__wrap_iterIPNS_12basic_stringIcNS_11char_traitsIcEENS_9allocatorIcEEEEEES9_RNS_10__equal_toEEET_SC_T0_OT1_, symObjAddr: 0x775D8, symBinAddr: 0x10007B078, symSize: 0xCC }
  - { offsetInCU: 0xB1F8A, offset: 0xB1F8A, size: 0x8, addend: 0x0, symName: __ZNSt3__1ssB7v160006IcNS_11char_traitsIcEEEEDaNS_17basic_string_viewIT_T0_EES7_, symObjAddr: 0x77BB0, symBinAddr: 0x10007B650, symSize: 0x7C }
  - { offsetInCU: 0xB1FDA, offset: 0xB1FDA, size: 0x8, addend: 0x0, symName: __ZNSt3__122__make_exception_guardB7v160006INS_6vectorIN5Catch8TestCaseENS_9allocatorIS3_EEE16__destroy_vectorEEENS_28__exception_guard_exceptionsIT_EES9_, symObjAddr: 0x77DCC, symBinAddr: 0x10007B86C, symSize: 0x40 }
  - { offsetInCU: 0xB2011, offset: 0xB2011, size: 0x8, addend: 0x0, symName: __ZNSt3__119__debug_db_insert_cB7v160006INS_6vectorIN5Catch8TestCaseENS_9allocatorIS3_EEEEEEvPT_, symObjAddr: 0x77E0C, symBinAddr: 0x10007B8AC, symSize: 0x10 }
  - { offsetInCU: 0xB2044, offset: 0xB2044, size: 0x8, addend: 0x0, symName: __ZNSt3__119__allocate_at_leastB7v160006INS_9allocatorIN5Catch8TestCaseEEEEENS_19__allocation_resultINS_16allocator_traitsIT_E7pointerEEERS7_m, symObjAddr: 0x78128, symBinAddr: 0x10007BBC8, symSize: 0x40 }
  - { offsetInCU: 0xB2089, offset: 0xB2089, size: 0x8, addend: 0x0, symName: __ZNSt3__130__uninitialized_allocator_copyB7v160006INS_9allocatorIN5Catch8TestCaseEEEPS3_S5_S5_EET2_RT_T0_T1_S6_, symObjAddr: 0x78350, symBinAddr: 0x10007BDF0, symSize: 0xF4 }
  - { offsetInCU: 0xB2128, offset: 0xB2128, size: 0x8, addend: 0x0, symName: __ZNSt3__122__make_exception_guardB7v160006INS_29_AllocatorDestroyRangeReverseINS_9allocatorIN5Catch8TestCaseEEEPS4_EEEENS_28__exception_guard_exceptionsIT_EES9_, symObjAddr: 0x784BC, symBinAddr: 0x10007BF5C, symSize: 0x4C }
  - { offsetInCU: 0xB2187, offset: 0xB2187, size: 0x8, addend: 0x0, symName: __ZNSt3__112construct_atB7v160006IN5Catch8TestCaseEJRS2_EPS2_EEPT_S6_DpOT0_, symObjAddr: 0x78660, symBinAddr: 0x10007C100, symSize: 0x3C }
  - { offsetInCU: 0xB21FE, offset: 0xB21FE, size: 0x8, addend: 0x0, symName: __ZNSt3__119__allocator_destroyB7v160006INS_9allocatorIN5Catch8TestCaseEEENS_16reverse_iteratorIPS3_EES7_EEvRT_T0_T1_, symObjAddr: 0x78754, symBinAddr: 0x10007C1F4, symSize: 0x70 }
  - { offsetInCU: 0xB2262, offset: 0xB2262, size: 0x8, addend: 0x0, symName: __ZNSt3__1neB7v160006IPN5Catch8TestCaseES3_EEbRKNS_16reverse_iteratorIT_EERKNS4_IT0_EE, symObjAddr: 0x787F8, symBinAddr: 0x10007C298, symSize: 0x48 }
  - { offsetInCU: 0xB22B1, offset: 0xB22B1, size: 0x8, addend: 0x0, symName: __ZNSt3__112__to_addressB7v160006INS_16reverse_iteratorIPN5Catch8TestCaseEEEvEENS_5decayIDTclsr19__to_address_helperIT_EE6__callclsr3stdE7declvalIRKS7_EEEEE4typeES9_, symObjAddr: 0x78840, symBinAddr: 0x10007C2E0, symSize: 0x24 }
  - { offsetInCU: 0xB2314, offset: 0xB2314, size: 0x8, addend: 0x0, symName: __ZNSt3__14prevB7v160006IPN5Catch8TestCaseEEENS_9enable_ifIXsr25__is_cpp17_input_iteratorIT_EE5valueES5_E4typeES5_NS_15iterator_traitsIS5_E15difference_typeE, symObjAddr: 0x78900, symBinAddr: 0x10007C3A0, symSize: 0x50 }
  - { offsetInCU: 0xB235A, offset: 0xB235A, size: 0x8, addend: 0x0, symName: __ZNSt3__19__advanceB7v160006IPN5Catch8TestCaseEEEvRT_NS_15iterator_traitsIS4_E15difference_typeENS_26random_access_iterator_tagE, symObjAddr: 0x789A0, symBinAddr: 0x10007C440, symSize: 0x30 }
  - { offsetInCU: 0xB23A6, offset: 0xB23A6, size: 0x8, addend: 0x0, symName: __ZNSt3__14sortB7v160006INS_11__wrap_iterIPN5Catch8TestCaseEEENS_6__lessIS3_S3_EEEEvT_S8_T0_, symObjAddr: 0x78A68, symBinAddr: 0x10007C508, symSize: 0x40 }
  - { offsetInCU: 0xB2400, offset: 0xB2400, size: 0x8, addend: 0x0, symName: __ZNSt3__111__sort_implB7v160006INS_17_ClassicAlgPolicyENS_11__wrap_iterIPN5Catch8TestCaseEEENS_6__lessIS4_S4_EEEEvT0_S9_RT1_, symObjAddr: 0x78AA8, symBinAddr: 0x10007C548, symSize: 0x84 }
  - { offsetInCU: 0xB24A8, offset: 0xB24A8, size: 0x8, addend: 0x0, symName: __ZNSt3__123__debug_randomize_rangeB7v160006INS_17_ClassicAlgPolicyENS_11__wrap_iterIPN5Catch8TestCaseEEES6_EEvT0_T1_, symObjAddr: 0x78B2C, symBinAddr: 0x10007C5CC, symSize: 0x14 }
  - { offsetInCU: 0xB24FB, offset: 0xB24FB, size: 0x8, addend: 0x0, symName: __ZNSt3__16__sortIRNS_6__lessIN5Catch8TestCaseES3_EEPS3_EEvT0_S7_T_, symObjAddr: 0x78B40, symBinAddr: 0x10007C5E0, symSize: 0x68 }
  - { offsetInCU: 0xB258C, offset: 0xB258C, size: 0x8, addend: 0x0, symName: __ZNSt3__113__unwrap_iterB7v160006INS_11__wrap_iterIPN5Catch8TestCaseEEENS_18__unwrap_iter_implIS5_Lb1EEELi0EEEDTclsrT0_8__unwrapclsr3stdE7declvalIT_EEEES9_, symObjAddr: 0x78BA8, symBinAddr: 0x10007C648, symSize: 0x2C }
  - { offsetInCU: 0xB2646, offset: 0xB2646, size: 0x8, addend: 0x0, symName: __ZNSt3__124__sort3_maybe_branchlessB7v160006INS_17_ClassicAlgPolicyERNS_6__lessIN5Catch8TestCaseES4_EEPS4_EENS_9enable_ifIXntsr21__use_branchless_sortIT0_T1_EE5valueEvE4typeESA_SA_SA_S9_, symObjAddr: 0x79338, symBinAddr: 0x10007CDD8, symSize: 0x3C }
  - { offsetInCU: 0xB26BB, offset: 0xB26BB, size: 0x8, addend: 0x0, symName: __ZNSt3__124__sort4_maybe_branchlessB7v160006INS_17_ClassicAlgPolicyERNS_6__lessIN5Catch8TestCaseES4_EEPS4_EENS_9enable_ifIXntsr21__use_branchless_sortIT0_T1_EE5valueEvE4typeESA_SA_SA_SA_S9_, symObjAddr: 0x79374, symBinAddr: 0x10007CE14, symSize: 0x44 }
  - { offsetInCU: 0xB2740, offset: 0xB2740, size: 0x8, addend: 0x0, symName: __ZNSt3__124__sort5_maybe_branchlessB7v160006INS_17_ClassicAlgPolicyERNS_6__lessIN5Catch8TestCaseES4_EEPS4_EENS_9enable_ifIXntsr21__use_branchless_sortIT0_T1_EE5valueEvE4typeESA_SA_SA_SA_SA_S9_, symObjAddr: 0x793B8, symBinAddr: 0x10007CE58, symSize: 0x4C }
  - { offsetInCU: 0xB27D5, offset: 0xB27D5, size: 0x8, addend: 0x0, symName: __ZNSt3__114__partial_sortB7v160006INS_17_ClassicAlgPolicyERNS_6__lessIN5Catch8TestCaseES4_EEPS4_S7_EET1_S8_S8_T2_RT0_, symObjAddr: 0x795BC, symBinAddr: 0x10007D05C, symSize: 0x94 }
  - { offsetInCU: 0xB2863, offset: 0xB2863, size: 0x8, addend: 0x0, symName: __ZNSt3__119__sort5_wrap_policyB7v160006INS_17_ClassicAlgPolicyERNS_6__lessIN5Catch8TestCaseES4_EEPS4_EEjT1_S8_S8_S8_S8_T0_, symObjAddr: 0x79650, symBinAddr: 0x10007D0F0, symSize: 0x54 }
  - { offsetInCU: 0xB2912, offset: 0xB2912, size: 0x8, addend: 0x0, symName: __ZNSt3__17__sort3B7v160006INS_17_ClassicAlgPolicyERNS_6__lessIN5Catch8TestCaseES4_EEPS4_EEjT1_S8_S8_T0_, symObjAddr: 0x796A4, symBinAddr: 0x10007D144, symSize: 0x144 }
  - { offsetInCU: 0xB2997, offset: 0xB2997, size: 0x8, addend: 0x0, symName: __ZNSt3__19iter_swapB7v160006IPN5Catch8TestCaseES3_EEvT_T0_, symObjAddr: 0x79B74, symBinAddr: 0x10007D614, symSize: 0x2C }
  - { offsetInCU: 0xB29E2, offset: 0xB29E2, size: 0x8, addend: 0x0, symName: __ZNSt3__14swapB7v160006IN5Catch8TestCaseEEENS_9enable_ifIXaasr21is_move_constructibleIT_EE5valuesr18is_move_assignableIS4_EE5valueEvE4typeERS4_S7_, symObjAddr: 0x79BA0, symBinAddr: 0x10007D640, symSize: 0x50 }
  - { offsetInCU: 0xB2A37, offset: 0xB2A37, size: 0x8, addend: 0x0, symName: __ZNSt3__14swapB7v160006IPN5Catch12ITestInvokerEEENS_9enable_ifIXaasr21is_move_constructibleIT_EE5valuesr18is_move_assignableIS5_EE5valueEvE4typeERS5_S8_, symObjAddr: 0x79E54, symBinAddr: 0x10007D8F4, symSize: 0x3C }
  - { offsetInCU: 0xB2A8C, offset: 0xB2A8C, size: 0x8, addend: 0x0, symName: __ZNSt3__17__sort4B7v160006INS_17_ClassicAlgPolicyERNS_6__lessIN5Catch8TestCaseES4_EEPS4_EEjT1_S8_S8_S8_T0_, symObjAddr: 0x79E90, symBinAddr: 0x10007D930, symSize: 0xE4 }
  - { offsetInCU: 0xB2B47, offset: 0xB2B47, size: 0x8, addend: 0x0, symName: __ZNSt3__123__debug_randomize_rangeB7v160006INS_17_ClassicAlgPolicyEPN5Catch8TestCaseES4_EEvT0_T1_, symObjAddr: 0x79FB8, symBinAddr: 0x10007DA58, symSize: 0x14 }
  - { offsetInCU: 0xB2B9B, offset: 0xB2B9B, size: 0x8, addend: 0x0, symName: __ZNSt3__119__partial_sort_implB7v160006INS_17_ClassicAlgPolicyERNS_6__lessIN5Catch8TestCaseES4_EEPS4_S7_EET1_S8_S8_T2_OT0_, symObjAddr: 0x79FCC, symBinAddr: 0x10007DA6C, symSize: 0x110 }
  - { offsetInCU: 0xB2C38, offset: 0xB2C38, size: 0x8, addend: 0x0, symName: __ZNSt3__111__make_heapB7v160006INS_17_ClassicAlgPolicyERNS_6__lessIN5Catch8TestCaseES4_EEPS4_EEvT1_S8_OT0_, symObjAddr: 0x7A0DC, symBinAddr: 0x10007DB7C, symSize: 0xC0 }
  - { offsetInCU: 0xB2CE2, offset: 0xB2CE2, size: 0x8, addend: 0x0, symName: __ZNSt3__111__sort_heapB7v160006INS_17_ClassicAlgPolicyERNS_6__lessIN5Catch8TestCaseES4_EEPS4_EEvT1_S8_OT0_, symObjAddr: 0x7A430, symBinAddr: 0x10007DED0, symSize: 0x90 }
  - { offsetInCU: 0xB2D7D, offset: 0xB2D7D, size: 0x8, addend: 0x0, symName: __ZNSt3__110__pop_heapB7v160006INS_17_ClassicAlgPolicyENS_6__lessIN5Catch8TestCaseES4_EEPS4_EEvT1_S7_RT0_NS_15iterator_traitsIS7_E15difference_typeE, symObjAddr: 0x7A4C0, symBinAddr: 0x10007DF60, symSize: 0x158 }
  - { offsetInCU: 0xB2E2E, offset: 0xB2E2E, size: 0x8, addend: 0x0, symName: __ZNSt3__19__sift_upB7v160006INS_17_ClassicAlgPolicyERNS_6__lessIN5Catch8TestCaseES4_EEPS4_EEvT1_S8_OT0_NS_15iterator_traitsIS8_E15difference_typeE, symObjAddr: 0x7A720, symBinAddr: 0x10007E1C0, symSize: 0x18C }
  - { offsetInCU: 0xB2ED6, offset: 0xB2ED6, size: 0x8, addend: 0x0, symName: __ZNSt3__17__sort5IRNS_6__lessIN5Catch8TestCaseES3_EEPS3_EEjT0_S7_S7_S7_S7_T_, symObjAddr: 0x7A8AC, symBinAddr: 0x10007E34C, symSize: 0x12C }
  - { offsetInCU: 0xB2FE3, offset: 0xB2FE3, size: 0x8, addend: 0x0, symName: __ZNSt3__112__to_addressB7v160006INS_11__wrap_iterIPN5Catch8TestCaseEEEvEENS_5decayIDTclsr19__to_address_helperIT_EE6__callclsr3stdE7declvalIRKS7_EEEEE4typeES9_, symObjAddr: 0x7AA00, symBinAddr: 0x10007E4A0, symSize: 0x24 }
  - { offsetInCU: 0xB3088, offset: 0xB3088, size: 0x8, addend: 0x0, symName: __ZNSt3__119__debug_db_insert_cB7v160006INS_6vectorINS_4pairIyPKN5Catch8TestCaseEEENS_9allocatorIS7_EEEEEEvPT_, symObjAddr: 0x7AB34, symBinAddr: 0x10007E5D4, symSize: 0x10 }
  - { offsetInCU: 0xB30BB, offset: 0xB30BB, size: 0x8, addend: 0x0, symName: __ZNSt3__119__allocate_at_leastB7v160006INS_9allocatorINS_4pairIyPKN5Catch8TestCaseEEEEEEENS_19__allocation_resultINS_16allocator_traitsIT_E7pointerEEERSB_m, symObjAddr: 0x7B0A8, symBinAddr: 0x10007EB48, symSize: 0x40 }
  - { offsetInCU: 0xB3100, offset: 0xB3100, size: 0x8, addend: 0x0, symName: __ZNSt3__142__uninitialized_allocator_move_if_noexceptB7v160006INS_9allocatorINS_4pairIyPKN5Catch8TestCaseEEEEENS_16reverse_iteratorIPS7_EESB_SB_EET2_RT_T0_T1_SC_, symObjAddr: 0x7B328, symBinAddr: 0x10007EDC8, symSize: 0x12C }
  - { offsetInCU: 0xB31A1, offset: 0xB31A1, size: 0x8, addend: 0x0, symName: __ZNSt3__14swapB7v160006IPNS_4pairIyPKN5Catch8TestCaseEEEEENS_9enable_ifIXaasr21is_move_constructibleIT_EE5valuesr18is_move_assignableIS9_EE5valueEvE4typeERS9_SC_, symObjAddr: 0x7B4A0, symBinAddr: 0x10007EF40, symSize: 0x3C }
  - { offsetInCU: 0xB31F6, offset: 0xB31F6, size: 0x8, addend: 0x0, symName: __ZNSt3__125__debug_db_invalidate_allB7v160006INS_6vectorINS_4pairIyPKN5Catch8TestCaseEEENS_9allocatorIS7_EEEEEEvPT_, symObjAddr: 0x7B5B0, symBinAddr: 0x10007F050, symSize: 0x10 }
  - { offsetInCU: 0xB3229, offset: 0xB3229, size: 0x8, addend: 0x0, symName: __ZNSt3__112__to_addressB7v160006INS_4pairIyPKN5Catch8TestCaseEEEEEPT_S8_, symObjAddr: 0x7B608, symBinAddr: 0x10007F0A8, symSize: 0x14 }
  - { offsetInCU: 0xB3260, offset: 0xB3260, size: 0x8, addend: 0x0, symName: __ZNSt3__122__make_exception_guardB7v160006INS_29_AllocatorDestroyRangeReverseINS_9allocatorINS_4pairIyPKN5Catch8TestCaseEEEEENS_16reverse_iteratorIPS8_EEEEEENS_28__exception_guard_exceptionsIT_EESF_, symObjAddr: 0x7B61C, symBinAddr: 0x10007F0BC, symSize: 0x4C }
  - { offsetInCU: 0xB3298, offset: 0xB3298, size: 0x8, addend: 0x0, symName: __ZNSt3__1neB7v160006IPNS_4pairIyPKN5Catch8TestCaseEEES7_EEbRKNS_16reverse_iteratorIT_EERKNS8_IT0_EE, symObjAddr: 0x7B6AC, symBinAddr: 0x10007F14C, symSize: 0x48 }
  - { offsetInCU: 0xB32E7, offset: 0xB32E7, size: 0x8, addend: 0x0, symName: __ZNSt3__112__to_addressB7v160006INS_16reverse_iteratorIPNS_4pairIyPKN5Catch8TestCaseEEEEEvEENS_5decayIDTclsr19__to_address_helperIT_EE6__callclsr3stdE7declvalIRKSB_EEEEE4typeESD_, symObjAddr: 0x7B724, symBinAddr: 0x10007F1C4, symSize: 0x24 }
  - { offsetInCU: 0xB3346, offset: 0xB3346, size: 0x8, addend: 0x0, symName: __ZNSt3__112construct_atB7v160006INS_4pairIyPKN5Catch8TestCaseEEEJS6_EPS6_EEPT_S9_DpOT0_, symObjAddr: 0x7B874, symBinAddr: 0x10007F314, symSize: 0x2C }
  - { offsetInCU: 0xB33E9, offset: 0xB33E9, size: 0x8, addend: 0x0, symName: __ZNSt3__14prevB7v160006IPNS_4pairIyPKN5Catch8TestCaseEEEEENS_9enable_ifIXsr25__is_cpp17_input_iteratorIT_EE5valueES9_E4typeES9_NS_15iterator_traitsIS9_E15difference_typeE, symObjAddr: 0x7B904, symBinAddr: 0x10007F3A4, symSize: 0x50 }
  - { offsetInCU: 0xB342F, offset: 0xB342F, size: 0x8, addend: 0x0, symName: __ZNSt3__19__advanceB7v160006IPNS_4pairIyPKN5Catch8TestCaseEEEEEvRT_NS_15iterator_traitsIS8_E15difference_typeENS_26random_access_iterator_tagE, symObjAddr: 0x7B9A4, symBinAddr: 0x10007F444, symSize: 0x28 }
  - { offsetInCU: 0xB347B, offset: 0xB347B, size: 0x8, addend: 0x0, symName: __ZNSt3__119__allocator_destroyB7v160006INS_9allocatorINS_4pairIyPKN5Catch8TestCaseEEEEENS_16reverse_iteratorINS9_IPS7_EEEESC_EEvRT_T0_T1_, symObjAddr: 0x7BAD0, symBinAddr: 0x10007F570, symSize: 0x70 }
  - { offsetInCU: 0xB34E1, offset: 0xB34E1, size: 0x8, addend: 0x0, symName: __ZNSt3__1neB7v160006INS_16reverse_iteratorIPNS_4pairIyPKN5Catch8TestCaseEEEEES9_EEbRKNS1_IT_EERKNS1_IT0_EE, symObjAddr: 0x7BB7C, symBinAddr: 0x10007F61C, symSize: 0x60 }
  - { offsetInCU: 0xB3530, offset: 0xB3530, size: 0x8, addend: 0x0, symName: __ZNSt3__112__to_addressB7v160006INS_16reverse_iteratorINS1_IPNS_4pairIyPKN5Catch8TestCaseEEEEEEEvEENS_5decayIDTclsr19__to_address_helperIT_EE6__callclsr3stdE7declvalIRKSC_EEEEE4typeESE_, symObjAddr: 0x7BC04, symBinAddr: 0x10007F6A4, symSize: 0x24 }
  - { offsetInCU: 0xB3568, offset: 0xB3568, size: 0x8, addend: 0x0, symName: __ZNSt3__110destroy_atB7v160006INS_4pairIyPKN5Catch8TestCaseEEELi0EEEvPT_, symObjAddr: 0x7BC7C, symBinAddr: 0x10007F71C, symSize: 0x24 }
  - { offsetInCU: 0xB35A2, offset: 0xB35A2, size: 0x8, addend: 0x0, symName: __ZNSt3__112__destroy_atB7v160006INS_4pairIyPKN5Catch8TestCaseEEELi0EEEvPT_, symObjAddr: 0x7BCA0, symBinAddr: 0x10007F740, symSize: 0x10 }
  - { offsetInCU: 0xB3607, offset: 0xB3607, size: 0x8, addend: 0x0, symName: __ZNSt3__14prevB7v160006INS_16reverse_iteratorIPNS_4pairIyPKN5Catch8TestCaseEEEEEEENS_9enable_ifIXsr25__is_cpp17_input_iteratorIT_EE5valueESB_E4typeESB_NS_15iterator_traitsISB_E15difference_typeE, symObjAddr: 0x7BD34, symBinAddr: 0x10007F7D4, symSize: 0x60 }
  - { offsetInCU: 0xB364D, offset: 0xB364D, size: 0x8, addend: 0x0, symName: __ZNSt3__19__advanceB7v160006INS_16reverse_iteratorIPNS_4pairIyPKN5Catch8TestCaseEEEEEEEvRT_NS_15iterator_traitsISA_E15difference_typeENS_26random_access_iterator_tagE, symObjAddr: 0x7BDE4, symBinAddr: 0x10007F884, symSize: 0x2C }
  - { offsetInCU: 0xB369A, offset: 0xB369A, size: 0x8, addend: 0x0, symName: __ZNSt3__1eqB7v160006IPKN5Catch8TestCaseEEEbRKNS_11__wrap_iterIT_EES9_, symObjAddr: 0x7C1CC, symBinAddr: 0x10007FC6C, symSize: 0x48 }
  - { offsetInCU: 0xB36E0, offset: 0xB36E0, size: 0x8, addend: 0x0, symName: __ZNSt3__112construct_atB7v160006INS_4pairIyPKN5Catch8TestCaseEEEJjS5_EPS6_EEPT_S9_DpOT0_, symObjAddr: 0x7C4A4, symBinAddr: 0x10007FF44, symSize: 0x44 }
  - { offsetInCU: 0xB376C, offset: 0xB376C, size: 0x8, addend: 0x0, symName: '__ZNSt3__111__sort_implB7v160006INS_17_ClassicAlgPolicyENS_11__wrap_iterIPNS_4pairIyPKN5Catch8TestCaseEEEEEZNS4_9sortTestsERKNS4_7IConfigERKNS_6vectorIS5_NS_9allocatorIS5_EEEEE4$_15EEvT0_SL_RT1_', symObjAddr: 0x7C62C, symBinAddr: 0x1000800CC, symSize: 0x84 }
  - { offsetInCU: 0xB3814, offset: 0xB3814, size: 0x8, addend: 0x0, symName: __ZNSt3__123__debug_randomize_rangeB7v160006INS_17_ClassicAlgPolicyENS_11__wrap_iterIPNS_4pairIyPKN5Catch8TestCaseEEEEESA_EEvT0_T1_, symObjAddr: 0x7C6B0, symBinAddr: 0x100080150, symSize: 0x14 }
  - { offsetInCU: 0xB3867, offset: 0xB3867, size: 0x8, addend: 0x0, symName: '__ZNSt3__16__sortIRZN5Catch9sortTestsERKNS1_7IConfigERKNS_6vectorINS1_8TestCaseENS_9allocatorIS6_EEEEE4$_15PNS_4pairIyPKS6_EEEEvT0_SJ_T_', symObjAddr: 0x7C6C4, symBinAddr: 0x100080164, symSize: 0x68 }
  - { offsetInCU: 0xB38F8, offset: 0xB38F8, size: 0x8, addend: 0x0, symName: __ZNSt3__113__unwrap_iterB7v160006INS_11__wrap_iterIPNS_4pairIyPKN5Catch8TestCaseEEEEENS_18__unwrap_iter_implIS9_Lb1EEELi0EEEDTclsrT0_8__unwrapclsr3stdE7declvalIT_EEEESD_, symObjAddr: 0x7C72C, symBinAddr: 0x1000801CC, symSize: 0x2C }
  - { offsetInCU: 0xB3975, offset: 0xB3975, size: 0x8, addend: 0x0, symName: '__ZNSt3__124__sort3_maybe_branchlessB7v160006INS_17_ClassicAlgPolicyERZN5Catch9sortTestsERKNS2_7IConfigERKNS_6vectorINS2_8TestCaseENS_9allocatorIS7_EEEEE4$_15PNS_4pairIyPKS7_EEEENS_9enable_ifIXntsr21__use_branchless_sortIT0_T1_EE5valueEvE4typeESM_SM_SM_SL_', symObjAddr: 0x7CF24, symBinAddr: 0x1000809C4, symSize: 0x3C }
  - { offsetInCU: 0xB39EA, offset: 0xB39EA, size: 0x8, addend: 0x0, symName: '__ZNSt3__124__sort4_maybe_branchlessB7v160006INS_17_ClassicAlgPolicyERZN5Catch9sortTestsERKNS2_7IConfigERKNS_6vectorINS2_8TestCaseENS_9allocatorIS7_EEEEE4$_15PNS_4pairIyPKS7_EEEENS_9enable_ifIXntsr21__use_branchless_sortIT0_T1_EE5valueEvE4typeESM_SM_SM_SM_SL_', symObjAddr: 0x7CF60, symBinAddr: 0x100080A00, symSize: 0x44 }
  - { offsetInCU: 0xB3A6F, offset: 0xB3A6F, size: 0x8, addend: 0x0, symName: '__ZNSt3__124__sort5_maybe_branchlessB7v160006INS_17_ClassicAlgPolicyERZN5Catch9sortTestsERKNS2_7IConfigERKNS_6vectorINS2_8TestCaseENS_9allocatorIS7_EEEEE4$_15PNS_4pairIyPKS7_EEEENS_9enable_ifIXntsr21__use_branchless_sortIT0_T1_EE5valueEvE4typeESM_SM_SM_SM_SM_SL_', symObjAddr: 0x7CFA4, symBinAddr: 0x100080A44, symSize: 0x4C }
  - { offsetInCU: 0xB3B04, offset: 0xB3B04, size: 0x8, addend: 0x0, symName: '__ZNSt3__114__partial_sortB7v160006INS_17_ClassicAlgPolicyERZN5Catch9sortTestsERKNS2_7IConfigERKNS_6vectorINS2_8TestCaseENS_9allocatorIS7_EEEEE4$_15PNS_4pairIyPKS7_EESJ_EET1_SK_SK_T2_RT0_', symObjAddr: 0x7D134, symBinAddr: 0x100080BD4, symSize: 0x94 }
  - { offsetInCU: 0xB3B92, offset: 0xB3B92, size: 0x8, addend: 0x0, symName: '__ZNSt3__119__sort5_wrap_policyB7v160006INS_17_ClassicAlgPolicyERZN5Catch9sortTestsERKNS2_7IConfigERKNS_6vectorINS2_8TestCaseENS_9allocatorIS7_EEEEE4$_15PNS_4pairIyPKS7_EEEEjT1_SK_SK_SK_SK_T0_', symObjAddr: 0x7D1C8, symBinAddr: 0x100080C68, symSize: 0x54 }
  - { offsetInCU: 0xB3C41, offset: 0xB3C41, size: 0x8, addend: 0x0, symName: '__ZNSt3__17__sort3B7v160006INS_17_ClassicAlgPolicyERZN5Catch9sortTestsERKNS2_7IConfigERKNS_6vectorINS2_8TestCaseENS_9allocatorIS7_EEEEE4$_15PNS_4pairIyPKS7_EEEEjT1_SK_SK_T0_', symObjAddr: 0x7D21C, symBinAddr: 0x100080CBC, symSize: 0x144 }
  - { offsetInCU: 0xB3CC6, offset: 0xB3CC6, size: 0x8, addend: 0x0, symName: __ZNSt3__19iter_swapB7v160006IPNS_4pairIyPKN5Catch8TestCaseEEES7_EEvT_T0_, symObjAddr: 0x7D688, symBinAddr: 0x100081128, symSize: 0x2C }
  - { offsetInCU: 0xB3D10, offset: 0xB3D10, size: 0x8, addend: 0x0, symName: __ZNSt3__14swapB7v160006IyPKN5Catch8TestCaseEEENS_9enable_ifIXaasr14__is_swappableIT_EE5valuesr14__is_swappableIT0_EE5valueEvE4typeERNS_4pairIS6_S7_EESC_, symObjAddr: 0x7D6B4, symBinAddr: 0x100081154, symSize: 0x2C }
  - { offsetInCU: 0xB3D60, offset: 0xB3D60, size: 0x8, addend: 0x0, symName: __ZNSt3__14swapB7v160006IyEENS_9enable_ifIXaasr21is_move_constructibleIT_EE5valuesr18is_move_assignableIS2_EE5valueEvE4typeERS2_S5_, symObjAddr: 0x7D724, symBinAddr: 0x1000811C4, symSize: 0x3C }
  - { offsetInCU: 0xB3DB5, offset: 0xB3DB5, size: 0x8, addend: 0x0, symName: __ZNSt3__14swapB7v160006IPKN5Catch8TestCaseEEENS_9enable_ifIXaasr21is_move_constructibleIT_EE5valuesr18is_move_assignableIS6_EE5valueEvE4typeERS6_S9_, symObjAddr: 0x7D760, symBinAddr: 0x100081200, symSize: 0x3C }
  - { offsetInCU: 0xB3E0A, offset: 0xB3E0A, size: 0x8, addend: 0x0, symName: '__ZNSt3__17__sort4B7v160006INS_17_ClassicAlgPolicyERZN5Catch9sortTestsERKNS2_7IConfigERKNS_6vectorINS2_8TestCaseENS_9allocatorIS7_EEEEE4$_15PNS_4pairIyPKS7_EEEEjT1_SK_SK_SK_T0_', symObjAddr: 0x7D79C, symBinAddr: 0x10008123C, symSize: 0xE4 }
  - { offsetInCU: 0xB3EC5, offset: 0xB3EC5, size: 0x8, addend: 0x0, symName: __ZNSt3__123__debug_randomize_rangeB7v160006INS_17_ClassicAlgPolicyEPNS_4pairIyPKN5Catch8TestCaseEEES8_EEvT0_T1_, symObjAddr: 0x7D8F4, symBinAddr: 0x100081394, symSize: 0x14 }
  - { offsetInCU: 0xB3F19, offset: 0xB3F19, size: 0x8, addend: 0x0, symName: '__ZNSt3__119__partial_sort_implB7v160006INS_17_ClassicAlgPolicyERZN5Catch9sortTestsERKNS2_7IConfigERKNS_6vectorINS2_8TestCaseENS_9allocatorIS7_EEEEE4$_15PNS_4pairIyPKS7_EESJ_EET1_SK_SK_T2_OT0_', symObjAddr: 0x7D908, symBinAddr: 0x1000813A8, symSize: 0x110 }
  - { offsetInCU: 0xB3FB6, offset: 0xB3FB6, size: 0x8, addend: 0x0, symName: '__ZNSt3__111__make_heapB7v160006INS_17_ClassicAlgPolicyERZN5Catch9sortTestsERKNS2_7IConfigERKNS_6vectorINS2_8TestCaseENS_9allocatorIS7_EEEEE4$_15PNS_4pairIyPKS7_EEEEvT1_SK_OT0_', symObjAddr: 0x7DA18, symBinAddr: 0x1000814B8, symSize: 0xB8 }
  - { offsetInCU: 0xB4060, offset: 0xB4060, size: 0x8, addend: 0x0, symName: '__ZNSt3__111__sort_heapB7v160006INS_17_ClassicAlgPolicyERZN5Catch9sortTestsERKNS2_7IConfigERKNS_6vectorINS2_8TestCaseENS_9allocatorIS7_EEEEE4$_15PNS_4pairIyPKS7_EEEEvT1_SK_OT0_', symObjAddr: 0x7DCDC, symBinAddr: 0x10008177C, symSize: 0x90 }
  - { offsetInCU: 0xB40FB, offset: 0xB40FB, size: 0x8, addend: 0x0, symName: '__ZNSt3__110__pop_heapB7v160006INS_17_ClassicAlgPolicyEZN5Catch9sortTestsERKNS2_7IConfigERKNS_6vectorINS2_8TestCaseENS_9allocatorIS7_EEEEE4$_15PNS_4pairIyPKS7_EEEEvT1_SJ_RT0_NS_15iterator_traitsISJ_E15difference_typeE', symObjAddr: 0x7DD6C, symBinAddr: 0x10008180C, symSize: 0xF4 }
  - { offsetInCU: 0xB41B4, offset: 0xB41B4, size: 0x8, addend: 0x0, symName: '__ZNSt3__19__sift_upB7v160006INS_17_ClassicAlgPolicyERZN5Catch9sortTestsERKNS2_7IConfigERKNS_6vectorINS2_8TestCaseENS_9allocatorIS7_EEEEE4$_15PNS_4pairIyPKS7_EEEEvT1_SK_OT0_NS_15iterator_traitsISK_E15difference_typeE', symObjAddr: 0x7DF60, symBinAddr: 0x100081A00, symSize: 0x11C }
  - { offsetInCU: 0xB426C, offset: 0xB426C, size: 0x8, addend: 0x0, symName: '__ZNSt3__17__sort5IRZN5Catch9sortTestsERKNS1_7IConfigERKNS_6vectorINS1_8TestCaseENS_9allocatorIS6_EEEEE4$_15PNS_4pairIyPKS6_EEEEjT0_SJ_SJ_SJ_SJ_T_', symObjAddr: 0x7E07C, symBinAddr: 0x100081B1C, symSize: 0x12C }
  - { offsetInCU: 0xB4379, offset: 0xB4379, size: 0x8, addend: 0x0, symName: __ZNSt3__112__to_addressB7v160006INS_11__wrap_iterIPNS_4pairIyPKN5Catch8TestCaseEEEEEvEENS_5decayIDTclsr19__to_address_helperIT_EE6__callclsr3stdE7declvalIRKSB_EEEEE4typeESD_, symObjAddr: 0x7E1D0, symBinAddr: 0x100081C70, symSize: 0x24 }
  - { offsetInCU: 0xB441D, offset: 0xB441D, size: 0x8, addend: 0x0, symName: __ZNSt3__142__uninitialized_allocator_move_if_noexceptB7v160006INS_9allocatorIN5Catch8TestCaseEEENS_16reverse_iteratorIPS3_EES7_S7_EET2_RT_T0_T1_S8_, symObjAddr: 0x7E7F8, symBinAddr: 0x100082298, symSize: 0x124 }
  - { offsetInCU: 0xB44BE, offset: 0xB44BE, size: 0x8, addend: 0x0, symName: __ZNSt3__14swapB7v160006IPN5Catch8TestCaseEEENS_9enable_ifIXaasr21is_move_constructibleIT_EE5valuesr18is_move_assignableIS5_EE5valueEvE4typeERS5_S8_, symObjAddr: 0x7E91C, symBinAddr: 0x1000823BC, symSize: 0x3C }
  - { offsetInCU: 0xB4513, offset: 0xB4513, size: 0x8, addend: 0x0, symName: __ZNSt3__125__debug_db_invalidate_allB7v160006INS_6vectorIN5Catch8TestCaseENS_9allocatorIS3_EEEEEEvPT_, symObjAddr: 0x7E958, symBinAddr: 0x1000823F8, symSize: 0x10 }
  - { offsetInCU: 0xB4546, offset: 0xB4546, size: 0x8, addend: 0x0, symName: __ZNSt3__122__make_exception_guardB7v160006INS_29_AllocatorDestroyRangeReverseINS_9allocatorIN5Catch8TestCaseEEENS_16reverse_iteratorIPS4_EEEEEENS_28__exception_guard_exceptionsIT_EESB_, symObjAddr: 0x7E968, symBinAddr: 0x100082408, symSize: 0x4C }
  - { offsetInCU: 0xB457E, offset: 0xB457E, size: 0x8, addend: 0x0, symName: __ZNSt3__112construct_atB7v160006IN5Catch8TestCaseEJS2_EPS2_EEPT_S5_DpOT0_, symObjAddr: 0x7EB34, symBinAddr: 0x1000825D4, symSize: 0x3C }
  - { offsetInCU: 0xB45F5, offset: 0xB45F5, size: 0x8, addend: 0x0, symName: __ZNSt3__119__allocator_destroyB7v160006INS_9allocatorIN5Catch8TestCaseEEENS_16reverse_iteratorINS5_IPS3_EEEES8_EEvRT_T0_T1_, symObjAddr: 0x7EC74, symBinAddr: 0x100082714, symSize: 0x70 }
  - { offsetInCU: 0xB465B, offset: 0xB465B, size: 0x8, addend: 0x0, symName: __ZNSt3__1neB7v160006INS_16reverse_iteratorIPN5Catch8TestCaseEEES5_EEbRKNS1_IT_EERKNS1_IT0_EE, symObjAddr: 0x7ED20, symBinAddr: 0x1000827C0, symSize: 0x60 }
  - { offsetInCU: 0xB46AA, offset: 0xB46AA, size: 0x8, addend: 0x0, symName: __ZNSt3__112__to_addressB7v160006INS_16reverse_iteratorINS1_IPN5Catch8TestCaseEEEEEvEENS_5decayIDTclsr19__to_address_helperIT_EE6__callclsr3stdE7declvalIRKS8_EEEEE4typeESA_, symObjAddr: 0x7ED80, symBinAddr: 0x100082820, symSize: 0x24 }
  - { offsetInCU: 0xB470D, offset: 0xB470D, size: 0x8, addend: 0x0, symName: __ZNSt3__14prevB7v160006INS_16reverse_iteratorIPN5Catch8TestCaseEEEEENS_9enable_ifIXsr25__is_cpp17_input_iteratorIT_EE5valueES7_E4typeES7_NS_15iterator_traitsIS7_E15difference_typeE, symObjAddr: 0x7EE7C, symBinAddr: 0x10008291C, symSize: 0x60 }
  - { offsetInCU: 0xB4753, offset: 0xB4753, size: 0x8, addend: 0x0, symName: __ZNSt3__19__advanceB7v160006INS_16reverse_iteratorIPN5Catch8TestCaseEEEEEvRT_NS_15iterator_traitsIS6_E15difference_typeENS_26random_access_iterator_tagE, symObjAddr: 0x7EF2C, symBinAddr: 0x1000829CC, symSize: 0x2C }
  - { offsetInCU: 0xB47A0, offset: 0xB47A0, size: 0x8, addend: 0x0, symName: __ZNSt3__1eqB7v160006IPNS_4pairIyPKN5Catch8TestCaseEEEEEbRKNS_11__wrap_iterIT_EESC_, symObjAddr: 0x7F1C0, symBinAddr: 0x100082C60, symSize: 0x48 }
  - { offsetInCU: 0xB47E6, offset: 0xB47E6, size: 0x8, addend: 0x0, symName: __ZNSt3__112construct_atB7v160006IN5Catch8TestCaseEJRKS2_EPS2_EEPT_S7_DpOT0_, symObjAddr: 0x7F3BC, symBinAddr: 0x100082E5C, symSize: 0x3C }
  - { offsetInCU: 0xB485E, offset: 0xB485E, size: 0x8, addend: 0x0, symName: __ZNSt3__118__debug_db_erase_cB7v160006INS_6vectorINS_4pairIyPKN5Catch8TestCaseEEENS_9allocatorIS7_EEEEEEvPT_, symObjAddr: 0x7F5E0, symBinAddr: 0x100083080, symSize: 0x10 }
  - { offsetInCU: 0xB4891, offset: 0xB4891, size: 0x8, addend: 0x0, symName: __ZNSt3__115__debug_db_swapB7v160006INS_6vectorIN5Catch8TestCaseENS_9allocatorIS3_EEEEEEvPT_S8_, symObjAddr: 0x7F8E0, symBinAddr: 0x100083380, symSize: 0x14 }
  - { offsetInCU: 0xB48D2, offset: 0xB48D2, size: 0x8, addend: 0x0, symName: __ZNSt3__111__str_rfindB7v160006IcmNS_11char_traitsIcEELm18446744073709551615EEET0_PKT_S3_S6_S3_S3_, symObjAddr: 0x7FA48, symBinAddr: 0x1000834E8, symSize: 0x128 }
  - { offsetInCU: 0xB497B, offset: 0xB497B, size: 0x8, addend: 0x0, symName: __ZNSt3__118__find_end_classicB7v160006IPKcS2_DoFbccEEET_S4_S4_T0_S5_RT1_, symObjAddr: 0x7FB70, symBinAddr: 0x100083610, symSize: 0x64 }
  - { offsetInCU: 0xB4A0F, offset: 0xB4A0F, size: 0x8, addend: 0x0, symName: __ZNSt3__115__find_end_implB7v160006INS_17_ClassicAlgPolicyEPKcS3_S3_S3_DoFbccENS_10__identityES5_EENS_4pairIT0_S7_EES7_T1_T2_T3_RT4_RT5_RT6_NS_20forward_iterator_tagESI_, symObjAddr: 0x7FBD4, symBinAddr: 0x100083674, symSize: 0x1F4 }
  - { offsetInCU: 0xB4B40, offset: 0xB4B40, size: 0x8, addend: 0x0, symName: __ZNSt3__18__invokeB7v160006IRDoFbccEJRKcS4_EEEDTclclsr3stdE7declvalIT_EEspclsr3stdE7declvalIT0_EEEEOS5_DpOS6_, symObjAddr: 0x7FE1C, symBinAddr: 0x1000838BC, symSize: 0x40 }
  - { offsetInCU: 0xB4BA8, offset: 0xB4BA8, size: 0x8, addend: 0x0, symName: __ZNSt3__18__invokeB7v160006IRNS_10__identityEJRKcEEEDTclclsr3stdE7declvalIT_EEspclsr3stdE7declvalIT0_EEEEOS5_DpOS6_, symObjAddr: 0x7FE5C, symBinAddr: 0x1000838FC, symSize: 0x2C }
  - { offsetInCU: 0xB4C4F, offset: 0xB4C4F, size: 0x8, addend: 0x0, symName: __ZNSt3__119__debug_db_insert_cB7v160006INS_6vectorINS_10shared_ptrIN5Catch16TestCaseTracking8ITrackerEEENS_9allocatorIS6_EEEEEEvPT_, symObjAddr: 0x7FFDC, symBinAddr: 0x100083A7C, symSize: 0x10 }
  - { offsetInCU: 0xB4CA9, offset: 0xB4CA9, size: 0x8, addend: 0x0, symName: __ZNSt3__112construct_atB7v160006INS_10shared_ptrIN5Catch16TestCaseTracking8ITrackerEEEJRKS5_EPS5_EEPT_SA_DpOT0_, symObjAddr: 0x80358, symBinAddr: 0x100083DF8, symSize: 0x3C }
  - { offsetInCU: 0xB4D21, offset: 0xB4D21, size: 0x8, addend: 0x0, symName: __ZNSt3__119__allocate_at_leastB7v160006INS_9allocatorINS_10shared_ptrIN5Catch16TestCaseTracking8ITrackerEEEEEEENS_19__allocation_resultINS_16allocator_traitsIT_E7pointerEEERSA_m, symObjAddr: 0x80804, symBinAddr: 0x1000842A4, symSize: 0x40 }
  - { offsetInCU: 0xB4D66, offset: 0xB4D66, size: 0x8, addend: 0x0, symName: __ZNSt3__142__uninitialized_allocator_move_if_noexceptB7v160006INS_9allocatorINS_10shared_ptrIN5Catch16TestCaseTracking8ITrackerEEEEENS_16reverse_iteratorIPS6_EESA_SA_EET2_RT_T0_T1_SB_, symObjAddr: 0x809B8, symBinAddr: 0x100084458, symSize: 0x12C }
  - { offsetInCU: 0xB4E07, offset: 0xB4E07, size: 0x8, addend: 0x0, symName: __ZNSt3__14swapB7v160006IPNS_10shared_ptrIN5Catch16TestCaseTracking8ITrackerEEEEENS_9enable_ifIXaasr21is_move_constructibleIT_EE5valuesr18is_move_assignableIS8_EE5valueEvE4typeERS8_SB_, symObjAddr: 0x80B30, symBinAddr: 0x1000845D0, symSize: 0x3C }
  - { offsetInCU: 0xB4E5C, offset: 0xB4E5C, size: 0x8, addend: 0x0, symName: __ZNSt3__125__debug_db_invalidate_allB7v160006INS_6vectorINS_10shared_ptrIN5Catch16TestCaseTracking8ITrackerEEENS_9allocatorIS6_EEEEEEvPT_, symObjAddr: 0x80C18, symBinAddr: 0x1000846B8, symSize: 0x10 }
  - { offsetInCU: 0xB4E8F, offset: 0xB4E8F, size: 0x8, addend: 0x0, symName: __ZNSt3__122__make_exception_guardB7v160006INS_29_AllocatorDestroyRangeReverseINS_9allocatorINS_10shared_ptrIN5Catch16TestCaseTracking8ITrackerEEEEENS_16reverse_iteratorIPS7_EEEEEENS_28__exception_guard_exceptionsIT_EESE_, symObjAddr: 0x80C28, symBinAddr: 0x1000846C8, symSize: 0x4C }
  - { offsetInCU: 0xB4EC7, offset: 0xB4EC7, size: 0x8, addend: 0x0, symName: __ZNSt3__1neB7v160006IPNS_10shared_ptrIN5Catch16TestCaseTracking8ITrackerEEES6_EEbRKNS_16reverse_iteratorIT_EERKNS7_IT0_EE, symObjAddr: 0x80CB8, symBinAddr: 0x100084758, symSize: 0x48 }
  - { offsetInCU: 0xB4F16, offset: 0xB4F16, size: 0x8, addend: 0x0, symName: __ZNSt3__112__to_addressB7v160006INS_16reverse_iteratorIPNS_10shared_ptrIN5Catch16TestCaseTracking8ITrackerEEEEEvEENS_5decayIDTclsr19__to_address_helperIT_EE6__callclsr3stdE7declvalIRKSA_EEEEE4typeESC_, symObjAddr: 0x80D30, symBinAddr: 0x1000847D0, symSize: 0x24 }
  - { offsetInCU: 0xB4F4E, offset: 0xB4F4E, size: 0x8, addend: 0x0, symName: __ZNSt3__112construct_atB7v160006INS_10shared_ptrIN5Catch16TestCaseTracking8ITrackerEEEJS5_EPS5_EEPT_S8_DpOT0_, symObjAddr: 0x80E80, symBinAddr: 0x100084920, symSize: 0x3C }
  - { offsetInCU: 0xB4FF1, offset: 0xB4FF1, size: 0x8, addend: 0x0, symName: __ZNSt3__14prevB7v160006IPNS_10shared_ptrIN5Catch16TestCaseTracking8ITrackerEEEEENS_9enable_ifIXsr25__is_cpp17_input_iteratorIT_EE5valueES8_E4typeES8_NS_15iterator_traitsIS8_E15difference_typeE, symObjAddr: 0x80F94, symBinAddr: 0x100084A34, symSize: 0x50 }
  - { offsetInCU: 0xB5037, offset: 0xB5037, size: 0x8, addend: 0x0, symName: __ZNSt3__19__advanceB7v160006IPNS_10shared_ptrIN5Catch16TestCaseTracking8ITrackerEEEEEvRT_NS_15iterator_traitsIS7_E15difference_typeENS_26random_access_iterator_tagE, symObjAddr: 0x81034, symBinAddr: 0x100084AD4, symSize: 0x28 }
  - { offsetInCU: 0xB5083, offset: 0xB5083, size: 0x8, addend: 0x0, symName: __ZNSt3__119__allocator_destroyB7v160006INS_9allocatorINS_10shared_ptrIN5Catch16TestCaseTracking8ITrackerEEEEENS_16reverse_iteratorINS8_IPS6_EEEESB_EEvRT_T0_T1_, symObjAddr: 0x81160, symBinAddr: 0x100084C00, symSize: 0x70 }
  - { offsetInCU: 0xB50E9, offset: 0xB50E9, size: 0x8, addend: 0x0, symName: __ZNSt3__1neB7v160006INS_16reverse_iteratorIPNS_10shared_ptrIN5Catch16TestCaseTracking8ITrackerEEEEES8_EEbRKNS1_IT_EERKNS1_IT0_EE, symObjAddr: 0x8120C, symBinAddr: 0x100084CAC, symSize: 0x60 }
  - { offsetInCU: 0xB5138, offset: 0xB5138, size: 0x8, addend: 0x0, symName: __ZNSt3__112__to_addressB7v160006INS_16reverse_iteratorINS1_IPNS_10shared_ptrIN5Catch16TestCaseTracking8ITrackerEEEEEEEvEENS_5decayIDTclsr19__to_address_helperIT_EE6__callclsr3stdE7declvalIRKSB_EEEEE4typeESD_, symObjAddr: 0x8126C, symBinAddr: 0x100084D0C, symSize: 0x24 }
  - { offsetInCU: 0xB519B, offset: 0xB519B, size: 0x8, addend: 0x0, symName: __ZNSt3__14prevB7v160006INS_16reverse_iteratorIPNS_10shared_ptrIN5Catch16TestCaseTracking8ITrackerEEEEEEENS_9enable_ifIXsr25__is_cpp17_input_iteratorIT_EE5valueESA_E4typeESA_NS_15iterator_traitsISA_E15difference_typeE, symObjAddr: 0x81368, symBinAddr: 0x100084E08, symSize: 0x60 }
  - { offsetInCU: 0xB51E1, offset: 0xB51E1, size: 0x8, addend: 0x0, symName: __ZNSt3__19__advanceB7v160006INS_16reverse_iteratorIPNS_10shared_ptrIN5Catch16TestCaseTracking8ITrackerEEEEEEEvRT_NS_15iterator_traitsIS9_E15difference_typeENS_26random_access_iterator_tagE, symObjAddr: 0x81418, symBinAddr: 0x100084EB8, symSize: 0x2C }
  - { offsetInCU: 0xB522E, offset: 0xB522E, size: 0x8, addend: 0x0, symName: __ZNSt3__1eqB7v160006IPNS_10shared_ptrIN5Catch16TestCaseTracking8ITrackerEEEEEbRKNS_11__wrap_iterIT_EESB_, symObjAddr: 0x81808, symBinAddr: 0x1000852A8, symSize: 0x48 }
  - { offsetInCU: 0xB5274, offset: 0xB5274, size: 0x8, addend: 0x0, symName: __ZNSt3__112construct_atB7v160006INS_12basic_stringIcNS_11char_traitsIcEENS_9allocatorIcEEEEJRA1_KcEPS6_EEPT_SC_DpOT0_, symObjAddr: 0x81A74, symBinAddr: 0x100085514, symSize: 0x3C }
  - { offsetInCU: 0xB52EC, offset: 0xB52EC, size: 0x8, addend: 0x0, symName: __ZNSt3__18distanceB7v160006INS_11__wrap_iterIPKNS_12basic_stringIcNS_11char_traitsIcEENS_9allocatorIcEEEEEEEENS_15iterator_traitsIT_E15difference_typeESC_SC_, symObjAddr: 0x81AB0, symBinAddr: 0x100085550, symSize: 0x3C }
  - { offsetInCU: 0xB5332, offset: 0xB5332, size: 0x8, addend: 0x0, symName: __ZNSt3__14copyB7v160006INS_11__wrap_iterIPKNS_12basic_stringIcNS_11char_traitsIcEENS_9allocatorIcEEEEEEPS7_EET0_T_SD_SC_, symObjAddr: 0x81BD8, symBinAddr: 0x100085678, symSize: 0x50 }
  - { offsetInCU: 0xB5390, offset: 0xB5390, size: 0x8, addend: 0x0, symName: __ZNSt3__110__distanceB7v160006INS_11__wrap_iterIPKNS_12basic_stringIcNS_11char_traitsIcEENS_9allocatorIcEEEEEEEENS_15iterator_traitsIT_E15difference_typeESC_SC_NS_26random_access_iterator_tagE, symObjAddr: 0x81D18, symBinAddr: 0x1000857B8, symSize: 0x30 }
  - { offsetInCU: 0xB53E1, offset: 0xB53E1, size: 0x8, addend: 0x0, symName: __ZNSt3__19__advanceB7v160006INS_11__wrap_iterIPKNS_12basic_stringIcNS_11char_traitsIcEENS_9allocatorIcEEEEEEEEvRT_NS_15iterator_traitsISB_E15difference_typeENS_26random_access_iterator_tagE, symObjAddr: 0x81D48, symBinAddr: 0x1000857E8, symSize: 0x2C }
  - { offsetInCU: 0xB542D, offset: 0xB542D, size: 0x8, addend: 0x0, symName: __ZNSt3__130__uninitialized_allocator_copyB7v160006INS_9allocatorINS_12basic_stringIcNS_11char_traitsIcEENS1_IcEEEEEENS_11__wrap_iterIPKS6_EESB_PS6_EET2_RT_T0_T1_SD_, symObjAddr: 0x81DA4, symBinAddr: 0x100085844, symSize: 0xF8 }
  - { offsetInCU: 0xB54CC, offset: 0xB54CC, size: 0x8, addend: 0x0, symName: __ZNSt3__16__copyB7v160006INS_17_ClassicAlgPolicyENS_11__wrap_iterIPKNS_12basic_stringIcNS_11char_traitsIcEENS_9allocatorIcEEEEEESB_PS8_EENS_4pairIT0_T2_EESE_T1_SF_, symObjAddr: 0x81E9C, symBinAddr: 0x10008593C, symSize: 0x54 }
  - { offsetInCU: 0xB553C, offset: 0xB553C, size: 0x8, addend: 0x0, symName: __ZNSt3__123__dispatch_copy_or_moveB7v160006INS_17_ClassicAlgPolicyENS_11__copy_loopIS1_EENS_14__copy_trivialENS_11__wrap_iterIPKNS_12basic_stringIcNS_11char_traitsIcEENS_9allocatorIcEEEEEESE_PSB_EENS_4pairIT2_T4_EESH_T3_SI_, symObjAddr: 0x81EF0, symBinAddr: 0x100085990, symSize: 0x54 }
  - { offsetInCU: 0xB55BE, offset: 0xB55BE, size: 0x8, addend: 0x0, symName: __ZNSt3__121__unwrap_and_dispatchB7v160006INS_10__overloadINS_11__copy_loopINS_17_ClassicAlgPolicyEEENS_14__copy_trivialEEENS_11__wrap_iterIPKNS_12basic_stringIcNS_11char_traitsIcEENS_9allocatorIcEEEEEESG_PSD_Li0EEENS_4pairIT0_T2_EESJ_T1_SK_, symObjAddr: 0x81F44, symBinAddr: 0x1000859E4, symSize: 0xCC }
  - { offsetInCU: 0xB5653, offset: 0xB5653, size: 0x8, addend: 0x0, symName: __ZNSt3__114__unwrap_rangeB7v160006INS_11__wrap_iterIPKNS_12basic_stringIcNS_11char_traitsIcEENS_9allocatorIcEEEEEESA_EEDaT_T0_, symObjAddr: 0x82010, symBinAddr: 0x100085AB0, symSize: 0x4C }
  - { offsetInCU: 0xB56A1, offset: 0xB56A1, size: 0x8, addend: 0x0, symName: __ZNSt3__19make_pairB7v160006INS_11__wrap_iterIPKNS_12basic_stringIcNS_11char_traitsIcEENS_9allocatorIcEEEEEEPS7_EENS_4pairINS_18__unwrap_ref_decayIT_E4typeENSD_IT0_E4typeEEEOSE_OSH_, symObjAddr: 0x8205C, symBinAddr: 0x100085AFC, symSize: 0x38 }
  - { offsetInCU: 0xB56F1, offset: 0xB56F1, size: 0x8, addend: 0x0, symName: __ZNSt3__114__rewrap_rangeB7v160006INS_11__wrap_iterIPKNS_12basic_stringIcNS_11char_traitsIcEENS_9allocatorIcEEEEEESA_S9_EET0_SB_T1_, symObjAddr: 0x82094, symBinAddr: 0x100085B34, symSize: 0x3C }
  - { offsetInCU: 0xB579C, offset: 0xB579C, size: 0x8, addend: 0x0, symName: __ZNSt3__113__unwrap_iterB7v160006INS_11__wrap_iterIPKNS_12basic_stringIcNS_11char_traitsIcEENS_9allocatorIcEEEEEENS_18__unwrap_iter_implISA_Lb1EEELi0EEEDTclsrT0_8__unwrapclsr3stdE7declvalIT_EEEESE_, symObjAddr: 0x82138, symBinAddr: 0x100085BD8, symSize: 0x2C }
  - { offsetInCU: 0xB583B, offset: 0xB583B, size: 0x8, addend: 0x0, symName: __ZNSt3__112__to_addressB7v160006INS_11__wrap_iterIPKNS_12basic_stringIcNS_11char_traitsIcEENS_9allocatorIcEEEEEEvEENS_5decayIDTclsr19__to_address_helperIT_EE6__callclsr3stdE7declvalIRKSC_EEEEE4typeESE_, symObjAddr: 0x8218C, symBinAddr: 0x100085C2C, symSize: 0x24 }
  - { offsetInCU: 0xB59FD, offset: 0xB59FD, size: 0x8, addend: 0x0, symName: __ZNSt3__113__rewrap_iterB7v160006INS_11__wrap_iterIPKNS_12basic_stringIcNS_11char_traitsIcEENS_9allocatorIcEEEEEES9_NS_18__unwrap_iter_implISA_Lb1EEEEET_SD_T0_, symObjAddr: 0x822B8, symBinAddr: 0x100085D58, symSize: 0x4C }
  - { offsetInCU: 0xB5A55, offset: 0xB5A55, size: 0x8, addend: 0x0, symName: __ZNSt3__1eqB7v160006IPKNS_10shared_ptrIN5Catch8TestSpec7PatternEEEEEbRKNS_11__wrap_iterIT_EESC_, symObjAddr: 0x8243C, symBinAddr: 0x100085EDC, symSize: 0x48 }
  - { offsetInCU: 0xB5A9B, offset: 0xB5A9B, size: 0x8, addend: 0x0, symName: __ZNSt3__1neB7v160006IPKN5Catch8TestSpec6FilterEEEbRKNS_11__wrap_iterIT_EESA_, symObjAddr: 0x8249C, symBinAddr: 0x100085F3C, symSize: 0x34 }
  - { offsetInCU: 0xB5AE1, offset: 0xB5AE1, size: 0x8, addend: 0x0, symName: __ZNSt3__1eqB7v160006IPKN5Catch8TestSpec6FilterEEEbRKNS_11__wrap_iterIT_EESA_, symObjAddr: 0x8253C, symBinAddr: 0x100085FDC, symSize: 0x48 }
  - { offsetInCU: 0xB5B27, offset: 0xB5B27, size: 0x8, addend: 0x0, symName: __ZNSt3__122__make_exception_guardB7v160006INS_6vectorIN5Catch8TestSpec11FilterMatchENS_9allocatorIS4_EEE16__destroy_vectorEEENS_28__exception_guard_exceptionsIT_EESA_, symObjAddr: 0x8270C, symBinAddr: 0x1000861AC, symSize: 0x40 }
  - { offsetInCU: 0xB5B5E, offset: 0xB5B5E, size: 0x8, addend: 0x0, symName: __ZNSt3__119__allocate_at_leastB7v160006INS_9allocatorIN5Catch8TestSpec11FilterMatchEEEEENS_19__allocation_resultINS_16allocator_traitsIT_E7pointerEEERS8_m, symObjAddr: 0x82A38, symBinAddr: 0x1000864D8, symSize: 0x40 }
  - { offsetInCU: 0xB5BCB, offset: 0xB5BCB, size: 0x8, addend: 0x0, symName: __ZNSt3__112construct_atB7v160006IN5Catch8TestSpec11FilterMatchEJEPS3_EEPT_S6_DpOT0_, symObjAddr: 0x82D00, symBinAddr: 0x1000867A0, symSize: 0x44 }
  - { offsetInCU: 0xB5C2D, offset: 0xB5C2D, size: 0x8, addend: 0x0, symName: __ZNSt3__119__debug_db_insert_cB7v160006INS_6vectorIPKN5Catch8TestCaseENS_9allocatorIS5_EEEEEEvPT_, symObjAddr: 0x82E68, symBinAddr: 0x100086908, symSize: 0x10 }
  - { offsetInCU: 0xB5C60, offset: 0xB5C60, size: 0x8, addend: 0x0, symName: __ZNSt3__118__debug_db_erase_cB7v160006INS_6vectorIN5Catch8TestSpec11FilterMatchENS_9allocatorIS4_EEEEEEvPT_, symObjAddr: 0x83120, symBinAddr: 0x100086BC0, symSize: 0x10 }
  - { offsetInCU: 0xB5C93, offset: 0xB5C93, size: 0x8, addend: 0x0, symName: __ZNSt3__119__allocate_at_leastB7v160006INS_9allocatorIPKN5Catch8TestCaseEEEEENS_19__allocation_resultINS_16allocator_traitsIT_E7pointerEEERS9_m, symObjAddr: 0x83AAC, symBinAddr: 0x10008754C, symSize: 0x40 }
  - { offsetInCU: 0xB5CD8, offset: 0xB5CD8, size: 0x8, addend: 0x0, symName: __ZNSt3__142__uninitialized_allocator_move_if_noexceptB7v160006INS_9allocatorIPKN5Catch8TestCaseEEENS_16reverse_iteratorIPS5_EES9_S5_vEET1_RT_T0_SD_SA_, symObjAddr: 0x83C60, symBinAddr: 0x100087700, symSize: 0x78 }
  - { offsetInCU: 0xB5D56, offset: 0xB5D56, size: 0x8, addend: 0x0, symName: __ZNSt3__14swapB7v160006IPPKN5Catch8TestCaseEEENS_9enable_ifIXaasr21is_move_constructibleIT_EE5valuesr18is_move_assignableIS7_EE5valueEvE4typeERS7_SA_, symObjAddr: 0x83D24, symBinAddr: 0x1000877C4, symSize: 0x3C }
  - { offsetInCU: 0xB5DAB, offset: 0xB5DAB, size: 0x8, addend: 0x0, symName: __ZNSt3__125__debug_db_invalidate_allB7v160006INS_6vectorIPKN5Catch8TestCaseENS_9allocatorIS5_EEEEEEvPT_, symObjAddr: 0x83E0C, symBinAddr: 0x1000878AC, symSize: 0x10 }
  - { offsetInCU: 0xB5DDE, offset: 0xB5DDE, size: 0x8, addend: 0x0, symName: __ZNSt3__14moveB7v160006INS_16reverse_iteratorIPPKN5Catch8TestCaseEEES7_EET0_T_S9_S8_, symObjAddr: 0x83E1C, symBinAddr: 0x1000878BC, symSize: 0x78 }
  - { offsetInCU: 0xB5E3C, offset: 0xB5E3C, size: 0x8, addend: 0x0, symName: __ZNSt3__16__moveB7v160006INS_17_ClassicAlgPolicyENS_16reverse_iteratorIPPKN5Catch8TestCaseEEES8_S8_EENS_4pairIT0_T2_EESA_T1_SB_, symObjAddr: 0x83E94, symBinAddr: 0x100087934, symSize: 0x64 }
  - { offsetInCU: 0xB5EAC, offset: 0xB5EAC, size: 0x8, addend: 0x0, symName: __ZNSt3__123__dispatch_copy_or_moveB7v160006INS_17_ClassicAlgPolicyENS_11__move_loopIS1_EENS_14__move_trivialENS_16reverse_iteratorIPPKN5Catch8TestCaseEEESB_SB_EENS_4pairIT2_T4_EESD_T3_SE_, symObjAddr: 0x83EF8, symBinAddr: 0x100087998, symSize: 0x64 }
  - { offsetInCU: 0xB5F2E, offset: 0xB5F2E, size: 0x8, addend: 0x0, symName: __ZNSt3__121__unwrap_and_dispatchB7v160006INS_10__overloadINS_11__move_loopINS_17_ClassicAlgPolicyEEENS_14__move_trivialEEENS_16reverse_iteratorIPPKN5Catch8TestCaseEEESD_SD_Li0EEENS_4pairIT0_T2_EESF_T1_SG_, symObjAddr: 0x83F5C, symBinAddr: 0x1000879FC, symSize: 0x12C }
  - { offsetInCU: 0xB5FC5, offset: 0xB5FC5, size: 0x8, addend: 0x0, symName: __ZNSt3__114__unwrap_rangeB7v160006INS_16reverse_iteratorIPPKN5Catch8TestCaseEEES7_EEDaT_T0_, symObjAddr: 0x84088, symBinAddr: 0x100087B28, symSize: 0x4C }
  - { offsetInCU: 0xB60EF, offset: 0xB60EF, size: 0x8, addend: 0x0, symName: __ZNSt3__113__unwrap_iterB7v160006INS_16reverse_iteratorIPPKN5Catch8TestCaseEEENS_18__unwrap_iter_implIS7_Lb0EEELi0EEEDTclsrT0_8__unwrapclsr3stdE7declvalIT_EEEESB_, symObjAddr: 0x84174, symBinAddr: 0x100087C14, symSize: 0x44 }
  - { offsetInCU: 0xB6135, offset: 0xB6135, size: 0x8, addend: 0x0, symName: __ZNSt3__19make_pairB7v160006INS_16reverse_iteratorIPPKN5Catch8TestCaseEEES7_EENS_4pairINS_18__unwrap_ref_decayIT_E4typeENS9_IT0_E4typeEEEOSA_OSD_, symObjAddr: 0x841B8, symBinAddr: 0x100087C58, symSize: 0x38 }
  - { offsetInCU: 0xB6185, offset: 0xB6185, size: 0x8, addend: 0x0, symName: __ZNSt3__114__rewrap_rangeB7v160006INS_16reverse_iteratorIPPKN5Catch8TestCaseEEES7_S7_EET0_S8_T1_, symObjAddr: 0x841F0, symBinAddr: 0x100087C90, symSize: 0x5C }
  - { offsetInCU: 0xB61DD, offset: 0xB61DD, size: 0x8, addend: 0x0, symName: __ZNSt3__113__rewrap_iterB7v160006INS_16reverse_iteratorIPPKN5Catch8TestCaseEEES7_NS_18__unwrap_iter_implIS7_Lb0EEEEET_SA_T0_, symObjAddr: 0x8424C, symBinAddr: 0x100087CEC, symSize: 0x74 }
  - { offsetInCU: 0xB6288, offset: 0xB6288, size: 0x8, addend: 0x0, symName: __ZNSt3__1neB7v160006IPPKN5Catch8TestCaseES5_EEbRKNS_16reverse_iteratorIT_EERKNS6_IT0_EE, symObjAddr: 0x843B4, symBinAddr: 0x100087E54, symSize: 0x48 }
  - { offsetInCU: 0xB634A, offset: 0xB634A, size: 0x8, addend: 0x0, symName: __ZNSt3__122__make_exception_guardB7v160006INS_6vectorIPKN5Catch8TestCaseENS_9allocatorIS5_EEE16__destroy_vectorEEENS_28__exception_guard_exceptionsIT_EESB_, symObjAddr: 0x8488C, symBinAddr: 0x10008832C, symSize: 0x40 }
  - { offsetInCU: 0xB6380, offset: 0xB6380, size: 0x8, addend: 0x0, symName: __ZNSt3__130__uninitialized_allocator_copyB7v160006INS_9allocatorIPKN5Catch8TestCaseEEEPS5_S7_S7_EET2_RT_T0_T1_S8_, symObjAddr: 0x84B00, symBinAddr: 0x1000885A0, symSize: 0xF4 }
  - { offsetInCU: 0xB641F, offset: 0xB641F, size: 0x8, addend: 0x0, symName: __ZNSt3__122__make_exception_guardB7v160006INS_29_AllocatorDestroyRangeReverseINS_9allocatorIPKN5Catch8TestCaseEEEPS6_EEEENS_28__exception_guard_exceptionsIT_EESB_, symObjAddr: 0x84BF4, symBinAddr: 0x100088694, symSize: 0x4C }
  - { offsetInCU: 0xB6457, offset: 0xB6457, size: 0x8, addend: 0x0, symName: __ZNSt3__112construct_atB7v160006IPKN5Catch8TestCaseEJRS4_EPS4_EEPT_S8_DpOT0_, symObjAddr: 0x84D98, symBinAddr: 0x100088838, symSize: 0x2C }
  - { offsetInCU: 0xB64CE, offset: 0xB64CE, size: 0x8, addend: 0x0, symName: __ZNSt3__119__allocator_destroyB7v160006INS_9allocatorIPKN5Catch8TestCaseEEENS_16reverse_iteratorIPS5_EES9_EEvRT_T0_T1_, symObjAddr: 0x84E7C, symBinAddr: 0x10008891C, symSize: 0x70 }
  - { offsetInCU: 0xB6532, offset: 0xB6532, size: 0x8, addend: 0x0, symName: __ZNSt3__112__to_addressB7v160006INS_16reverse_iteratorIPPKN5Catch8TestCaseEEEvEENS_5decayIDTclsr19__to_address_helperIT_EE6__callclsr3stdE7declvalIRKS9_EEEEE4typeESB_, symObjAddr: 0x84EEC, symBinAddr: 0x10008898C, symSize: 0x24 }
  - { offsetInCU: 0xB6595, offset: 0xB6595, size: 0x8, addend: 0x0, symName: __ZNSt3__14prevB7v160006IPPKN5Catch8TestCaseEEENS_9enable_ifIXsr25__is_cpp17_input_iteratorIT_EE5valueES7_E4typeES7_NS_15iterator_traitsIS7_E15difference_typeE, symObjAddr: 0x84F74, symBinAddr: 0x100088A14, symSize: 0x50 }
  - { offsetInCU: 0xB65DB, offset: 0xB65DB, size: 0x8, addend: 0x0, symName: __ZNSt3__19__advanceB7v160006IPPKN5Catch8TestCaseEEEvRT_NS_15iterator_traitsIS6_E15difference_typeENS_26random_access_iterator_tagE, symObjAddr: 0x85014, symBinAddr: 0x100088AB4, symSize: 0x28 }
  - { offsetInCU: 0xB6628, offset: 0xB6628, size: 0x8, addend: 0x0, symName: __ZNSt3__115__debug_db_swapB7v160006INS_6vectorIPKN5Catch8TestCaseENS_9allocatorIS5_EEEEEEvPT_SA_, symObjAddr: 0x85224, symBinAddr: 0x100088CC4, symSize: 0x14 }
  - { offsetInCU: 0xB666A, offset: 0xB666A, size: 0x8, addend: 0x0, symName: __ZNSt3__119__debug_db_insert_cB7v160006INS_6vectorImNS_9allocatorImEEEEEEvPT_, symObjAddr: 0x85448, symBinAddr: 0x100088EE8, symSize: 0x10 }
  - { offsetInCU: 0xB669D, offset: 0xB669D, size: 0x8, addend: 0x0, symName: __ZNSt3__119__debug_db_insert_cB7v160006INS_6vectorINS_10shared_ptrIN5Catch8TestSpec7PatternEEENS_9allocatorIS6_EEEEEEvPT_, symObjAddr: 0x8560C, symBinAddr: 0x1000890AC, symSize: 0x10 }
  - { offsetInCU: 0xB66D0, offset: 0xB66D0, size: 0x8, addend: 0x0, symName: __ZNSt3__125__debug_db_invalidate_allB7v160006INS_6vectorImNS_9allocatorImEEEEEEvPT_, symObjAddr: 0x856E4, symBinAddr: 0x100089184, symSize: 0x10 }
  - { offsetInCU: 0xB6703, offset: 0xB6703, size: 0x8, addend: 0x0, symName: __ZNSt3__122__make_exception_guardB7v160006INS_6vectorIN5Catch8TestSpec6FilterENS_9allocatorIS4_EEE16__destroy_vectorEEENS_28__exception_guard_exceptionsIT_EESA_, symObjAddr: 0x8591C, symBinAddr: 0x1000893BC, symSize: 0x40 }
  - { offsetInCU: 0xB673A, offset: 0xB673A, size: 0x8, addend: 0x0, symName: __ZNSt3__119__allocate_at_leastB7v160006INS_9allocatorIN5Catch8TestSpec6FilterEEEEENS_19__allocation_resultINS_16allocator_traitsIT_E7pointerEEERS8_m, symObjAddr: 0x85C4C, symBinAddr: 0x1000896EC, symSize: 0x40 }
  - { offsetInCU: 0xB677F, offset: 0xB677F, size: 0x8, addend: 0x0, symName: __ZNSt3__130__uninitialized_allocator_copyB7v160006INS_9allocatorIN5Catch8TestSpec6FilterEEEPS4_S6_S6_EET2_RT_T0_T1_S7_, symObjAddr: 0x85E14, symBinAddr: 0x1000898B4, symSize: 0xF4 }
  - { offsetInCU: 0xB681E, offset: 0xB681E, size: 0x8, addend: 0x0, symName: __ZNSt3__122__make_exception_guardB7v160006INS_29_AllocatorDestroyRangeReverseINS_9allocatorIN5Catch8TestSpec6FilterEEEPS5_EEEENS_28__exception_guard_exceptionsIT_EESA_, symObjAddr: 0x85F80, symBinAddr: 0x100089A20, symSize: 0x4C }
  - { offsetInCU: 0xB687D, offset: 0xB687D, size: 0x8, addend: 0x0, symName: __ZNSt3__112construct_atB7v160006IN5Catch8TestSpec6FilterEJRS3_EPS3_EEPT_S7_DpOT0_, symObjAddr: 0x86124, symBinAddr: 0x100089BC4, symSize: 0x3C }
  - { offsetInCU: 0xB68F5, offset: 0xB68F5, size: 0x8, addend: 0x0, symName: __ZNSt3__122__make_exception_guardB7v160006INS_6vectorINS_10shared_ptrIN5Catch8TestSpec7PatternEEENS_9allocatorIS6_EEE16__destroy_vectorEEENS_28__exception_guard_exceptionsIT_EESC_, symObjAddr: 0x86380, symBinAddr: 0x100089E20, symSize: 0x40 }
  - { offsetInCU: 0xB692C, offset: 0xB692C, size: 0x8, addend: 0x0, symName: __ZNSt3__119__allocate_at_leastB7v160006INS_9allocatorINS_10shared_ptrIN5Catch8TestSpec7PatternEEEEEEENS_19__allocation_resultINS_16allocator_traitsIT_E7pointerEEERSA_m, symObjAddr: 0x86724, symBinAddr: 0x10008A1C4, symSize: 0x40 }
  - { offsetInCU: 0xB6972, offset: 0xB6972, size: 0x8, addend: 0x0, symName: __ZNSt3__112__to_addressB7v160006INS_10shared_ptrIN5Catch8TestSpec7PatternEEEEEPT_S7_, symObjAddr: 0x869D8, symBinAddr: 0x10008A478, symSize: 0x14 }
  - { offsetInCU: 0xB69A8, offset: 0xB69A8, size: 0x8, addend: 0x0, symName: __ZNSt3__130__uninitialized_allocator_copyB7v160006INS_9allocatorINS_10shared_ptrIN5Catch8TestSpec7PatternEEEEEPS6_S8_S8_EET2_RT_T0_T1_S9_, symObjAddr: 0x86A88, symBinAddr: 0x10008A528, symSize: 0xF4 }
  - { offsetInCU: 0xB6A47, offset: 0xB6A47, size: 0x8, addend: 0x0, symName: __ZNSt3__122__make_exception_guardB7v160006INS_29_AllocatorDestroyRangeReverseINS_9allocatorINS_10shared_ptrIN5Catch8TestSpec7PatternEEEEEPS7_EEEENS_28__exception_guard_exceptionsIT_EESC_, symObjAddr: 0x86BEC, symBinAddr: 0x10008A68C, symSize: 0x4C }
  - { offsetInCU: 0xB6AA6, offset: 0xB6AA6, size: 0x8, addend: 0x0, symName: __ZNSt3__112construct_atB7v160006INS_10shared_ptrIN5Catch8TestSpec7PatternEEEJRS5_EPS5_EEPT_S9_DpOT0_, symObjAddr: 0x86D90, symBinAddr: 0x10008A830, symSize: 0x3C }
  - { offsetInCU: 0xB6B1D, offset: 0xB6B1D, size: 0x8, addend: 0x0, symName: __ZNSt3__119__allocator_destroyB7v160006INS_9allocatorINS_10shared_ptrIN5Catch8TestSpec7PatternEEEEENS_16reverse_iteratorIPS6_EESA_EEvRT_T0_T1_, symObjAddr: 0x86E84, symBinAddr: 0x10008A924, symSize: 0x70 }
  - { offsetInCU: 0xB6B81, offset: 0xB6B81, size: 0x8, addend: 0x0, symName: __ZNSt3__1neB7v160006IPNS_10shared_ptrIN5Catch8TestSpec7PatternEEES6_EEbRKNS_16reverse_iteratorIT_EERKNS7_IT0_EE, symObjAddr: 0x86F28, symBinAddr: 0x10008A9C8, symSize: 0x48 }
  - { offsetInCU: 0xB6BD0, offset: 0xB6BD0, size: 0x8, addend: 0x0, symName: __ZNSt3__112__to_addressB7v160006INS_16reverse_iteratorIPNS_10shared_ptrIN5Catch8TestSpec7PatternEEEEEvEENS_5decayIDTclsr19__to_address_helperIT_EE6__callclsr3stdE7declvalIRKSA_EEEEE4typeESC_, symObjAddr: 0x86F98, symBinAddr: 0x10008AA38, symSize: 0x24 }
  - { offsetInCU: 0xB6C08, offset: 0xB6C08, size: 0x8, addend: 0x0, symName: __ZNSt3__110destroy_atB7v160006INS_10shared_ptrIN5Catch8TestSpec7PatternEEELi0EEEvPT_, symObjAddr: 0x86FF4, symBinAddr: 0x10008AA94, symSize: 0x24 }
  - { offsetInCU: 0xB6C42, offset: 0xB6C42, size: 0x8, addend: 0x0, symName: __ZNSt3__112__destroy_atB7v160006INS_10shared_ptrIN5Catch8TestSpec7PatternEEELi0EEEvPT_, symObjAddr: 0x87018, symBinAddr: 0x10008AAB8, symSize: 0x24 }
  - { offsetInCU: 0xB6CA7, offset: 0xB6CA7, size: 0x8, addend: 0x0, symName: __ZNSt3__14prevB7v160006IPNS_10shared_ptrIN5Catch8TestSpec7PatternEEEEENS_9enable_ifIXsr25__is_cpp17_input_iteratorIT_EE5valueES8_E4typeES8_NS_15iterator_traitsIS8_E15difference_typeE, symObjAddr: 0x870A0, symBinAddr: 0x10008AB40, symSize: 0x50 }
  - { offsetInCU: 0xB6CED, offset: 0xB6CED, size: 0x8, addend: 0x0, symName: __ZNSt3__19__advanceB7v160006IPNS_10shared_ptrIN5Catch8TestSpec7PatternEEEEEvRT_NS_15iterator_traitsIS7_E15difference_typeENS_26random_access_iterator_tagE, symObjAddr: 0x87140, symBinAddr: 0x10008ABE0, symSize: 0x28 }
  - { offsetInCU: 0xB6D3A, offset: 0xB6D3A, size: 0x8, addend: 0x0, symName: __ZNSt3__118__debug_db_erase_cB7v160006INS_6vectorINS_10shared_ptrIN5Catch8TestSpec7PatternEEENS_9allocatorIS6_EEEEEEvPT_, symObjAddr: 0x87354, symBinAddr: 0x10008ADF4, symSize: 0x10 }
  - { offsetInCU: 0xB6D6C, offset: 0xB6D6C, size: 0x8, addend: 0x0, symName: __ZNSt3__119__allocator_destroyB7v160006INS_9allocatorIN5Catch8TestSpec6FilterEEENS_16reverse_iteratorIPS4_EES8_EEvRT_T0_T1_, symObjAddr: 0x87544, symBinAddr: 0x10008AFE4, symSize: 0x70 }
  - { offsetInCU: 0xB6DD0, offset: 0xB6DD0, size: 0x8, addend: 0x0, symName: __ZNSt3__1neB7v160006IPN5Catch8TestSpec6FilterES4_EEbRKNS_16reverse_iteratorIT_EERKNS5_IT0_EE, symObjAddr: 0x875E8, symBinAddr: 0x10008B088, symSize: 0x48 }
  - { offsetInCU: 0xB6E1F, offset: 0xB6E1F, size: 0x8, addend: 0x0, symName: __ZNSt3__112__to_addressB7v160006INS_16reverse_iteratorIPN5Catch8TestSpec6FilterEEEvEENS_5decayIDTclsr19__to_address_helperIT_EE6__callclsr3stdE7declvalIRKS8_EEEEE4typeESA_, symObjAddr: 0x87630, symBinAddr: 0x10008B0D0, symSize: 0x24 }
  - { offsetInCU: 0xB6E82, offset: 0xB6E82, size: 0x8, addend: 0x0, symName: __ZNSt3__14prevB7v160006IPN5Catch8TestSpec6FilterEEENS_9enable_ifIXsr25__is_cpp17_input_iteratorIT_EE5valueES6_E4typeES6_NS_15iterator_traitsIS6_E15difference_typeE, symObjAddr: 0x876F0, symBinAddr: 0x10008B190, symSize: 0x50 }
  - { offsetInCU: 0xB6EC8, offset: 0xB6EC8, size: 0x8, addend: 0x0, symName: __ZNSt3__19__advanceB7v160006IPN5Catch8TestSpec6FilterEEEvRT_NS_15iterator_traitsIS5_E15difference_typeENS_26random_access_iterator_tagE, symObjAddr: 0x87790, symBinAddr: 0x10008B230, symSize: 0x30 }
  - { offsetInCU: 0xB6F3C, offset: 0xB6F3C, size: 0x8, addend: 0x0, symName: __ZNSt3__112construct_atB7v160006ImJRKmEPmEEPT_S5_DpOT0_, symObjAddr: 0x87AFC, symBinAddr: 0x10008B59C, symSize: 0x2C }
  - { offsetInCU: 0xB6FB4, offset: 0xB6FB4, size: 0x8, addend: 0x0, symName: __ZNSt3__119__allocate_at_leastB7v160006INS_9allocatorImEEEENS_19__allocation_resultINS_16allocator_traitsIT_E7pointerEEERS5_m, symObjAddr: 0x87F98, symBinAddr: 0x10008BA38, symSize: 0x40 }
  - { offsetInCU: 0xB6FF9, offset: 0xB6FF9, size: 0x8, addend: 0x0, symName: __ZNSt3__142__uninitialized_allocator_move_if_noexceptB7v160006INS_9allocatorImEENS_16reverse_iteratorIPmEES5_mvEET1_RT_T0_S9_S6_, symObjAddr: 0x8814C, symBinAddr: 0x10008BBEC, symSize: 0x78 }
  - { offsetInCU: 0xB7077, offset: 0xB7077, size: 0x8, addend: 0x0, symName: __ZNSt3__14swapB7v160006IPmEENS_9enable_ifIXaasr21is_move_constructibleIT_EE5valuesr18is_move_assignableIS3_EE5valueEvE4typeERS3_S6_, symObjAddr: 0x88210, symBinAddr: 0x10008BCB0, symSize: 0x3C }
  - { offsetInCU: 0xB70CC, offset: 0xB70CC, size: 0x8, addend: 0x0, symName: __ZNSt3__14moveB7v160006INS_16reverse_iteratorIPmEES3_EET0_T_S5_S4_, symObjAddr: 0x882F8, symBinAddr: 0x10008BD98, symSize: 0x78 }
  - { offsetInCU: 0xB712A, offset: 0xB712A, size: 0x8, addend: 0x0, symName: __ZNSt3__16__moveB7v160006INS_17_ClassicAlgPolicyENS_16reverse_iteratorIPmEES4_S4_EENS_4pairIT0_T2_EES6_T1_S7_, symObjAddr: 0x88370, symBinAddr: 0x10008BE10, symSize: 0x64 }
  - { offsetInCU: 0xB719A, offset: 0xB719A, size: 0x8, addend: 0x0, symName: __ZNSt3__123__dispatch_copy_or_moveB7v160006INS_17_ClassicAlgPolicyENS_11__move_loopIS1_EENS_14__move_trivialENS_16reverse_iteratorIPmEES7_S7_EENS_4pairIT2_T4_EES9_T3_SA_, symObjAddr: 0x883D4, symBinAddr: 0x10008BE74, symSize: 0x64 }
  - { offsetInCU: 0xB721C, offset: 0xB721C, size: 0x8, addend: 0x0, symName: __ZNSt3__121__unwrap_and_dispatchB7v160006INS_10__overloadINS_11__move_loopINS_17_ClassicAlgPolicyEEENS_14__move_trivialEEENS_16reverse_iteratorIPmEES9_S9_Li0EEENS_4pairIT0_T2_EESB_T1_SC_, symObjAddr: 0x88438, symBinAddr: 0x10008BED8, symSize: 0x12C }
  - { offsetInCU: 0xB72B3, offset: 0xB72B3, size: 0x8, addend: 0x0, symName: __ZNSt3__114__unwrap_rangeB7v160006INS_16reverse_iteratorIPmEES3_EEDaT_T0_, symObjAddr: 0x88564, symBinAddr: 0x10008C004, symSize: 0x4C }
  - { offsetInCU: 0xB73DD, offset: 0xB73DD, size: 0x8, addend: 0x0, symName: __ZNSt3__113__unwrap_iterB7v160006INS_16reverse_iteratorIPmEENS_18__unwrap_iter_implIS3_Lb0EEELi0EEEDTclsrT0_8__unwrapclsr3stdE7declvalIT_EEEES7_, symObjAddr: 0x88650, symBinAddr: 0x10008C0F0, symSize: 0x44 }
  - { offsetInCU: 0xB7423, offset: 0xB7423, size: 0x8, addend: 0x0, symName: __ZNSt3__19make_pairB7v160006INS_16reverse_iteratorIPmEES3_EENS_4pairINS_18__unwrap_ref_decayIT_E4typeENS5_IT0_E4typeEEEOS6_OS9_, symObjAddr: 0x88694, symBinAddr: 0x10008C134, symSize: 0x38 }
  - { offsetInCU: 0xB7473, offset: 0xB7473, size: 0x8, addend: 0x0, symName: __ZNSt3__114__rewrap_rangeB7v160006INS_16reverse_iteratorIPmEES3_S3_EET0_S4_T1_, symObjAddr: 0x886CC, symBinAddr: 0x10008C16C, symSize: 0x5C }
  - { offsetInCU: 0xB74CB, offset: 0xB74CB, size: 0x8, addend: 0x0, symName: __ZNSt3__113__rewrap_iterB7v160006INS_16reverse_iteratorIPmEES3_NS_18__unwrap_iter_implIS3_Lb0EEEEET_S6_T0_, symObjAddr: 0x88728, symBinAddr: 0x10008C1C8, symSize: 0x74 }
  - { offsetInCU: 0xB7576, offset: 0xB7576, size: 0x8, addend: 0x0, symName: __ZNSt3__1neB7v160006IPmS1_EEbRKNS_16reverse_iteratorIT_EERKNS2_IT0_EE, symObjAddr: 0x88890, symBinAddr: 0x10008C330, symSize: 0x48 }
  - { offsetInCU: 0xB7638, offset: 0xB7638, size: 0x8, addend: 0x0, symName: __ZNSt3__112construct_atB7v160006IN5Catch8TestSpec6FilterEJRKS3_EPS3_EEPT_S8_DpOT0_, symObjAddr: 0x88DA4, symBinAddr: 0x10008C844, symSize: 0x3C }
  - { offsetInCU: 0xB76AF, offset: 0xB76AF, size: 0x8, addend: 0x0, symName: __ZNSt3__142__uninitialized_allocator_move_if_noexceptB7v160006INS_9allocatorIN5Catch8TestSpec6FilterEEENS_16reverse_iteratorIPS4_EES8_S8_EET2_RT_T0_T1_S9_, symObjAddr: 0x89254, symBinAddr: 0x10008CCF4, symSize: 0x124 }
  - { offsetInCU: 0xB7750, offset: 0xB7750, size: 0x8, addend: 0x0, symName: __ZNSt3__14swapB7v160006IPN5Catch8TestSpec6FilterEEENS_9enable_ifIXaasr21is_move_constructibleIT_EE5valuesr18is_move_assignableIS6_EE5valueEvE4typeERS6_S9_, symObjAddr: 0x89378, symBinAddr: 0x10008CE18, symSize: 0x3C }
  - { offsetInCU: 0xB77A5, offset: 0xB77A5, size: 0x8, addend: 0x0, symName: __ZNSt3__122__make_exception_guardB7v160006INS_29_AllocatorDestroyRangeReverseINS_9allocatorIN5Catch8TestSpec6FilterEEENS_16reverse_iteratorIPS5_EEEEEENS_28__exception_guard_exceptionsIT_EESC_, symObjAddr: 0x893B4, symBinAddr: 0x10008CE54, symSize: 0x4C }
  - { offsetInCU: 0xB77DD, offset: 0xB77DD, size: 0x8, addend: 0x0, symName: __ZNSt3__112construct_atB7v160006IN5Catch8TestSpec6FilterEJS3_EPS3_EEPT_S6_DpOT0_, symObjAddr: 0x89580, symBinAddr: 0x10008D020, symSize: 0x3C }
  - { offsetInCU: 0xB7855, offset: 0xB7855, size: 0x8, addend: 0x0, symName: __ZNSt3__115__debug_db_swapB7v160006INS_6vectorINS_10shared_ptrIN5Catch8TestSpec7PatternEEENS_9allocatorIS6_EEEEEEvPT_SB_, symObjAddr: 0x89734, symBinAddr: 0x10008D1D4, symSize: 0x14 }
  - { offsetInCU: 0xB7896, offset: 0xB7896, size: 0x8, addend: 0x0, symName: __ZNSt3__119__allocator_destroyB7v160006INS_9allocatorIN5Catch8TestSpec6FilterEEENS_16reverse_iteratorINS6_IPS4_EEEES9_EEvRT_T0_T1_, symObjAddr: 0x8984C, symBinAddr: 0x10008D2EC, symSize: 0x70 }
  - { offsetInCU: 0xB78FC, offset: 0xB78FC, size: 0x8, addend: 0x0, symName: __ZNSt3__1neB7v160006INS_16reverse_iteratorIPN5Catch8TestSpec6FilterEEES6_EEbRKNS1_IT_EERKNS1_IT0_EE, symObjAddr: 0x898F8, symBinAddr: 0x10008D398, symSize: 0x60 }
  - { offsetInCU: 0xB794B, offset: 0xB794B, size: 0x8, addend: 0x0, symName: __ZNSt3__112__to_addressB7v160006INS_16reverse_iteratorINS1_IPN5Catch8TestSpec6FilterEEEEEvEENS_5decayIDTclsr19__to_address_helperIT_EE6__callclsr3stdE7declvalIRKS9_EEEEE4typeESB_, symObjAddr: 0x89958, symBinAddr: 0x10008D3F8, symSize: 0x24 }
  - { offsetInCU: 0xB79AE, offset: 0xB79AE, size: 0x8, addend: 0x0, symName: __ZNSt3__14prevB7v160006INS_16reverse_iteratorIPN5Catch8TestSpec6FilterEEEEENS_9enable_ifIXsr25__is_cpp17_input_iteratorIT_EE5valueES8_E4typeES8_NS_15iterator_traitsIS8_E15difference_typeE, symObjAddr: 0x89A54, symBinAddr: 0x10008D4F4, symSize: 0x60 }
  - { offsetInCU: 0xB79F4, offset: 0xB79F4, size: 0x8, addend: 0x0, symName: __ZNSt3__19__advanceB7v160006INS_16reverse_iteratorIPN5Catch8TestSpec6FilterEEEEEvRT_NS_15iterator_traitsIS7_E15difference_typeENS_26random_access_iterator_tagE, symObjAddr: 0x89B04, symBinAddr: 0x10008D5A4, symSize: 0x2C }
  - { offsetInCU: 0xB7A41, offset: 0xB7A41, size: 0x8, addend: 0x0, symName: __ZNSt3__125__debug_db_invalidate_allB7v160006INS_6vectorINS_10shared_ptrIN5Catch8TestSpec7PatternEEENS_9allocatorIS6_EEEEEEvPT_, symObjAddr: 0x8A030, symBinAddr: 0x10008DAD0, symSize: 0x10 }
  - { offsetInCU: 0xB7A74, offset: 0xB7A74, size: 0x8, addend: 0x0, symName: __ZNSt3__112construct_atB7v160006INS_10shared_ptrIN5Catch8TestSpec7PatternEEEJRKS5_EPS5_EEPT_SA_DpOT0_, symObjAddr: 0x8A2AC, symBinAddr: 0x10008DD4C, symSize: 0x3C }
  - { offsetInCU: 0xB7AEB, offset: 0xB7AEB, size: 0x8, addend: 0x0, symName: __ZNSt3__142__uninitialized_allocator_move_if_noexceptB7v160006INS_9allocatorINS_10shared_ptrIN5Catch8TestSpec7PatternEEEEENS_16reverse_iteratorIPS6_EESA_SA_EET2_RT_T0_T1_SB_, symObjAddr: 0x8A750, symBinAddr: 0x10008E1F0, symSize: 0x124 }
  - { offsetInCU: 0xB7B8C, offset: 0xB7B8C, size: 0x8, addend: 0x0, symName: __ZNSt3__14swapB7v160006IPNS_10shared_ptrIN5Catch8TestSpec7PatternEEEEENS_9enable_ifIXaasr21is_move_constructibleIT_EE5valuesr18is_move_assignableIS8_EE5valueEvE4typeERS8_SB_, symObjAddr: 0x8A874, symBinAddr: 0x10008E314, symSize: 0x3C }
  - { offsetInCU: 0xB7BE1, offset: 0xB7BE1, size: 0x8, addend: 0x0, symName: __ZNSt3__122__make_exception_guardB7v160006INS_29_AllocatorDestroyRangeReverseINS_9allocatorINS_10shared_ptrIN5Catch8TestSpec7PatternEEEEENS_16reverse_iteratorIPS7_EEEEEENS_28__exception_guard_exceptionsIT_EESE_, symObjAddr: 0x8A8B0, symBinAddr: 0x10008E350, symSize: 0x4C }
  - { offsetInCU: 0xB7C19, offset: 0xB7C19, size: 0x8, addend: 0x0, symName: __ZNSt3__112construct_atB7v160006INS_10shared_ptrIN5Catch8TestSpec7PatternEEEJS5_EPS5_EEPT_S8_DpOT0_, symObjAddr: 0x8AA7C, symBinAddr: 0x10008E51C, symSize: 0x3C }
  - { offsetInCU: 0xB7C90, offset: 0xB7C90, size: 0x8, addend: 0x0, symName: __ZNSt3__119__allocator_destroyB7v160006INS_9allocatorINS_10shared_ptrIN5Catch8TestSpec7PatternEEEEENS_16reverse_iteratorINS8_IPS6_EEEESB_EEvRT_T0_T1_, symObjAddr: 0x8AC30, symBinAddr: 0x10008E6D0, symSize: 0x70 }
  - { offsetInCU: 0xB7CF6, offset: 0xB7CF6, size: 0x8, addend: 0x0, symName: __ZNSt3__1neB7v160006INS_16reverse_iteratorIPNS_10shared_ptrIN5Catch8TestSpec7PatternEEEEES8_EEbRKNS1_IT_EERKNS1_IT0_EE, symObjAddr: 0x8ACDC, symBinAddr: 0x10008E77C, symSize: 0x60 }
  - { offsetInCU: 0xB7D45, offset: 0xB7D45, size: 0x8, addend: 0x0, symName: __ZNSt3__112__to_addressB7v160006INS_16reverse_iteratorINS1_IPNS_10shared_ptrIN5Catch8TestSpec7PatternEEEEEEEvEENS_5decayIDTclsr19__to_address_helperIT_EE6__callclsr3stdE7declvalIRKSB_EEEEE4typeESD_, symObjAddr: 0x8AD3C, symBinAddr: 0x10008E7DC, symSize: 0x24 }
  - { offsetInCU: 0xB7DA8, offset: 0xB7DA8, size: 0x8, addend: 0x0, symName: __ZNSt3__14prevB7v160006INS_16reverse_iteratorIPNS_10shared_ptrIN5Catch8TestSpec7PatternEEEEEEENS_9enable_ifIXsr25__is_cpp17_input_iteratorIT_EE5valueESA_E4typeESA_NS_15iterator_traitsISA_E15difference_typeE, symObjAddr: 0x8AE38, symBinAddr: 0x10008E8D8, symSize: 0x60 }
  - { offsetInCU: 0xB7DEE, offset: 0xB7DEE, size: 0x8, addend: 0x0, symName: __ZNSt3__19__advanceB7v160006INS_16reverse_iteratorIPNS_10shared_ptrIN5Catch8TestSpec7PatternEEEEEEEvRT_NS_15iterator_traitsIS9_E15difference_typeENS_26random_access_iterator_tagE, symObjAddr: 0x8AEE8, symBinAddr: 0x10008E988, symSize: 0x2C }
  - { offsetInCU: 0xB7E3B, offset: 0xB7E3B, size: 0x8, addend: 0x0, symName: __ZNSt3__1miB7v160006IPKcPcEEDTmicldtfp_4baseEcldtfp0_4baseEERKNS_11__wrap_iterIT_EERKNS5_IT0_EE, symObjAddr: 0x8B17C, symBinAddr: 0x10008EC1C, symSize: 0x40 }
  - { offsetInCU: 0xB7EFF, offset: 0xB7EFF, size: 0x8, addend: 0x0, symName: __ZNSt3__1eqB7v160006IPKcEEbRKNS_11__wrap_iterIT_EES7_, symObjAddr: 0x8B31C, symBinAddr: 0x10008EDBC, symSize: 0x48 }
  - { offsetInCU: 0xB7F7B, offset: 0xB7F7B, size: 0x8, addend: 0x0, symName: __ZNSt3__1eqB7v160006IPKwEEbRKNS_11__wrap_iterIT_EES7_, symObjAddr: 0x8B5F4, symBinAddr: 0x10008F094, symSize: 0x48 }
  - { offsetInCU: 0xB7FC1, offset: 0xB7FC1, size: 0x8, addend: 0x0, symName: __ZNSt3__119__debug_db_insert_cB7v160006INS_12basic_stringIwNS_11char_traitsIwEENS_9allocatorIwEEEEEEvPT_, symObjAddr: 0x8B738, symBinAddr: 0x10008F1D8, symSize: 0x10 }
  - { offsetInCU: 0xB7FF4, offset: 0xB7FF4, size: 0x8, addend: 0x0, symName: __ZNSt3__118__constexpr_wcslenB7v160006EPKw, symObjAddr: 0x8B898, symBinAddr: 0x10008F338, symSize: 0x24 }
  - { offsetInCU: 0xB8022, offset: 0xB8022, size: 0x8, addend: 0x0, symName: __ZNSt3__1lsB7v160006INS_11char_traitsIcEEEERNS_13basic_ostreamIcT_EES6_RKNS_8__iom_t4IcEE, symObjAddr: 0x8B8D4, symBinAddr: 0x10008F374, symSize: 0x40 }
  - { offsetInCU: 0xB8067, offset: 0xB8067, size: 0x8, addend: 0x0, symName: __ZNSt3__19uppercaseB7v160006ERNS_8ios_baseE, symObjAddr: 0x8B914, symBinAddr: 0x10008F3B4, symSize: 0x2C }
  - { offsetInCU: 0xB8095, offset: 0xB8095, size: 0x8, addend: 0x0, symName: __ZNSt3__19use_facetB7v160006INS_5ctypeIcEEEERKT_RKNS_6localeE, symObjAddr: 0x8BA8C, symBinAddr: 0x10008F52C, symSize: 0x2C }
  - { offsetInCU: 0xB80CD, offset: 0xB80CD, size: 0x8, addend: 0x0, symName: __ZNSt3__1eqB7v160006IPKN5Catch11MessageInfoEPS2_EEbRKNS_11__wrap_iterIT_EERKNS6_IT0_EE, symObjAddr: 0x8C28C, symBinAddr: 0x10008FD2C, symSize: 0x48 }
  - { offsetInCU: 0xB811C, offset: 0xB811C, size: 0x8, addend: 0x0, symName: __ZNSt3__18distanceB7v160006INS_11__wrap_iterIPKN5Catch11MessageInfoEEEEENS_15iterator_traitsIT_E15difference_typeES8_S8_, symObjAddr: 0x8C300, symBinAddr: 0x10008FDA0, symSize: 0x3C }
  - { offsetInCU: 0xB8162, offset: 0xB8162, size: 0x8, addend: 0x0, symName: __ZNSt3__110__distanceB7v160006INS_11__wrap_iterIPKN5Catch11MessageInfoEEEEENS_15iterator_traitsIT_E15difference_typeES8_S8_NS_26random_access_iterator_tagE, symObjAddr: 0x8C364, symBinAddr: 0x10008FE04, symSize: 0x30 }
  - { offsetInCU: 0xB81B3, offset: 0xB81B3, size: 0x8, addend: 0x0, symName: __ZNSt3__112__to_addressB7v160006IKN5Catch11MessageInfoEEEPT_S5_, symObjAddr: 0x8C394, symBinAddr: 0x10008FE34, symSize: 0x14 }
  - { offsetInCU: 0xB81EA, offset: 0xB81EA, size: 0x8, addend: 0x0, symName: __ZNSt3__1neB7v160006IPKN5Catch11MessageInfoEPS2_EEbRKNS_11__wrap_iterIT_EERKNS6_IT0_EE, symObjAddr: 0x8C3A8, symBinAddr: 0x10008FE48, symSize: 0x34 }
  - { offsetInCU: 0xB8239, offset: 0xB8239, size: 0x8, addend: 0x0, symName: __ZNSt3__118__debug_db_erase_cB7v160006INS_6vectorIN5Catch11SectionInfoENS_9allocatorIS3_EEEEEEvPT_, symObjAddr: 0x8C794, symBinAddr: 0x100090234, symSize: 0x10 }
  - { offsetInCU: 0xB826C, offset: 0xB826C, size: 0x8, addend: 0x0, symName: __ZNSt3__112__to_addressB7v160006IN5Catch11SectionInfoEEEPT_S4_, symObjAddr: 0x8C8B0, symBinAddr: 0x100090350, symSize: 0x14 }
  - { offsetInCU: 0xB82A3, offset: 0xB82A3, size: 0x8, addend: 0x0, symName: __ZNSt3__110destroy_atB7v160006IN5Catch11SectionInfoELi0EEEvPT_, symObjAddr: 0x8C978, symBinAddr: 0x100090418, symSize: 0x24 }
  - { offsetInCU: 0xB82DD, offset: 0xB82DD, size: 0x8, addend: 0x0, symName: __ZNSt3__112__destroy_atB7v160006IN5Catch11SectionInfoELi0EEEvPT_, symObjAddr: 0x8C99C, symBinAddr: 0x10009043C, symSize: 0x24 }
  - { offsetInCU: 0xB8317, offset: 0xB8317, size: 0x8, addend: 0x0, symName: __ZNSt3__122__make_exception_guardB7v160006INS_6vectorIN5Catch12_GLOBAL__N_110ColumnInfoENS_9allocatorIS4_EEE16__destroy_vectorEEENS_28__exception_guard_exceptionsIT_EESA_, symObjAddr: 0x8CFF0, symBinAddr: 0x100090A90, symSize: 0x40 }
  - { offsetInCU: 0xB834E, offset: 0xB834E, size: 0x8, addend: 0x0, symName: __ZNSt3__119__debug_db_insert_cB7v160006INS_6vectorIN5Catch12_GLOBAL__N_110ColumnInfoENS_9allocatorIS4_EEEEEEvPT_, symObjAddr: 0x8D064, symBinAddr: 0x100090B04, symSize: 0x10 }
  - { offsetInCU: 0xB8381, offset: 0xB8381, size: 0x8, addend: 0x0, symName: __ZNSt3__119__allocate_at_leastB7v160006INS_9allocatorIN5Catch12_GLOBAL__N_110ColumnInfoEEEEENS_19__allocation_resultINS_16allocator_traitsIT_E7pointerEEERS8_m, symObjAddr: 0x8D400, symBinAddr: 0x100090EA0, symSize: 0x40 }
  - { offsetInCU: 0xB83C7, offset: 0xB83C7, size: 0x8, addend: 0x0, symName: __ZNSt3__112__to_addressB7v160006IN5Catch12_GLOBAL__N_110ColumnInfoEEEPT_S5_, symObjAddr: 0x8D714, symBinAddr: 0x1000911B4, symSize: 0x14 }
  - { offsetInCU: 0xB83FD, offset: 0xB83FD, size: 0x8, addend: 0x0, symName: __ZNSt3__130__uninitialized_allocator_copyB7v160006INS_9allocatorIN5Catch12_GLOBAL__N_110ColumnInfoEEEPKS4_S7_PS4_EET2_RT_T0_T1_S9_, symObjAddr: 0x8D7C4, symBinAddr: 0x100091264, symSize: 0xF4 }
  - { offsetInCU: 0xB849C, offset: 0xB849C, size: 0x8, addend: 0x0, symName: __ZNSt3__122__make_exception_guardB7v160006INS_29_AllocatorDestroyRangeReverseINS_9allocatorIN5Catch12_GLOBAL__N_110ColumnInfoEEEPS5_EEEENS_28__exception_guard_exceptionsIT_EESA_, symObjAddr: 0x8D928, symBinAddr: 0x1000913C8, symSize: 0x4C }
  - { offsetInCU: 0xB84FB, offset: 0xB84FB, size: 0x8, addend: 0x0, symName: __ZNSt3__112construct_atB7v160006IN5Catch12_GLOBAL__N_110ColumnInfoEJRKS3_EPS3_EEPT_S8_DpOT0_, symObjAddr: 0x8DACC, symBinAddr: 0x10009156C, symSize: 0x3C }
  - { offsetInCU: 0xB8572, offset: 0xB8572, size: 0x8, addend: 0x0, symName: __ZNSt3__119__allocator_destroyB7v160006INS_9allocatorIN5Catch12_GLOBAL__N_110ColumnInfoEEENS_16reverse_iteratorIPS4_EES8_EEvRT_T0_T1_, symObjAddr: 0x8DC34, symBinAddr: 0x1000916D4, symSize: 0x70 }
  - { offsetInCU: 0xB85D6, offset: 0xB85D6, size: 0x8, addend: 0x0, symName: __ZNSt3__1neB7v160006IPN5Catch12_GLOBAL__N_110ColumnInfoES4_EEbRKNS_16reverse_iteratorIT_EERKNS5_IT0_EE, symObjAddr: 0x8DCD8, symBinAddr: 0x100091778, symSize: 0x48 }
  - { offsetInCU: 0xB8625, offset: 0xB8625, size: 0x8, addend: 0x0, symName: __ZNSt3__112__to_addressB7v160006INS_16reverse_iteratorIPN5Catch12_GLOBAL__N_110ColumnInfoEEEvEENS_5decayIDTclsr19__to_address_helperIT_EE6__callclsr3stdE7declvalIRKS8_EEEEE4typeESA_, symObjAddr: 0x8DD48, symBinAddr: 0x1000917E8, symSize: 0x24 }
  - { offsetInCU: 0xB865D, offset: 0xB865D, size: 0x8, addend: 0x0, symName: __ZNSt3__110destroy_atB7v160006IN5Catch12_GLOBAL__N_110ColumnInfoELi0EEEvPT_, symObjAddr: 0x8DDA4, symBinAddr: 0x100091844, symSize: 0x24 }
  - { offsetInCU: 0xB8697, offset: 0xB8697, size: 0x8, addend: 0x0, symName: __ZNSt3__112__destroy_atB7v160006IN5Catch12_GLOBAL__N_110ColumnInfoELi0EEEvPT_, symObjAddr: 0x8DDC8, symBinAddr: 0x100091868, symSize: 0x24 }
  - { offsetInCU: 0xB86FC, offset: 0xB86FC, size: 0x8, addend: 0x0, symName: __ZNSt3__14prevB7v160006IPN5Catch12_GLOBAL__N_110ColumnInfoEEENS_9enable_ifIXsr25__is_cpp17_input_iteratorIT_EE5valueES6_E4typeES6_NS_15iterator_traitsIS6_E15difference_typeE, symObjAddr: 0x8DE50, symBinAddr: 0x1000918F0, symSize: 0x50 }
  - { offsetInCU: 0xB8742, offset: 0xB8742, size: 0x8, addend: 0x0, symName: __ZNSt3__19__advanceB7v160006IPN5Catch12_GLOBAL__N_110ColumnInfoEEEvRT_NS_15iterator_traitsIS5_E15difference_typeENS_26random_access_iterator_tagE, symObjAddr: 0x8DEF0, symBinAddr: 0x100091990, symSize: 0x28 }
  - { offsetInCU: 0xB878F, offset: 0xB878F, size: 0x8, addend: 0x0, symName: __ZNSt3__118__debug_db_erase_cB7v160006INS_6vectorIN5Catch12_GLOBAL__N_110ColumnInfoENS_9allocatorIS4_EEEEEEvPT_, symObjAddr: 0x8E104, symBinAddr: 0x100091BA4, symSize: 0x10 }
  - { offsetInCU: 0xB87C2, offset: 0xB87C2, size: 0x8, addend: 0x0, symName: __ZNSt3__115__debug_db_swapB7v160006INS_6vectorIN5Catch12_GLOBAL__N_110ColumnInfoENS_9allocatorIS4_EEEEEEvPT_S9_, symObjAddr: 0x8E440, symBinAddr: 0x100091EE0, symSize: 0x14 }
  - { offsetInCU: 0xB8804, offset: 0xB8804, size: 0x8, addend: 0x0, symName: __ZNSt3__1eqB7v160006IPN5Catch11SectionInfoEEEbRKNS_11__wrap_iterIT_EES8_, symObjAddr: 0x8F0E0, symBinAddr: 0x100092B80, symSize: 0x48 }
  - { offsetInCU: 0xB884A, offset: 0xB884A, size: 0x8, addend: 0x0, symName: __ZNSt3__119__debug_db_insert_cB7v160006INS_6vectorIN5Catch13SummaryColumnENS_9allocatorIS3_EEEEEEvPT_, symObjAddr: 0x8F1D4, symBinAddr: 0x100092C74, symSize: 0x10 }
  - { offsetInCU: 0xB887D, offset: 0xB887D, size: 0x8, addend: 0x0, symName: __ZNSt3__112__to_addressB7v160006IN5Catch13SummaryColumnEEEPT_S4_, symObjAddr: 0x8F508, symBinAddr: 0x100092FA8, symSize: 0x14 }
  - { offsetInCU: 0xB88DB, offset: 0xB88DB, size: 0x8, addend: 0x0, symName: __ZNSt3__112construct_atB7v160006IN5Catch13SummaryColumnEJS2_EPS2_EEPT_S5_DpOT0_, symObjAddr: 0x8F594, symBinAddr: 0x100093034, symSize: 0x3C }
  - { offsetInCU: 0xB8953, offset: 0xB8953, size: 0x8, addend: 0x0, symName: __ZNSt3__119__allocate_at_leastB7v160006INS_9allocatorIN5Catch13SummaryColumnEEEEENS_19__allocation_resultINS_16allocator_traitsIT_E7pointerEEERS7_m, symObjAddr: 0x8FBD4, symBinAddr: 0x100093674, symSize: 0x40 }
  - { offsetInCU: 0xB8998, offset: 0xB8998, size: 0x8, addend: 0x0, symName: __ZNSt3__142__uninitialized_allocator_move_if_noexceptB7v160006INS_9allocatorIN5Catch13SummaryColumnEEENS_16reverse_iteratorIPS3_EES7_S7_EET2_RT_T0_T1_S8_, symObjAddr: 0x8FE60, symBinAddr: 0x100093900, symSize: 0x12C }
  - { offsetInCU: 0xB8A39, offset: 0xB8A39, size: 0x8, addend: 0x0, symName: __ZNSt3__14swapB7v160006IPN5Catch13SummaryColumnEEENS_9enable_ifIXaasr21is_move_constructibleIT_EE5valuesr18is_move_assignableIS5_EE5valueEvE4typeERS5_S8_, symObjAddr: 0x8FFD8, symBinAddr: 0x100093A78, symSize: 0x3C }
  - { offsetInCU: 0xB8A8E, offset: 0xB8A8E, size: 0x8, addend: 0x0, symName: __ZNSt3__125__debug_db_invalidate_allB7v160006INS_6vectorIN5Catch13SummaryColumnENS_9allocatorIS3_EEEEEEvPT_, symObjAddr: 0x900DC, symBinAddr: 0x100093B7C, symSize: 0x10 }
  - { offsetInCU: 0xB8AC1, offset: 0xB8AC1, size: 0x8, addend: 0x0, symName: __ZNSt3__122__make_exception_guardB7v160006INS_29_AllocatorDestroyRangeReverseINS_9allocatorIN5Catch13SummaryColumnEEENS_16reverse_iteratorIPS4_EEEEEENS_28__exception_guard_exceptionsIT_EESB_, symObjAddr: 0x90134, symBinAddr: 0x100093BD4, symSize: 0x4C }
  - { offsetInCU: 0xB8AF9, offset: 0xB8AF9, size: 0x8, addend: 0x0, symName: __ZNSt3__1neB7v160006IPN5Catch13SummaryColumnES3_EEbRKNS_16reverse_iteratorIT_EERKNS4_IT0_EE, symObjAddr: 0x901C4, symBinAddr: 0x100093C64, symSize: 0x48 }
  - { offsetInCU: 0xB8B48, offset: 0xB8B48, size: 0x8, addend: 0x0, symName: __ZNSt3__112__to_addressB7v160006INS_16reverse_iteratorIPN5Catch13SummaryColumnEEEvEENS_5decayIDTclsr19__to_address_helperIT_EE6__callclsr3stdE7declvalIRKS7_EEEEE4typeES9_, symObjAddr: 0x9020C, symBinAddr: 0x100093CAC, symSize: 0x24 }
  - { offsetInCU: 0xB8BAB, offset: 0xB8BAB, size: 0x8, addend: 0x0, symName: __ZNSt3__14prevB7v160006IPN5Catch13SummaryColumnEEENS_9enable_ifIXsr25__is_cpp17_input_iteratorIT_EE5valueES5_E4typeES5_NS_15iterator_traitsIS5_E15difference_typeE, symObjAddr: 0x903C0, symBinAddr: 0x100093E60, symSize: 0x50 }
  - { offsetInCU: 0xB8BF1, offset: 0xB8BF1, size: 0x8, addend: 0x0, symName: __ZNSt3__19__advanceB7v160006IPN5Catch13SummaryColumnEEEvRT_NS_15iterator_traitsIS4_E15difference_typeENS_26random_access_iterator_tagE, symObjAddr: 0x90460, symBinAddr: 0x100093F00, symSize: 0x30 }
  - { offsetInCU: 0xB8C3D, offset: 0xB8C3D, size: 0x8, addend: 0x0, symName: __ZNSt3__119__allocator_destroyB7v160006INS_9allocatorIN5Catch13SummaryColumnEEENS_16reverse_iteratorINS5_IPS3_EEEES8_EEvRT_T0_T1_, symObjAddr: 0x90594, symBinAddr: 0x100094034, symSize: 0x70 }
  - { offsetInCU: 0xB8CA3, offset: 0xB8CA3, size: 0x8, addend: 0x0, symName: __ZNSt3__1neB7v160006INS_16reverse_iteratorIPN5Catch13SummaryColumnEEES5_EEbRKNS1_IT_EERKNS1_IT0_EE, symObjAddr: 0x90640, symBinAddr: 0x1000940E0, symSize: 0x60 }
  - { offsetInCU: 0xB8CF2, offset: 0xB8CF2, size: 0x8, addend: 0x0, symName: __ZNSt3__112__to_addressB7v160006INS_16reverse_iteratorINS1_IPN5Catch13SummaryColumnEEEEEvEENS_5decayIDTclsr19__to_address_helperIT_EE6__callclsr3stdE7declvalIRKS8_EEEEE4typeESA_, symObjAddr: 0x906C8, symBinAddr: 0x100094168, symSize: 0x24 }
  - { offsetInCU: 0xB8D2A, offset: 0xB8D2A, size: 0x8, addend: 0x0, symName: __ZNSt3__110destroy_atB7v160006IN5Catch13SummaryColumnELi0EEEvPT_, symObjAddr: 0x90740, symBinAddr: 0x1000941E0, symSize: 0x24 }
  - { offsetInCU: 0xB8D64, offset: 0xB8D64, size: 0x8, addend: 0x0, symName: __ZNSt3__112__destroy_atB7v160006IN5Catch13SummaryColumnELi0EEEvPT_, symObjAddr: 0x90764, symBinAddr: 0x100094204, symSize: 0x24 }
  - { offsetInCU: 0xB8DC9, offset: 0xB8DC9, size: 0x8, addend: 0x0, symName: __ZNSt3__14prevB7v160006INS_16reverse_iteratorIPN5Catch13SummaryColumnEEEEENS_9enable_ifIXsr25__is_cpp17_input_iteratorIT_EE5valueES7_E4typeES7_NS_15iterator_traitsIS7_E15difference_typeE, symObjAddr: 0x9080C, symBinAddr: 0x1000942AC, symSize: 0x60 }
  - { offsetInCU: 0xB8E0F, offset: 0xB8E0F, size: 0x8, addend: 0x0, symName: __ZNSt3__19__advanceB7v160006INS_16reverse_iteratorIPN5Catch13SummaryColumnEEEEEvRT_NS_15iterator_traitsIS6_E15difference_typeENS_26random_access_iterator_tagE, symObjAddr: 0x908BC, symBinAddr: 0x10009435C, symSize: 0x2C }
  - { offsetInCU: 0xB8E5C, offset: 0xB8E5C, size: 0x8, addend: 0x0, symName: __ZNSt3__118__debug_db_erase_cB7v160006INS_6vectorIN5Catch13SummaryColumnENS_9allocatorIS3_EEEEEEvPT_, symObjAddr: 0x90DA8, symBinAddr: 0x100094848, symSize: 0x10 }
  - { offsetInCU: 0xB8E8F, offset: 0xB8E8F, size: 0x8, addend: 0x0, symName: __ZNSt3__1eqB7v160006IPKN5Catch13SummaryColumnEEEbRKNS_11__wrap_iterIT_EES9_, symObjAddr: 0x90F00, symBinAddr: 0x1000949A0, symSize: 0x48 }
  - { offsetInCU: 0xB8ED5, offset: 0xB8ED5, size: 0x8, addend: 0x0, symName: __ZNSt3__118__debug_db_erase_cB7v160006INS_6vectorINS_10shared_ptrIN5Catch22CumulativeReporterBaseINS3_13JunitReporterEE11SectionNodeEEENS_9allocatorIS8_EEEEEEvPT_, symObjAddr: 0x91384, symBinAddr: 0x100094E24, symSize: 0x10 }
  - { offsetInCU: 0xB8F08, offset: 0xB8F08, size: 0x8, addend: 0x0, symName: __ZNSt3__112__to_addressB7v160006INS_10shared_ptrIN5Catch22CumulativeReporterBaseINS2_13JunitReporterEE11SectionNodeEEEEEPT_S9_, symObjAddr: 0x914A0, symBinAddr: 0x100094F40, symSize: 0x14 }
  - { offsetInCU: 0xB8F3F, offset: 0xB8F3F, size: 0x8, addend: 0x0, symName: __ZNSt3__110destroy_atB7v160006INS_10shared_ptrIN5Catch22CumulativeReporterBaseINS2_13JunitReporterEE11SectionNodeEEELi0EEEvPT_, symObjAddr: 0x91568, symBinAddr: 0x100095008, symSize: 0x24 }
  - { offsetInCU: 0xB8F79, offset: 0xB8F79, size: 0x8, addend: 0x0, symName: __ZNSt3__112__destroy_atB7v160006INS_10shared_ptrIN5Catch22CumulativeReporterBaseINS2_13JunitReporterEE11SectionNodeEEELi0EEEvPT_, symObjAddr: 0x9158C, symBinAddr: 0x10009502C, symSize: 0x24 }
  - { offsetInCU: 0xB8FB3, offset: 0xB8FB3, size: 0x8, addend: 0x0, symName: __ZNSt3__118__debug_db_erase_cB7v160006INS_6vectorINS_10shared_ptrIN5Catch22CumulativeReporterBaseINS3_13JunitReporterEE4NodeINS3_12TestRunStatsENS7_INS3_14TestGroupStatsENS7_INS3_13TestCaseStatsENS6_11SectionNodeEEEEEEEEENS_9allocatorISF_EEEEEEvPT_, symObjAddr: 0x918C8, symBinAddr: 0x100095368, symSize: 0x10 }
  - { offsetInCU: 0xB8FE6, offset: 0xB8FE6, size: 0x8, addend: 0x0, symName: __ZNSt3__112__to_addressB7v160006INS_10shared_ptrIN5Catch22CumulativeReporterBaseINS2_13JunitReporterEE4NodeINS2_12TestRunStatsENS6_INS2_14TestGroupStatsENS6_INS2_13TestCaseStatsENS5_11SectionNodeEEEEEEEEEEEPT_SG_, symObjAddr: 0x91A0C, symBinAddr: 0x1000954AC, symSize: 0x14 }
  - { offsetInCU: 0xB901D, offset: 0xB901D, size: 0x8, addend: 0x0, symName: __ZNSt3__110destroy_atB7v160006INS_10shared_ptrIN5Catch22CumulativeReporterBaseINS2_13JunitReporterEE4NodeINS2_12TestRunStatsENS6_INS2_14TestGroupStatsENS6_INS2_13TestCaseStatsENS5_11SectionNodeEEEEEEEEELi0EEEvPT_, symObjAddr: 0x91AD4, symBinAddr: 0x100095574, symSize: 0x24 }
  - { offsetInCU: 0xB9057, offset: 0xB9057, size: 0x8, addend: 0x0, symName: __ZNSt3__112__destroy_atB7v160006INS_10shared_ptrIN5Catch22CumulativeReporterBaseINS2_13JunitReporterEE4NodeINS2_12TestRunStatsENS6_INS2_14TestGroupStatsENS6_INS2_13TestCaseStatsENS5_11SectionNodeEEEEEEEEELi0EEEvPT_, symObjAddr: 0x91AF8, symBinAddr: 0x100095598, symSize: 0x24 }
  - { offsetInCU: 0xB9091, offset: 0xB9091, size: 0x8, addend: 0x0, symName: __ZNSt3__118__debug_db_erase_cB7v160006INS_6vectorINS_10shared_ptrIN5Catch22CumulativeReporterBaseINS3_13JunitReporterEE4NodeINS3_14TestGroupStatsENS7_INS3_13TestCaseStatsENS6_11SectionNodeEEEEEEENS_9allocatorISD_EEEEEEvPT_, symObjAddr: 0x91E60, symBinAddr: 0x100095900, symSize: 0x10 }
  - { offsetInCU: 0xB90C4, offset: 0xB90C4, size: 0x8, addend: 0x0, symName: __ZNSt3__112__to_addressB7v160006INS_10shared_ptrIN5Catch22CumulativeReporterBaseINS2_13JunitReporterEE4NodeINS2_14TestGroupStatsENS6_INS2_13TestCaseStatsENS5_11SectionNodeEEEEEEEEEPT_SE_, symObjAddr: 0x91FA4, symBinAddr: 0x100095A44, symSize: 0x14 }
  - { offsetInCU: 0xB90FB, offset: 0xB90FB, size: 0x8, addend: 0x0, symName: __ZNSt3__110destroy_atB7v160006INS_10shared_ptrIN5Catch22CumulativeReporterBaseINS2_13JunitReporterEE4NodeINS2_14TestGroupStatsENS6_INS2_13TestCaseStatsENS5_11SectionNodeEEEEEEELi0EEEvPT_, symObjAddr: 0x9206C, symBinAddr: 0x100095B0C, symSize: 0x24 }
  - { offsetInCU: 0xB9135, offset: 0xB9135, size: 0x8, addend: 0x0, symName: __ZNSt3__112__destroy_atB7v160006INS_10shared_ptrIN5Catch22CumulativeReporterBaseINS2_13JunitReporterEE4NodeINS2_14TestGroupStatsENS6_INS2_13TestCaseStatsENS5_11SectionNodeEEEEEEELi0EEEvPT_, symObjAddr: 0x92090, symBinAddr: 0x100095B30, symSize: 0x24 }
  - { offsetInCU: 0xB916F, offset: 0xB916F, size: 0x8, addend: 0x0, symName: __ZNSt3__118__debug_db_erase_cB7v160006INS_6vectorINS_10shared_ptrIN5Catch22CumulativeReporterBaseINS3_13JunitReporterEE4NodeINS3_13TestCaseStatsENS6_11SectionNodeEEEEENS_9allocatorISB_EEEEEEvPT_, symObjAddr: 0x923F8, symBinAddr: 0x100095E98, symSize: 0x10 }
  - { offsetInCU: 0xB91A2, offset: 0xB91A2, size: 0x8, addend: 0x0, symName: __ZNSt3__112__to_addressB7v160006INS_10shared_ptrIN5Catch22CumulativeReporterBaseINS2_13JunitReporterEE4NodeINS2_13TestCaseStatsENS5_11SectionNodeEEEEEEEPT_SC_, symObjAddr: 0x9253C, symBinAddr: 0x100095FDC, symSize: 0x14 }
  - { offsetInCU: 0xB91D9, offset: 0xB91D9, size: 0x8, addend: 0x0, symName: __ZNSt3__110destroy_atB7v160006INS_10shared_ptrIN5Catch22CumulativeReporterBaseINS2_13JunitReporterEE4NodeINS2_13TestCaseStatsENS5_11SectionNodeEEEEELi0EEEvPT_, symObjAddr: 0x92604, symBinAddr: 0x1000960A4, symSize: 0x24 }
  - { offsetInCU: 0xB9213, offset: 0xB9213, size: 0x8, addend: 0x0, symName: __ZNSt3__112__destroy_atB7v160006INS_10shared_ptrIN5Catch22CumulativeReporterBaseINS2_13JunitReporterEE4NodeINS2_13TestCaseStatsENS5_11SectionNodeEEEEELi0EEEvPT_, symObjAddr: 0x92628, symBinAddr: 0x1000960C8, symSize: 0x24 }
  - { offsetInCU: 0xB924D, offset: 0xB924D, size: 0x8, addend: 0x0, symName: __ZNSt3__118__debug_db_erase_cB7v160006INS_6vectorINS1_INS_10shared_ptrIN5Catch22CumulativeReporterBaseINS3_13JunitReporterEE11SectionNodeEEENS_9allocatorIS8_EEEENS9_ISB_EEEEEEvPT_, symObjAddr: 0x929AC, symBinAddr: 0x10009644C, symSize: 0x10 }
  - { offsetInCU: 0xB9280, offset: 0xB9280, size: 0x8, addend: 0x0, symName: __ZNSt3__112__to_addressB7v160006INS_6vectorINS_10shared_ptrIN5Catch22CumulativeReporterBaseINS3_13JunitReporterEE11SectionNodeEEENS_9allocatorIS8_EEEEEEPT_SD_, symObjAddr: 0x92AF0, symBinAddr: 0x100096590, symSize: 0x14 }
  - { offsetInCU: 0xB92B7, offset: 0xB92B7, size: 0x8, addend: 0x0, symName: __ZNSt3__110destroy_atB7v160006INS_6vectorINS_10shared_ptrIN5Catch22CumulativeReporterBaseINS3_13JunitReporterEE11SectionNodeEEENS_9allocatorIS8_EEEELi0EEEvPT_, symObjAddr: 0x92BB8, symBinAddr: 0x100096658, symSize: 0x24 }
  - { offsetInCU: 0xB92F1, offset: 0xB92F1, size: 0x8, addend: 0x0, symName: __ZNSt3__112__destroy_atB7v160006INS_6vectorINS_10shared_ptrIN5Catch22CumulativeReporterBaseINS3_13JunitReporterEE11SectionNodeEEENS_9allocatorIS8_EEEELi0EEEvPT_, symObjAddr: 0x92BDC, symBinAddr: 0x10009667C, symSize: 0x24 }
  - { offsetInCU: 0xB932B, offset: 0xB932B, size: 0x8, addend: 0x0, symName: __ZNSt3__118__debug_db_erase_cB7v160006INS_6vectorIN5Catch14AssertionStatsENS_9allocatorIS3_EEEEEEvPT_, symObjAddr: 0x92EE4, symBinAddr: 0x100096984, symSize: 0x10 }
  - { offsetInCU: 0xB935E, offset: 0xB935E, size: 0x8, addend: 0x0, symName: __ZNSt3__112__to_addressB7v160006IN5Catch14AssertionStatsEEEPT_S4_, symObjAddr: 0x93028, symBinAddr: 0x100096AC8, symSize: 0x14 }
  - { offsetInCU: 0xB9395, offset: 0xB9395, size: 0x8, addend: 0x0, symName: __ZNSt3__110destroy_atB7v160006IN5Catch14AssertionStatsELi0EEEvPT_, symObjAddr: 0x930F0, symBinAddr: 0x100096B90, symSize: 0x24 }
  - { offsetInCU: 0xB93CF, offset: 0xB93CF, size: 0x8, addend: 0x0, symName: __ZNSt3__112__destroy_atB7v160006IN5Catch14AssertionStatsELi0EEEvPT_, symObjAddr: 0x93114, symBinAddr: 0x100096BB4, symSize: 0x2C }
  - { offsetInCU: 0xB9408, offset: 0xB9408, size: 0x8, addend: 0x0, symName: __ZNSt3__15fixedB7v160006ERNS_8ios_baseE, symObjAddr: 0x9321C, symBinAddr: 0x100096CBC, symSize: 0x30 }
  - { offsetInCU: 0xB9437, offset: 0xB9437, size: 0x8, addend: 0x0, symName: __ZNSt3__112setprecisionB7v160006Ei, symObjAddr: 0x93284, symBinAddr: 0x100096D24, symSize: 0x2C }
  - { offsetInCU: 0xB9465, offset: 0xB9465, size: 0x8, addend: 0x0, symName: __ZNSt3__1lsB7v160006IcNS_11char_traitsIcEEEERNS_13basic_ostreamIT_T0_EES7_RKNS_8__iom_t5E, symObjAddr: 0x932B0, symBinAddr: 0x100096D50, symSize: 0x40 }
  - { offsetInCU: 0xB94B4, offset: 0xB94B4, size: 0x8, addend: 0x0, symName: __ZNSt3__1eqB7v160006IPKNS_10shared_ptrIN5Catch22CumulativeReporterBaseINS2_13JunitReporterEE4NodeINS2_13TestCaseStatsENS5_11SectionNodeEEEEEEEbRKNS_11__wrap_iterIT_EESH_, symObjAddr: 0x93404, symBinAddr: 0x100096EA4, symSize: 0x48 }
  - { offsetInCU: 0xB94FA, offset: 0xB94FA, size: 0x8, addend: 0x0, symName: '__ZNSt3__17find_ifB7v160006INS_11__wrap_iterIPKNS_12basic_stringIcNS_11char_traitsIcEENS_9allocatorIcEEEEEEZN5Catch12_GLOBAL__N_111fileNameTagERKNS_6vectorIS7_NS5_IS7_EEEEE4$_22EET_SJ_SJ_T0_', symObjAddr: 0x93464, symBinAddr: 0x100096F04, symSize: 0x74 }
  - { offsetInCU: 0xB9558, offset: 0xB9558, size: 0x8, addend: 0x0, symName: __ZNSt3__1eqB7v160006IPKNS_10shared_ptrIN5Catch22CumulativeReporterBaseINS2_13JunitReporterEE11SectionNodeEEEEEbRKNS_11__wrap_iterIT_EESE_, symObjAddr: 0x935C8, symBinAddr: 0x100097068, symSize: 0x48 }
  - { offsetInCU: 0xB959E, offset: 0xB959E, size: 0x8, addend: 0x0, symName: __ZNSt3__1eqB7v160006IPKN5Catch14AssertionStatsEEEbRKNS_11__wrap_iterIT_EES9_, symObjAddr: 0x936BC, symBinAddr: 0x10009715C, symSize: 0x48 }
  - { offsetInCU: 0xB95E4, offset: 0xB95E4, size: 0x8, addend: 0x0, symName: __ZNSt3__1eqB7v160006IPKN5Catch11MessageInfoEEEbRKNS_11__wrap_iterIT_EES9_, symObjAddr: 0x937B0, symBinAddr: 0x100097250, symSize: 0x48 }
  - { offsetInCU: 0xB962A, offset: 0xB962A, size: 0x8, addend: 0x0, symName: __ZNSt3__119__debug_db_insert_cB7v160006INS_6vectorINS_10unique_ptrIN5Catch18IStreamingReporterENS_14default_deleteIS4_EEEENS_9allocatorIS7_EEEEEEvPT_, symObjAddr: 0x9388C, symBinAddr: 0x10009732C, symSize: 0x10 }
  - { offsetInCU: 0xB965D, offset: 0xB965D, size: 0x8, addend: 0x0, symName: __ZNSt3__112__to_addressB7v160006INS_10unique_ptrIN5Catch18IStreamingReporterENS_14default_deleteIS3_EEEEEEPT_S8_, symObjAddr: 0x93BDC, symBinAddr: 0x10009767C, symSize: 0x14 }
  - { offsetInCU: 0xB96BB, offset: 0xB96BB, size: 0x8, addend: 0x0, symName: __ZNSt3__112construct_atB7v160006INS_10unique_ptrIN5Catch18IStreamingReporterENS_14default_deleteIS3_EEEEJS6_EPS6_EEPT_S9_DpOT0_, symObjAddr: 0x93C60, symBinAddr: 0x100097700, symSize: 0x3C }
  - { offsetInCU: 0xB9733, offset: 0xB9733, size: 0x8, addend: 0x0, symName: __ZNSt3__119__allocate_at_leastB7v160006INS_9allocatorINS_10unique_ptrIN5Catch18IStreamingReporterENS_14default_deleteIS4_EEEEEEEENS_19__allocation_resultINS_16allocator_traitsIT_E7pointerEEERSB_m, symObjAddr: 0x9420C, symBinAddr: 0x100097CAC, symSize: 0x40 }
  - { offsetInCU: 0xB9778, offset: 0xB9778, size: 0x8, addend: 0x0, symName: __ZNSt3__142__uninitialized_allocator_move_if_noexceptB7v160006INS_9allocatorINS_10unique_ptrIN5Catch18IStreamingReporterENS_14default_deleteIS4_EEEEEENS_16reverse_iteratorIPS7_EESB_SB_EET2_RT_T0_T1_SC_, symObjAddr: 0x94478, symBinAddr: 0x100097F18, symSize: 0x12C }
  - { offsetInCU: 0xB9819, offset: 0xB9819, size: 0x8, addend: 0x0, symName: __ZNSt3__14swapB7v160006IPNS_10unique_ptrIN5Catch18IStreamingReporterENS_14default_deleteIS3_EEEEEENS_9enable_ifIXaasr21is_move_constructibleIT_EE5valuesr18is_move_assignableIS9_EE5valueEvE4typeERS9_SC_, symObjAddr: 0x945F0, symBinAddr: 0x100098090, symSize: 0x3C }
  - { offsetInCU: 0xB986E, offset: 0xB986E, size: 0x8, addend: 0x0, symName: __ZNSt3__125__debug_db_invalidate_allB7v160006INS_6vectorINS_10unique_ptrIN5Catch18IStreamingReporterENS_14default_deleteIS4_EEEENS_9allocatorIS7_EEEEEEvPT_, symObjAddr: 0x946D8, symBinAddr: 0x100098178, symSize: 0x10 }
  - { offsetInCU: 0xB98A1, offset: 0xB98A1, size: 0x8, addend: 0x0, symName: __ZNSt3__122__make_exception_guardB7v160006INS_29_AllocatorDestroyRangeReverseINS_9allocatorINS_10unique_ptrIN5Catch18IStreamingReporterENS_14default_deleteIS5_EEEEEENS_16reverse_iteratorIPS8_EEEEEENS_28__exception_guard_exceptionsIT_EESF_, symObjAddr: 0x94730, symBinAddr: 0x1000981D0, symSize: 0x4C }
  - { offsetInCU: 0xB98D9, offset: 0xB98D9, size: 0x8, addend: 0x0, symName: __ZNSt3__1neB7v160006IPNS_10unique_ptrIN5Catch18IStreamingReporterENS_14default_deleteIS3_EEEES7_EEbRKNS_16reverse_iteratorIT_EERKNS8_IT0_EE, symObjAddr: 0x947C0, symBinAddr: 0x100098260, symSize: 0x48 }
  - { offsetInCU: 0xB9928, offset: 0xB9928, size: 0x8, addend: 0x0, symName: __ZNSt3__112__to_addressB7v160006INS_16reverse_iteratorIPNS_10unique_ptrIN5Catch18IStreamingReporterENS_14default_deleteIS4_EEEEEEvEENS_5decayIDTclsr19__to_address_helperIT_EE6__callclsr3stdE7declvalIRKSB_EEEEE4typeESD_, symObjAddr: 0x94808, symBinAddr: 0x1000982A8, symSize: 0x24 }
  - { offsetInCU: 0xB998B, offset: 0xB998B, size: 0x8, addend: 0x0, symName: __ZNSt3__14prevB7v160006IPNS_10unique_ptrIN5Catch18IStreamingReporterENS_14default_deleteIS3_EEEEEENS_9enable_ifIXsr25__is_cpp17_input_iteratorIT_EE5valueES9_E4typeES9_NS_15iterator_traitsIS9_E15difference_typeE, symObjAddr: 0x949BC, symBinAddr: 0x10009845C, symSize: 0x50 }
  - { offsetInCU: 0xB99D1, offset: 0xB99D1, size: 0x8, addend: 0x0, symName: __ZNSt3__19__advanceB7v160006IPNS_10unique_ptrIN5Catch18IStreamingReporterENS_14default_deleteIS3_EEEEEEvRT_NS_15iterator_traitsIS8_E15difference_typeENS_26random_access_iterator_tagE, symObjAddr: 0x94A5C, symBinAddr: 0x1000984FC, symSize: 0x28 }
  - { offsetInCU: 0xB9A1D, offset: 0xB9A1D, size: 0x8, addend: 0x0, symName: __ZNSt3__119__allocator_destroyB7v160006INS_9allocatorINS_10unique_ptrIN5Catch18IStreamingReporterENS_14default_deleteIS4_EEEEEENS_16reverse_iteratorINS9_IPS7_EEEESC_EEvRT_T0_T1_, symObjAddr: 0x94B88, symBinAddr: 0x100098628, symSize: 0x70 }
  - { offsetInCU: 0xB9A83, offset: 0xB9A83, size: 0x8, addend: 0x0, symName: __ZNSt3__1neB7v160006INS_16reverse_iteratorIPNS_10unique_ptrIN5Catch18IStreamingReporterENS_14default_deleteIS4_EEEEEES9_EEbRKNS1_IT_EERKNS1_IT0_EE, symObjAddr: 0x94C34, symBinAddr: 0x1000986D4, symSize: 0x60 }
  - { offsetInCU: 0xB9AD2, offset: 0xB9AD2, size: 0x8, addend: 0x0, symName: __ZNSt3__112__to_addressB7v160006INS_16reverse_iteratorINS1_IPNS_10unique_ptrIN5Catch18IStreamingReporterENS_14default_deleteIS4_EEEEEEEEvEENS_5decayIDTclsr19__to_address_helperIT_EE6__callclsr3stdE7declvalIRKSC_EEEEE4typeESE_, symObjAddr: 0x94CBC, symBinAddr: 0x10009875C, symSize: 0x24 }
  - { offsetInCU: 0xB9B0A, offset: 0xB9B0A, size: 0x8, addend: 0x0, symName: __ZNSt3__110destroy_atB7v160006INS_10unique_ptrIN5Catch18IStreamingReporterENS_14default_deleteIS3_EEEELi0EEEvPT_, symObjAddr: 0x94D34, symBinAddr: 0x1000987D4, symSize: 0x24 }
  - { offsetInCU: 0xB9B44, offset: 0xB9B44, size: 0x8, addend: 0x0, symName: __ZNSt3__112__destroy_atB7v160006INS_10unique_ptrIN5Catch18IStreamingReporterENS_14default_deleteIS3_EEEELi0EEEvPT_, symObjAddr: 0x94D58, symBinAddr: 0x1000987F8, symSize: 0x24 }
  - { offsetInCU: 0xB9BA9, offset: 0xB9BA9, size: 0x8, addend: 0x0, symName: __ZNSt3__14prevB7v160006INS_16reverse_iteratorIPNS_10unique_ptrIN5Catch18IStreamingReporterENS_14default_deleteIS4_EEEEEEEENS_9enable_ifIXsr25__is_cpp17_input_iteratorIT_EE5valueESB_E4typeESB_NS_15iterator_traitsISB_E15difference_typeE, symObjAddr: 0x94E00, symBinAddr: 0x1000988A0, symSize: 0x60 }
  - { offsetInCU: 0xB9BEF, offset: 0xB9BEF, size: 0x8, addend: 0x0, symName: __ZNSt3__19__advanceB7v160006INS_16reverse_iteratorIPNS_10unique_ptrIN5Catch18IStreamingReporterENS_14default_deleteIS4_EEEEEEEEvRT_NS_15iterator_traitsISA_E15difference_typeENS_26random_access_iterator_tagE, symObjAddr: 0x94EB0, symBinAddr: 0x100098950, symSize: 0x2C }
  - { offsetInCU: 0xB9C3C, offset: 0xB9C3C, size: 0x8, addend: 0x0, symName: __ZNSt3__1eqB7v160006IPNS_10unique_ptrIN5Catch18IStreamingReporterENS_14default_deleteIS3_EEEEEEbRKNS_11__wrap_iterIT_EESC_, symObjAddr: 0x95274, symBinAddr: 0x100098D14, symSize: 0x48 }
  - { offsetInCU: 0xB9C82, offset: 0xB9C82, size: 0x8, addend: 0x0, symName: __ZNSt3__14swapB7v160006IPKN5Catch7IConfigEEENS_9enable_ifIXaasr21is_move_constructibleIT_EE5valuesr18is_move_assignableIS6_EE5valueEvE4typeERS6_S9_, symObjAddr: 0x9598C, symBinAddr: 0x10009942C, symSize: 0x3C }
  - { offsetInCU: 0xB9CD7, offset: 0xB9CD7, size: 0x8, addend: 0x0, symName: __ZNSt3__118__debug_db_erase_cB7v160006INS_6vectorINS_10unique_ptrIN5Catch6Detail8EnumInfoENS_14default_deleteIS5_EEEENS_9allocatorIS8_EEEEEEvPT_, symObjAddr: 0x95B70, symBinAddr: 0x100099610, symSize: 0x10 }
  - { offsetInCU: 0xB9D0A, offset: 0xB9D0A, size: 0x8, addend: 0x0, symName: __ZNSt3__17find_ifB7v160006INS_11__wrap_iterIPNS_10shared_ptrIN5Catch16TestCaseTracking8ITrackerEEEEEZZNS3_10Generators16GeneratorTracker5closeEvENKUlvE_clEvEUlS6_E_EET_SD_SD_T0_, symObjAddr: 0x960AC, symBinAddr: 0x100099B4C, symSize: 0xB8 }
  - { offsetInCU: 0xB9D68, offset: 0xB9D68, size: 0x8, addend: 0x0, symName: __ZNSt3__118__debug_db_erase_cB7v160006INS_6vectorINS_10unique_ptrIN5Catch18IStreamingReporterENS_14default_deleteIS4_EEEENS_9allocatorIS7_EEEEEEvPT_, symObjAddr: 0x96920, symBinAddr: 0x10009A3C0, symSize: 0x10 }
  - { offsetInCU: 0xB9D9A, offset: 0xB9D9A, size: 0x8, addend: 0x0, symName: __ZNSt3__116__pad_and_outputB7v160006IcNS_11char_traitsIcEEEENS_19ostreambuf_iteratorIT_T0_EES6_PKS4_S8_S8_RNS_8ios_baseES4_, symObjAddr: 0x96BE0, symBinAddr: 0x10009A680, symSize: 0x240 }
  - { offsetInCU: 0xB9E69, offset: 0xB9E69, size: 0x8, addend: 0x0, symName: __ZNSt3__1neB7v160006ERKNS_21__tree_const_iteratorINS_12__value_typeINS_12basic_stringIcNS_11char_traitsIcEENS_9allocatorIcEEEENS_10shared_ptrIN5Catch16IReporterFactoryEEEEEPNS_11__tree_nodeISC_PvEElEESJ_, symObjAddr: 0x97428, symBinAddr: 0x10009AEC8, symSize: 0x34 }
  - { offsetInCU: 0xB9EA6, offset: 0xB9EA6, size: 0x8, addend: 0x0, symName: __ZNSt3__17launderB7v160006IKNS_4pairIKNS_12basic_stringIcNS_11char_traitsIcEENS_9allocatorIcEEEENS_10shared_ptrIN5Catch16IReporterFactoryEEEEEEEPT_SG_, symObjAddr: 0x97620, symBinAddr: 0x10009B0C0, symSize: 0x24 }
  - { offsetInCU: 0xB9EDD, offset: 0xB9EDD, size: 0x8, addend: 0x0, symName: __ZNSt3__19__launderB7v160006IKNS_4pairIKNS_12basic_stringIcNS_11char_traitsIcEENS_9allocatorIcEEEENS_10shared_ptrIN5Catch16IReporterFactoryEEEEEEEPT_SG_, symObjAddr: 0x97644, symBinAddr: 0x10009B0E4, symSize: 0x14 }
  - { offsetInCU: 0xB9F14, offset: 0xB9F14, size: 0x8, addend: 0x0, symName: __ZNSt3__1eqB7v160006ERKNS_21__tree_const_iteratorINS_12__value_typeINS_12basic_stringIcNS_11char_traitsIcEENS_9allocatorIcEEEENS_10shared_ptrIN5Catch16IReporterFactoryEEEEEPNS_11__tree_nodeISC_PvEElEESJ_, symObjAddr: 0x9769C, symBinAddr: 0x10009B13C, symSize: 0x30 }
  - { offsetInCU: 0xB9F52, offset: 0xB9F52, size: 0x8, addend: 0x0, symName: __ZNSt3__122__make_exception_guardB7v160006INS_6vectorIN5Catch5clara6detail3OptENS_9allocatorIS5_EEE16__destroy_vectorEEENS_28__exception_guard_exceptionsIT_EESB_, symObjAddr: 0x97C58, symBinAddr: 0x10009B6F8, symSize: 0x40 }
  - { offsetInCU: 0xB9F89, offset: 0xB9F89, size: 0x8, addend: 0x0, symName: __ZNSt3__122__make_exception_guardB7v160006INS_6vectorIN5Catch5clara6detail3ArgENS_9allocatorIS5_EEE16__destroy_vectorEEENS_28__exception_guard_exceptionsIT_EESB_, symObjAddr: 0x97F40, symBinAddr: 0x10009B9E0, symSize: 0x40 }
  - { offsetInCU: 0xB9FC0, offset: 0xB9FC0, size: 0x8, addend: 0x0, symName: __ZNSt3__112construct_atB7v160006IN5Catch5clara6detail3OptEJRKS4_EPS4_EEPT_S9_DpOT0_, symObjAddr: 0x98308, symBinAddr: 0x10009BDA8, symSize: 0x3C }
  - { offsetInCU: 0xBA037, offset: 0xBA037, size: 0x8, addend: 0x0, symName: __ZNSt3__142__uninitialized_allocator_move_if_noexceptB7v160006INS_9allocatorIN5Catch5clara6detail3OptEEENS_16reverse_iteratorIPS5_EES9_S9_EET2_RT_T0_T1_SA_, symObjAddr: 0x98704, symBinAddr: 0x10009C1A4, symSize: 0x124 }
  - { offsetInCU: 0xBA0D8, offset: 0xBA0D8, size: 0x8, addend: 0x0, symName: __ZNSt3__14swapB7v160006IPN5Catch5clara6detail3OptEEENS_9enable_ifIXaasr21is_move_constructibleIT_EE5valuesr18is_move_assignableIS7_EE5valueEvE4typeERS7_SA_, symObjAddr: 0x98828, symBinAddr: 0x10009C2C8, symSize: 0x3C }
  - { offsetInCU: 0xBA12D, offset: 0xBA12D, size: 0x8, addend: 0x0, symName: __ZNSt3__122__make_exception_guardB7v160006INS_29_AllocatorDestroyRangeReverseINS_9allocatorIN5Catch5clara6detail3OptEEENS_16reverse_iteratorIPS6_EEEEEENS_28__exception_guard_exceptionsIT_EESD_, symObjAddr: 0x98864, symBinAddr: 0x10009C304, symSize: 0x4C }
  - { offsetInCU: 0xBA165, offset: 0xBA165, size: 0x8, addend: 0x0, symName: __ZNSt3__112construct_atB7v160006IN5Catch5clara6detail3OptEJS4_EPS4_EEPT_S7_DpOT0_, symObjAddr: 0x98A30, symBinAddr: 0x10009C4D0, symSize: 0x3C }
  - { offsetInCU: 0xBA1DC, offset: 0xBA1DC, size: 0x8, addend: 0x0, symName: __ZNSt3__119__allocator_destroyB7v160006INS_9allocatorIN5Catch5clara6detail3OptEEENS_16reverse_iteratorINS7_IPS5_EEEESA_EEvRT_T0_T1_, symObjAddr: 0x98D58, symBinAddr: 0x10009C7F8, symSize: 0x70 }
  - { offsetInCU: 0xBA242, offset: 0xBA242, size: 0x8, addend: 0x0, symName: __ZNSt3__1neB7v160006INS_16reverse_iteratorIPN5Catch5clara6detail3OptEEES7_EEbRKNS1_IT_EERKNS1_IT0_EE, symObjAddr: 0x98E04, symBinAddr: 0x10009C8A4, symSize: 0x60 }
  - { offsetInCU: 0xBA291, offset: 0xBA291, size: 0x8, addend: 0x0, symName: __ZNSt3__112__to_addressB7v160006INS_16reverse_iteratorINS1_IPN5Catch5clara6detail3OptEEEEEvEENS_5decayIDTclsr19__to_address_helperIT_EE6__callclsr3stdE7declvalIRKSA_EEEEE4typeESC_, symObjAddr: 0x98E64, symBinAddr: 0x10009C904, symSize: 0x24 }
  - { offsetInCU: 0xBA2F4, offset: 0xBA2F4, size: 0x8, addend: 0x0, symName: __ZNSt3__14prevB7v160006INS_16reverse_iteratorIPN5Catch5clara6detail3OptEEEEENS_9enable_ifIXsr25__is_cpp17_input_iteratorIT_EE5valueES9_E4typeES9_NS_15iterator_traitsIS9_E15difference_typeE, symObjAddr: 0x98F60, symBinAddr: 0x10009CA00, symSize: 0x60 }
  - { offsetInCU: 0xBA33A, offset: 0xBA33A, size: 0x8, addend: 0x0, symName: __ZNSt3__19__advanceB7v160006INS_16reverse_iteratorIPN5Catch5clara6detail3OptEEEEEvRT_NS_15iterator_traitsIS8_E15difference_typeENS_26random_access_iterator_tagE, symObjAddr: 0x99010, symBinAddr: 0x10009CAB0, symSize: 0x2C }
  - { offsetInCU: 0xBA386, offset: 0xBA386, size: 0x8, addend: 0x0, symName: '__ZNSt3__111make_sharedB7v160006IN5Catch5clara6detail11BoundLambdaIZNS1_21makeCommandLineParserERNS1_10ConfigDataEE3$_1EEJRKS7_EvEENS_10shared_ptrIT_EEDpOT0_', symObjAddr: 0x995A0, symBinAddr: 0x10009D040, symSize: 0x40 }
  - { offsetInCU: 0xBA5EC, offset: 0xBA5EC, size: 0x8, addend: 0x0, symName: '__ZNSt3__115allocate_sharedB7v160006IN5Catch5clara6detail11BoundLambdaIZNS1_21makeCommandLineParserERNS1_10ConfigDataEE3$_1EENS_9allocatorIS8_EEJRKS7_EvEENS_10shared_ptrIT_EERKT0_DpOT1_', symObjAddr: 0x99640, symBinAddr: 0x10009D0E0, symSize: 0x98 }
  - { offsetInCU: 0xBA94E, offset: 0xBA94E, size: 0x8, addend: 0x0, symName: '__ZNSt3__112construct_atB7v160006IN5Catch5clara6detail11BoundLambdaIZNS1_21makeCommandLineParserERNS1_10ConfigDataEE3$_1EEJRKS7_EPS8_EEPT_SD_DpOT0_', symObjAddr: 0x99D14, symBinAddr: 0x10009D7B4, symSize: 0x3C }
  - { offsetInCU: 0xBA9C6, offset: 0xBA9C6, size: 0x8, addend: 0x0, symName: '__ZNSt3__110destroy_atB7v160006IN5Catch5clara6detail11BoundLambdaIZNS1_21makeCommandLineParserERNS1_10ConfigDataEE3$_1EELi0EEEvPT_', symObjAddr: 0x9A4D8, symBinAddr: 0x10009DF78, symSize: 0x24 }
  - { offsetInCU: 0xBAA00, offset: 0xBAA00, size: 0x8, addend: 0x0, symName: '__ZNSt3__112__destroy_atB7v160006IN5Catch5clara6detail11BoundLambdaIZNS1_21makeCommandLineParserERNS1_10ConfigDataEE3$_1EELi0EEEvPT_', symObjAddr: 0x9A4FC, symBinAddr: 0x10009DF9C, symSize: 0x2C }
  - { offsetInCU: 0xBAA6F, offset: 0xBAA6F, size: 0x8, addend: 0x0, symName: '__ZNSt3__111make_sharedB7v160006IN5Catch5clara6detail15BoundFlagLambdaIZNS1_21makeCommandLineParserERNS1_10ConfigDataEE3$_2EEJRKS7_EvEENS_10shared_ptrIT_EEDpOT0_', symObjAddr: 0x9A814, symBinAddr: 0x10009E2B4, symSize: 0x40 }
  - { offsetInCU: 0xBACD5, offset: 0xBACD5, size: 0x8, addend: 0x0, symName: '__ZNSt3__115allocate_sharedB7v160006IN5Catch5clara6detail15BoundFlagLambdaIZNS1_21makeCommandLineParserERNS1_10ConfigDataEE3$_2EENS_9allocatorIS8_EEJRKS7_EvEENS_10shared_ptrIT_EERKT0_DpOT1_', symObjAddr: 0x9A8B4, symBinAddr: 0x10009E354, symSize: 0x98 }
  - { offsetInCU: 0xBB037, offset: 0xBB037, size: 0x8, addend: 0x0, symName: '__ZNSt3__112construct_atB7v160006IN5Catch5clara6detail15BoundFlagLambdaIZNS1_21makeCommandLineParserERNS1_10ConfigDataEE3$_2EEJRKS7_EPS8_EEPT_SD_DpOT0_', symObjAddr: 0x9AF88, symBinAddr: 0x10009EA28, symSize: 0x3C }
  - { offsetInCU: 0xBB0AF, offset: 0xBB0AF, size: 0x8, addend: 0x0, symName: '__ZNSt3__110destroy_atB7v160006IN5Catch5clara6detail15BoundFlagLambdaIZNS1_21makeCommandLineParserERNS1_10ConfigDataEE3$_2EELi0EEEvPT_', symObjAddr: 0x9B220, symBinAddr: 0x10009ECC0, symSize: 0x24 }
  - { offsetInCU: 0xBB0E9, offset: 0xBB0E9, size: 0x8, addend: 0x0, symName: '__ZNSt3__112__destroy_atB7v160006IN5Catch5clara6detail15BoundFlagLambdaIZNS1_21makeCommandLineParserERNS1_10ConfigDataEE3$_2EELi0EEEvPT_', symObjAddr: 0x9B244, symBinAddr: 0x10009ECE4, symSize: 0x2C }
  - { offsetInCU: 0xBB158, offset: 0xBB158, size: 0x8, addend: 0x0, symName: '__ZNSt3__111make_sharedB7v160006IN5Catch5clara6detail11BoundLambdaIZNS1_21makeCommandLineParserERNS1_10ConfigDataEE3$_3EEJRKS7_EvEENS_10shared_ptrIT_EEDpOT0_', symObjAddr: 0x9B614, symBinAddr: 0x10009F0B4, symSize: 0x40 }
  - { offsetInCU: 0xBB3BE, offset: 0xBB3BE, size: 0x8, addend: 0x0, symName: '__ZNSt3__115allocate_sharedB7v160006IN5Catch5clara6detail11BoundLambdaIZNS1_21makeCommandLineParserERNS1_10ConfigDataEE3$_3EENS_9allocatorIS8_EEJRKS7_EvEENS_10shared_ptrIT_EERKT0_DpOT1_', symObjAddr: 0x9B6B4, symBinAddr: 0x10009F154, symSize: 0x98 }
  - { offsetInCU: 0xBB720, offset: 0xBB720, size: 0x8, addend: 0x0, symName: '__ZNSt3__112construct_atB7v160006IN5Catch5clara6detail11BoundLambdaIZNS1_21makeCommandLineParserERNS1_10ConfigDataEE3$_3EEJRKS7_EPS8_EEPT_SD_DpOT0_', symObjAddr: 0x9BD88, symBinAddr: 0x10009F828, symSize: 0x3C }
  - { offsetInCU: 0xBB798, offset: 0xBB798, size: 0x8, addend: 0x0, symName: '__ZNSt3__110destroy_atB7v160006IN5Catch5clara6detail11BoundLambdaIZNS1_21makeCommandLineParserERNS1_10ConfigDataEE3$_3EELi0EEEvPT_', symObjAddr: 0x9C21C, symBinAddr: 0x10009FCBC, symSize: 0x24 }
  - { offsetInCU: 0xBB7D2, offset: 0xBB7D2, size: 0x8, addend: 0x0, symName: '__ZNSt3__112__destroy_atB7v160006IN5Catch5clara6detail11BoundLambdaIZNS1_21makeCommandLineParserERNS1_10ConfigDataEE3$_3EELi0EEEvPT_', symObjAddr: 0x9C240, symBinAddr: 0x10009FCE0, symSize: 0x2C }
  - { offsetInCU: 0xBB841, offset: 0xBB841, size: 0x8, addend: 0x0, symName: '__ZNSt3__111make_sharedB7v160006IN5Catch5clara6detail11BoundLambdaIZNS1_21makeCommandLineParserERNS1_10ConfigDataEE3$_4EEJRKS7_EvEENS_10shared_ptrIT_EEDpOT0_', symObjAddr: 0x9C610, symBinAddr: 0x1000A00B0, symSize: 0x40 }
  - { offsetInCU: 0xBBAA7, offset: 0xBBAA7, size: 0x8, addend: 0x0, symName: '__ZNSt3__115allocate_sharedB7v160006IN5Catch5clara6detail11BoundLambdaIZNS1_21makeCommandLineParserERNS1_10ConfigDataEE3$_4EENS_9allocatorIS8_EEJRKS7_EvEENS_10shared_ptrIT_EERKT0_DpOT1_', symObjAddr: 0x9C6B0, symBinAddr: 0x1000A0150, symSize: 0x98 }
  - { offsetInCU: 0xBBE09, offset: 0xBBE09, size: 0x8, addend: 0x0, symName: '__ZNSt3__112construct_atB7v160006IN5Catch5clara6detail11BoundLambdaIZNS1_21makeCommandLineParserERNS1_10ConfigDataEE3$_4EEJRKS7_EPS8_EEPT_SD_DpOT0_', symObjAddr: 0x9CD84, symBinAddr: 0x1000A0824, symSize: 0x3C }
  - { offsetInCU: 0xBBE81, offset: 0xBBE81, size: 0x8, addend: 0x0, symName: '__ZNSt3__110destroy_atB7v160006IN5Catch5clara6detail11BoundLambdaIZNS1_21makeCommandLineParserERNS1_10ConfigDataEE3$_4EELi0EEEvPT_', symObjAddr: 0x9D23C, symBinAddr: 0x1000A0CDC, symSize: 0x24 }
  - { offsetInCU: 0xBBEBB, offset: 0xBBEBB, size: 0x8, addend: 0x0, symName: '__ZNSt3__112__destroy_atB7v160006IN5Catch5clara6detail11BoundLambdaIZNS1_21makeCommandLineParserERNS1_10ConfigDataEE3$_4EELi0EEEvPT_', symObjAddr: 0x9D260, symBinAddr: 0x1000A0D00, symSize: 0x2C }
  - { offsetInCU: 0xBBF2A, offset: 0xBBF2A, size: 0x8, addend: 0x0, symName: '__ZNSt3__111make_sharedB7v160006IN5Catch5clara6detail11BoundLambdaIZNS1_21makeCommandLineParserERNS1_10ConfigDataEE3$_5EEJRKS7_EvEENS_10shared_ptrIT_EEDpOT0_', symObjAddr: 0x9D630, symBinAddr: 0x1000A10D0, symSize: 0x40 }
  - { offsetInCU: 0xBC190, offset: 0xBC190, size: 0x8, addend: 0x0, symName: '__ZNSt3__115allocate_sharedB7v160006IN5Catch5clara6detail11BoundLambdaIZNS1_21makeCommandLineParserERNS1_10ConfigDataEE3$_5EENS_9allocatorIS8_EEJRKS7_EvEENS_10shared_ptrIT_EERKT0_DpOT1_', symObjAddr: 0x9D6D0, symBinAddr: 0x1000A1170, symSize: 0x98 }
  - { offsetInCU: 0xBC4F2, offset: 0xBC4F2, size: 0x8, addend: 0x0, symName: '__ZNSt3__112construct_atB7v160006IN5Catch5clara6detail11BoundLambdaIZNS1_21makeCommandLineParserERNS1_10ConfigDataEE3$_5EEJRKS7_EPS8_EEPT_SD_DpOT0_', symObjAddr: 0x9DDA4, symBinAddr: 0x1000A1844, symSize: 0x3C }
  - { offsetInCU: 0xBC56A, offset: 0xBC56A, size: 0x8, addend: 0x0, symName: __ZNSt3__19transformB7v160006INS_11__wrap_iterIPcEES3_ZN5Catch5clara6detail11convertIntoERKNS_12basic_stringIcNS_11char_traitsIcEENS_9allocatorIcEEEERbEUlhE_EET0_T_SI_SH_T1_, symObjAddr: 0x9E288, symBinAddr: 0x1000A1D28, symSize: 0x8C }
  - { offsetInCU: 0xBC5E0, offset: 0xBC5E0, size: 0x8, addend: 0x0, symName: '__ZNSt3__110destroy_atB7v160006IN5Catch5clara6detail11BoundLambdaIZNS1_21makeCommandLineParserERNS1_10ConfigDataEE3$_5EELi0EEEvPT_', symObjAddr: 0x9E418, symBinAddr: 0x1000A1EB8, symSize: 0x24 }
  - { offsetInCU: 0xBC61A, offset: 0xBC61A, size: 0x8, addend: 0x0, symName: '__ZNSt3__112__destroy_atB7v160006IN5Catch5clara6detail11BoundLambdaIZNS1_21makeCommandLineParserERNS1_10ConfigDataEE3$_5EELi0EEEvPT_', symObjAddr: 0x9E43C, symBinAddr: 0x1000A1EDC, symSize: 0x2C }
  - { offsetInCU: 0xBC689, offset: 0xBC689, size: 0x8, addend: 0x0, symName: __ZNSt3__111make_sharedB7v160006IN5Catch5clara6detail13BoundValueRefIdEEJRdEvEENS_10shared_ptrIT_EEDpOT0_, symObjAddr: 0x9E80C, symBinAddr: 0x1000A22AC, symSize: 0x40 }
  - { offsetInCU: 0xBC8EE, offset: 0xBC8EE, size: 0x8, addend: 0x0, symName: __ZNSt3__115allocate_sharedB7v160006IN5Catch5clara6detail13BoundValueRefIdEENS_9allocatorIS5_EEJRdEvEENS_10shared_ptrIT_EERKT0_DpOT1_, symObjAddr: 0x9E8AC, symBinAddr: 0x1000A234C, symSize: 0x98 }
  - { offsetInCU: 0xBCC50, offset: 0xBCC50, size: 0x8, addend: 0x0, symName: __ZNSt3__112construct_atB7v160006IN5Catch5clara6detail13BoundValueRefIdEEJRdEPS5_EEPT_S9_DpOT0_, symObjAddr: 0x9EF80, symBinAddr: 0x1000A2A20, symSize: 0x3C }
  - { offsetInCU: 0xBCCC8, offset: 0xBCCC8, size: 0x8, addend: 0x0, symName: __ZNSt3__110destroy_atB7v160006IN5Catch5clara6detail13BoundValueRefIdEELi0EEEvPT_, symObjAddr: 0x9F300, symBinAddr: 0x1000A2DA0, symSize: 0x24 }
  - { offsetInCU: 0xBCD02, offset: 0xBCD02, size: 0x8, addend: 0x0, symName: __ZNSt3__112__destroy_atB7v160006IN5Catch5clara6detail13BoundValueRefIdEELi0EEEvPT_, symObjAddr: 0x9F324, symBinAddr: 0x1000A2DC4, symSize: 0x2C }
  - { offsetInCU: 0xBCD71, offset: 0xBCD71, size: 0x8, addend: 0x0, symName: '__ZNSt3__111make_sharedB7v160006IN5Catch5clara6detail11BoundLambdaIZNS1_21makeCommandLineParserERNS1_10ConfigDataEE3$_6EEJRKS7_EvEENS_10shared_ptrIT_EEDpOT0_', symObjAddr: 0x9F6F4, symBinAddr: 0x1000A3194, symSize: 0x40 }
  - { offsetInCU: 0xBCFD7, offset: 0xBCFD7, size: 0x8, addend: 0x0, symName: '__ZNSt3__115allocate_sharedB7v160006IN5Catch5clara6detail11BoundLambdaIZNS1_21makeCommandLineParserERNS1_10ConfigDataEE3$_6EENS_9allocatorIS8_EEJRKS7_EvEENS_10shared_ptrIT_EERKT0_DpOT1_', symObjAddr: 0x9F794, symBinAddr: 0x1000A3234, symSize: 0x98 }
  - { offsetInCU: 0xBD339, offset: 0xBD339, size: 0x8, addend: 0x0, symName: '__ZNSt3__112construct_atB7v160006IN5Catch5clara6detail11BoundLambdaIZNS1_21makeCommandLineParserERNS1_10ConfigDataEE3$_6EEJRKS7_EPS8_EEPT_SD_DpOT0_', symObjAddr: 0x9FE68, symBinAddr: 0x1000A3908, symSize: 0x3C }
  - { offsetInCU: 0xBD551, offset: 0xBD551, size: 0x8, addend: 0x0, symName: __ZNSt3__17getlineB7v160006IcNS_11char_traitsIcEENS_9allocatorIcEEEERNS_13basic_istreamIT_T0_EES9_RNS_12basic_stringIS6_S7_T1_EE, symObjAddr: 0xA0620, symBinAddr: 0x1000A40C0, symSize: 0x5C }
  - { offsetInCU: 0xBD5B5, offset: 0xBD5B5, size: 0x8, addend: 0x0, symName: __ZNSt3__17getlineB7v160006IcNS_11char_traitsIcEENS_9allocatorIcEEEERNS_13basic_istreamIT_T0_EES9_RNS_12basic_stringIS6_S7_T1_EES6_, symObjAddr: 0xA08CC, symBinAddr: 0x1000A436C, symSize: 0x238 }
  - { offsetInCU: 0xBD674, offset: 0xBD674, size: 0x8, addend: 0x0, symName: __ZNSt3__112construct_atB7v160006INS_12basic_stringIcNS_11char_traitsIcEENS_9allocatorIcEEEEJRA2_KcEPS6_EEPT_SC_DpOT0_, symObjAddr: 0xA0DE8, symBinAddr: 0x1000A4888, symSize: 0x3C }
  - { offsetInCU: 0xBD6EC, offset: 0xBD6EC, size: 0x8, addend: 0x0, symName: '__ZNSt3__110destroy_atB7v160006IN5Catch5clara6detail11BoundLambdaIZNS1_21makeCommandLineParserERNS1_10ConfigDataEE3$_6EELi0EEEvPT_', symObjAddr: 0xA0FE4, symBinAddr: 0x1000A4A84, symSize: 0x24 }
  - { offsetInCU: 0xBD726, offset: 0xBD726, size: 0x8, addend: 0x0, symName: '__ZNSt3__112__destroy_atB7v160006IN5Catch5clara6detail11BoundLambdaIZNS1_21makeCommandLineParserERNS1_10ConfigDataEE3$_6EELi0EEEvPT_', symObjAddr: 0xA1008, symBinAddr: 0x1000A4AA8, symSize: 0x2C }
  - { offsetInCU: 0xBD795, offset: 0xBD795, size: 0x8, addend: 0x0, symName: '__ZNSt3__111make_sharedB7v160006IN5Catch5clara6detail11BoundLambdaIZNS1_21makeCommandLineParserERNS1_10ConfigDataEE3$_7EEJRKS7_EvEENS_10shared_ptrIT_EEDpOT0_', symObjAddr: 0xA151C, symBinAddr: 0x1000A4FBC, symSize: 0x40 }
  - { offsetInCU: 0xBD9FB, offset: 0xBD9FB, size: 0x8, addend: 0x0, symName: '__ZNSt3__115allocate_sharedB7v160006IN5Catch5clara6detail11BoundLambdaIZNS1_21makeCommandLineParserERNS1_10ConfigDataEE3$_7EENS_9allocatorIS8_EEJRKS7_EvEENS_10shared_ptrIT_EERKT0_DpOT1_', symObjAddr: 0xA15BC, symBinAddr: 0x1000A505C, symSize: 0x98 }
  - { offsetInCU: 0xBDD5D, offset: 0xBDD5D, size: 0x8, addend: 0x0, symName: '__ZNSt3__112construct_atB7v160006IN5Catch5clara6detail11BoundLambdaIZNS1_21makeCommandLineParserERNS1_10ConfigDataEE3$_7EEJRKS7_EPS8_EEPT_SD_DpOT0_', symObjAddr: 0xA1C90, symBinAddr: 0x1000A5730, symSize: 0x3C }
  - { offsetInCU: 0xBDDD5, offset: 0xBDDD5, size: 0x8, addend: 0x0, symName: '__ZNSt3__110destroy_atB7v160006IN5Catch5clara6detail11BoundLambdaIZNS1_21makeCommandLineParserERNS1_10ConfigDataEE3$_7EELi0EEEvPT_', symObjAddr: 0xA2158, symBinAddr: 0x1000A5BF8, symSize: 0x24 }
  - { offsetInCU: 0xBDE0F, offset: 0xBDE0F, size: 0x8, addend: 0x0, symName: '__ZNSt3__112__destroy_atB7v160006IN5Catch5clara6detail11BoundLambdaIZNS1_21makeCommandLineParserERNS1_10ConfigDataEE3$_7EELi0EEEvPT_', symObjAddr: 0xA217C, symBinAddr: 0x1000A5C1C, symSize: 0x2C }
  - { offsetInCU: 0xBDE7E, offset: 0xBDE7E, size: 0x8, addend: 0x0, symName: '__ZNSt3__111make_sharedB7v160006IN5Catch5clara6detail11BoundLambdaIZNS1_21makeCommandLineParserERNS1_10ConfigDataEE3$_8EEJRKS7_EvEENS_10shared_ptrIT_EEDpOT0_', symObjAddr: 0xA254C, symBinAddr: 0x1000A5FEC, symSize: 0x40 }
  - { offsetInCU: 0xBE0E4, offset: 0xBE0E4, size: 0x8, addend: 0x0, symName: '__ZNSt3__115allocate_sharedB7v160006IN5Catch5clara6detail11BoundLambdaIZNS1_21makeCommandLineParserERNS1_10ConfigDataEE3$_8EENS_9allocatorIS8_EEJRKS7_EvEENS_10shared_ptrIT_EERKT0_DpOT1_', symObjAddr: 0xA25EC, symBinAddr: 0x1000A608C, symSize: 0x98 }
  - { offsetInCU: 0xBE446, offset: 0xBE446, size: 0x8, addend: 0x0, symName: '__ZNSt3__112construct_atB7v160006IN5Catch5clara6detail11BoundLambdaIZNS1_21makeCommandLineParserERNS1_10ConfigDataEE3$_8EEJRKS7_EPS8_EEPT_SD_DpOT0_', symObjAddr: 0xA2CC0, symBinAddr: 0x1000A6760, symSize: 0x3C }
  - { offsetInCU: 0xBE4BE, offset: 0xBE4BE, size: 0x8, addend: 0x0, symName: '__ZNSt3__110destroy_atB7v160006IN5Catch5clara6detail11BoundLambdaIZNS1_21makeCommandLineParserERNS1_10ConfigDataEE3$_8EELi0EEEvPT_', symObjAddr: 0xA321C, symBinAddr: 0x1000A6CBC, symSize: 0x24 }
  - { offsetInCU: 0xBE4F8, offset: 0xBE4F8, size: 0x8, addend: 0x0, symName: '__ZNSt3__112__destroy_atB7v160006IN5Catch5clara6detail11BoundLambdaIZNS1_21makeCommandLineParserERNS1_10ConfigDataEE3$_8EELi0EEEvPT_', symObjAddr: 0xA3240, symBinAddr: 0x1000A6CE0, symSize: 0x2C }
  - { offsetInCU: 0xBE567, offset: 0xBE567, size: 0x8, addend: 0x0, symName: '__ZNSt3__111make_sharedB7v160006IN5Catch5clara6detail11BoundLambdaIZNS1_21makeCommandLineParserERNS1_10ConfigDataEE3$_9EEJRKS7_EvEENS_10shared_ptrIT_EEDpOT0_', symObjAddr: 0xA3610, symBinAddr: 0x1000A70B0, symSize: 0x40 }
  - { offsetInCU: 0xBE7CD, offset: 0xBE7CD, size: 0x8, addend: 0x0, symName: '__ZNSt3__115allocate_sharedB7v160006IN5Catch5clara6detail11BoundLambdaIZNS1_21makeCommandLineParserERNS1_10ConfigDataEE3$_9EENS_9allocatorIS8_EEJRKS7_EvEENS_10shared_ptrIT_EERKT0_DpOT1_', symObjAddr: 0xA36B0, symBinAddr: 0x1000A7150, symSize: 0x98 }
  - { offsetInCU: 0xBEB2F, offset: 0xBEB2F, size: 0x8, addend: 0x0, symName: '__ZNSt3__112construct_atB7v160006IN5Catch5clara6detail11BoundLambdaIZNS1_21makeCommandLineParserERNS1_10ConfigDataEE3$_9EEJRKS7_EPS8_EEPT_SD_DpOT0_', symObjAddr: 0xA3D84, symBinAddr: 0x1000A7824, symSize: 0x3C }
  - { offsetInCU: 0xBEBA7, offset: 0xBEBA7, size: 0x8, addend: 0x0, symName: '__ZNSt3__110destroy_atB7v160006IN5Catch5clara6detail11BoundLambdaIZNS1_21makeCommandLineParserERNS1_10ConfigDataEE3$_9EELi0EEEvPT_', symObjAddr: 0xA429C, symBinAddr: 0x1000A7D3C, symSize: 0x24 }
  - { offsetInCU: 0xBEBE1, offset: 0xBEBE1, size: 0x8, addend: 0x0, symName: '__ZNSt3__112__destroy_atB7v160006IN5Catch5clara6detail11BoundLambdaIZNS1_21makeCommandLineParserERNS1_10ConfigDataEE3$_9EELi0EEEvPT_', symObjAddr: 0xA42C0, symBinAddr: 0x1000A7D60, symSize: 0x2C }
  - { offsetInCU: 0xBEC50, offset: 0xBEC50, size: 0x8, addend: 0x0, symName: '__ZNSt3__111make_sharedB7v160006IN5Catch5clara6detail11BoundLambdaIZNS1_21makeCommandLineParserERNS1_10ConfigDataEE4$_10EEJRKS7_EvEENS_10shared_ptrIT_EEDpOT0_', symObjAddr: 0xA4690, symBinAddr: 0x1000A8130, symSize: 0x40 }
  - { offsetInCU: 0xBEEB6, offset: 0xBEEB6, size: 0x8, addend: 0x0, symName: '__ZNSt3__115allocate_sharedB7v160006IN5Catch5clara6detail11BoundLambdaIZNS1_21makeCommandLineParserERNS1_10ConfigDataEE4$_10EENS_9allocatorIS8_EEJRKS7_EvEENS_10shared_ptrIT_EERKT0_DpOT1_', symObjAddr: 0xA4730, symBinAddr: 0x1000A81D0, symSize: 0x98 }
  - { offsetInCU: 0xBF218, offset: 0xBF218, size: 0x8, addend: 0x0, symName: '__ZNSt3__112construct_atB7v160006IN5Catch5clara6detail11BoundLambdaIZNS1_21makeCommandLineParserERNS1_10ConfigDataEE4$_10EEJRKS7_EPS8_EEPT_SD_DpOT0_', symObjAddr: 0xA4E04, symBinAddr: 0x1000A88A4, symSize: 0x3C }
  - { offsetInCU: 0xBF290, offset: 0xBF290, size: 0x8, addend: 0x0, symName: '__ZNSt3__110destroy_atB7v160006IN5Catch5clara6detail11BoundLambdaIZNS1_21makeCommandLineParserERNS1_10ConfigDataEE4$_10EELi0EEEvPT_', symObjAddr: 0xA52CC, symBinAddr: 0x1000A8D6C, symSize: 0x24 }
  - { offsetInCU: 0xBF2CA, offset: 0xBF2CA, size: 0x8, addend: 0x0, symName: '__ZNSt3__112__destroy_atB7v160006IN5Catch5clara6detail11BoundLambdaIZNS1_21makeCommandLineParserERNS1_10ConfigDataEE4$_10EELi0EEEvPT_', symObjAddr: 0xA52F0, symBinAddr: 0x1000A8D90, symSize: 0x2C }
  - { offsetInCU: 0xBF339, offset: 0xBF339, size: 0x8, addend: 0x0, symName: '__ZNSt3__111make_sharedB7v160006IN5Catch5clara6detail11BoundLambdaIZNS1_21makeCommandLineParserERNS1_10ConfigDataEE4$_11EEJRKS7_EvEENS_10shared_ptrIT_EEDpOT0_', symObjAddr: 0xA56C0, symBinAddr: 0x1000A9160, symSize: 0x40 }
  - { offsetInCU: 0xBF59F, offset: 0xBF59F, size: 0x8, addend: 0x0, symName: '__ZNSt3__115allocate_sharedB7v160006IN5Catch5clara6detail11BoundLambdaIZNS1_21makeCommandLineParserERNS1_10ConfigDataEE4$_11EENS_9allocatorIS8_EEJRKS7_EvEENS_10shared_ptrIT_EERKT0_DpOT1_', symObjAddr: 0xA5760, symBinAddr: 0x1000A9200, symSize: 0x98 }
  - { offsetInCU: 0xBF901, offset: 0xBF901, size: 0x8, addend: 0x0, symName: '__ZNSt3__112construct_atB7v160006IN5Catch5clara6detail11BoundLambdaIZNS1_21makeCommandLineParserERNS1_10ConfigDataEE4$_11EEJRKS7_EPS8_EEPT_SD_DpOT0_', symObjAddr: 0xA5E34, symBinAddr: 0x1000A98D4, symSize: 0x3C }
  - { offsetInCU: 0xBF979, offset: 0xBF979, size: 0x8, addend: 0x0, symName: '__ZNSt3__110destroy_atB7v160006IN5Catch5clara6detail11BoundLambdaIZNS1_21makeCommandLineParserERNS1_10ConfigDataEE4$_11EELi0EEEvPT_', symObjAddr: 0xA632C, symBinAddr: 0x1000A9DCC, symSize: 0x24 }
  - { offsetInCU: 0xBF9B3, offset: 0xBF9B3, size: 0x8, addend: 0x0, symName: '__ZNSt3__112__destroy_atB7v160006IN5Catch5clara6detail11BoundLambdaIZNS1_21makeCommandLineParserERNS1_10ConfigDataEE4$_11EELi0EEEvPT_', symObjAddr: 0xA6350, symBinAddr: 0x1000A9DF0, symSize: 0x2C }
  - { offsetInCU: 0xBFA22, offset: 0xBFA22, size: 0x8, addend: 0x0, symName: __ZNSt3__111make_sharedB7v160006IN5Catch5clara6detail13BoundValueRefIjEEJRjEvEENS_10shared_ptrIT_EEDpOT0_, symObjAddr: 0xA6720, symBinAddr: 0x1000AA1C0, symSize: 0x40 }
  - { offsetInCU: 0xBFC87, offset: 0xBFC87, size: 0x8, addend: 0x0, symName: __ZNSt3__115allocate_sharedB7v160006IN5Catch5clara6detail13BoundValueRefIjEENS_9allocatorIS5_EEJRjEvEENS_10shared_ptrIT_EERKT0_DpOT1_, symObjAddr: 0xA67C0, symBinAddr: 0x1000AA260, symSize: 0x98 }
  - { offsetInCU: 0xBFFE9, offset: 0xBFFE9, size: 0x8, addend: 0x0, symName: __ZNSt3__112construct_atB7v160006IN5Catch5clara6detail13BoundValueRefIjEEJRjEPS5_EEPT_S9_DpOT0_, symObjAddr: 0xA6E94, symBinAddr: 0x1000AA934, symSize: 0x3C }
  - { offsetInCU: 0xC0061, offset: 0xC0061, size: 0x8, addend: 0x0, symName: __ZNSt3__110destroy_atB7v160006IN5Catch5clara6detail13BoundValueRefIjEELi0EEEvPT_, symObjAddr: 0xA70B0, symBinAddr: 0x1000AAB50, symSize: 0x24 }
  - { offsetInCU: 0xC009B, offset: 0xC009B, size: 0x8, addend: 0x0, symName: __ZNSt3__112__destroy_atB7v160006IN5Catch5clara6detail13BoundValueRefIjEELi0EEEvPT_, symObjAddr: 0xA70D4, symBinAddr: 0x1000AAB74, symSize: 0x2C }
  - { offsetInCU: 0xC010A, offset: 0xC010A, size: 0x8, addend: 0x0, symName: __ZNSt3__111make_sharedB7v160006IN5Catch5clara6detail13BoundValueRefIxEEJRxEvEENS_10shared_ptrIT_EEDpOT0_, symObjAddr: 0xA74A4, symBinAddr: 0x1000AAF44, symSize: 0x40 }
  - { offsetInCU: 0xC036F, offset: 0xC036F, size: 0x8, addend: 0x0, symName: __ZNSt3__115allocate_sharedB7v160006IN5Catch5clara6detail13BoundValueRefIxEENS_9allocatorIS5_EEJRxEvEENS_10shared_ptrIT_EERKT0_DpOT1_, symObjAddr: 0xA7544, symBinAddr: 0x1000AAFE4, symSize: 0x98 }
  - { offsetInCU: 0xC06D1, offset: 0xC06D1, size: 0x8, addend: 0x0, symName: __ZNSt3__112construct_atB7v160006IN5Catch5clara6detail13BoundValueRefIxEEJRxEPS5_EEPT_S9_DpOT0_, symObjAddr: 0xA7C18, symBinAddr: 0x1000AB6B8, symSize: 0x3C }
  - { offsetInCU: 0xC0749, offset: 0xC0749, size: 0x8, addend: 0x0, symName: __ZNSt3__110destroy_atB7v160006IN5Catch5clara6detail13BoundValueRefIxEELi0EEEvPT_, symObjAddr: 0xA7F98, symBinAddr: 0x1000ABA38, symSize: 0x24 }
  - { offsetInCU: 0xC0783, offset: 0xC0783, size: 0x8, addend: 0x0, symName: __ZNSt3__112__destroy_atB7v160006IN5Catch5clara6detail13BoundValueRefIxEELi0EEEvPT_, symObjAddr: 0xA7FBC, symBinAddr: 0x1000ABA5C, symSize: 0x2C }
  - { offsetInCU: 0xC07F3, offset: 0xC07F3, size: 0x8, addend: 0x0, symName: __ZNSt3__112construct_atB7v160006IN5Catch5clara6detail3ArgEJRKS4_EPS4_EEPT_S9_DpOT0_, symObjAddr: 0xA8484, symBinAddr: 0x1000ABF24, symSize: 0x3C }
  - { offsetInCU: 0xC086A, offset: 0xC086A, size: 0x8, addend: 0x0, symName: __ZNSt3__142__uninitialized_allocator_move_if_noexceptB7v160006INS_9allocatorIN5Catch5clara6detail3ArgEEENS_16reverse_iteratorIPS5_EES9_S9_EET2_RT_T0_T1_SA_, symObjAddr: 0xA8880, symBinAddr: 0x1000AC320, symSize: 0x124 }
  - { offsetInCU: 0xC090B, offset: 0xC090B, size: 0x8, addend: 0x0, symName: __ZNSt3__14swapB7v160006IPN5Catch5clara6detail3ArgEEENS_9enable_ifIXaasr21is_move_constructibleIT_EE5valuesr18is_move_assignableIS7_EE5valueEvE4typeERS7_SA_, symObjAddr: 0xA89A4, symBinAddr: 0x1000AC444, symSize: 0x3C }
  - { offsetInCU: 0xC0960, offset: 0xC0960, size: 0x8, addend: 0x0, symName: __ZNSt3__122__make_exception_guardB7v160006INS_29_AllocatorDestroyRangeReverseINS_9allocatorIN5Catch5clara6detail3ArgEEENS_16reverse_iteratorIPS6_EEEEEENS_28__exception_guard_exceptionsIT_EESD_, symObjAddr: 0xA89E0, symBinAddr: 0x1000AC480, symSize: 0x4C }
  - { offsetInCU: 0xC0998, offset: 0xC0998, size: 0x8, addend: 0x0, symName: __ZNSt3__112construct_atB7v160006IN5Catch5clara6detail3ArgEJS4_EPS4_EEPT_S7_DpOT0_, symObjAddr: 0xA8BAC, symBinAddr: 0x1000AC64C, symSize: 0x3C }
  - { offsetInCU: 0xC0A0F, offset: 0xC0A0F, size: 0x8, addend: 0x0, symName: __ZNSt3__119__allocator_destroyB7v160006INS_9allocatorIN5Catch5clara6detail3ArgEEENS_16reverse_iteratorINS7_IPS5_EEEESA_EEvRT_T0_T1_, symObjAddr: 0xA8E4C, symBinAddr: 0x1000AC8EC, symSize: 0x70 }
  - { offsetInCU: 0xC0A75, offset: 0xC0A75, size: 0x8, addend: 0x0, symName: __ZNSt3__1neB7v160006INS_16reverse_iteratorIPN5Catch5clara6detail3ArgEEES7_EEbRKNS1_IT_EERKNS1_IT0_EE, symObjAddr: 0xA8EF8, symBinAddr: 0x1000AC998, symSize: 0x60 }
  - { offsetInCU: 0xC0AC4, offset: 0xC0AC4, size: 0x8, addend: 0x0, symName: __ZNSt3__112__to_addressB7v160006INS_16reverse_iteratorINS1_IPN5Catch5clara6detail3ArgEEEEEvEENS_5decayIDTclsr19__to_address_helperIT_EE6__callclsr3stdE7declvalIRKSA_EEEEE4typeESC_, symObjAddr: 0xA8F58, symBinAddr: 0x1000AC9F8, symSize: 0x24 }
  - { offsetInCU: 0xC0B27, offset: 0xC0B27, size: 0x8, addend: 0x0, symName: __ZNSt3__14prevB7v160006INS_16reverse_iteratorIPN5Catch5clara6detail3ArgEEEEENS_9enable_ifIXsr25__is_cpp17_input_iteratorIT_EE5valueES9_E4typeES9_NS_15iterator_traitsIS9_E15difference_typeE, symObjAddr: 0xA9054, symBinAddr: 0x1000ACAF4, symSize: 0x60 }
  - { offsetInCU: 0xC0B6D, offset: 0xC0B6D, size: 0x8, addend: 0x0, symName: __ZNSt3__19__advanceB7v160006INS_16reverse_iteratorIPN5Catch5clara6detail3ArgEEEEEvRT_NS_15iterator_traitsIS8_E15difference_typeENS_26random_access_iterator_tagE, symObjAddr: 0xA9104, symBinAddr: 0x1000ACBA4, symSize: 0x2C }
  - { offsetInCU: 0xC0C00, offset: 0xC0C00, size: 0x8, addend: 0x0, symName: __ZNSt3__1eqB7v160006ERKNS_21__tree_const_iteratorINS_12basic_stringIcNS_11char_traitsIcEENS_9allocatorIcEEEEPNS_11__tree_nodeIS6_PvEElEESD_, symObjAddr: 0xAAB00, symBinAddr: 0x1000AE5A0, symSize: 0x30 }
  - { offsetInCU: 0xC0C3E, offset: 0xC0C3E, size: 0x8, addend: 0x0, symName: __ZNSt3__110destroy_atB7v160006INS_4pairIKNS_12basic_stringIcNS_11char_traitsIcEENS_9allocatorIcEEEEN5Catch7TagInfoEEELi0EEEvPT_, symObjAddr: 0xAB084, symBinAddr: 0x1000AEB24, symSize: 0x24 }
  - { offsetInCU: 0xC0C78, offset: 0xC0C78, size: 0x8, addend: 0x0, symName: __ZNSt3__112__destroy_atB7v160006INS_4pairIKNS_12basic_stringIcNS_11char_traitsIcEENS_9allocatorIcEEEEN5Catch7TagInfoEEELi0EEEvPT_, symObjAddr: 0xAB0A8, symBinAddr: 0x1000AEB48, symSize: 0x24 }
  - { offsetInCU: 0xC0CB1, offset: 0xC0CB1, size: 0x8, addend: 0x0, symName: __ZNSt3__17launderB7v160006INS_4pairIKNS_12basic_stringIcNS_11char_traitsIcEENS_9allocatorIcEEEEN5Catch7TagInfoEEEEEPT_SD_, symObjAddr: 0xAB154, symBinAddr: 0x1000AEBF4, symSize: 0x24 }
  - { offsetInCU: 0xC0CE8, offset: 0xC0CE8, size: 0x8, addend: 0x0, symName: __ZNSt3__19__launderB7v160006INS_4pairIKNS_12basic_stringIcNS_11char_traitsIcEENS_9allocatorIcEEEEN5Catch7TagInfoEEEEEPT_SD_, symObjAddr: 0xAB178, symBinAddr: 0x1000AEC18, symSize: 0x14 }
  - { offsetInCU: 0xC0D1F, offset: 0xC0D1F, size: 0x8, addend: 0x0, symName: __ZNSt3__1neB7v160006ERKNS_15__tree_iteratorINS_12__value_typeINS_12basic_stringIcNS_11char_traitsIcEENS_9allocatorIcEEEEN5Catch7TagInfoEEEPNS_11__tree_nodeISA_PvEElEESH_, symObjAddr: 0xAB3F0, symBinAddr: 0x1000AEE90, symSize: 0x34 }
  - { offsetInCU: 0xC0D5C, offset: 0xC0D5C, size: 0x8, addend: 0x0, symName: __ZNSt3__17launderB7v160006IKNS_4pairIKNS_12basic_stringIcNS_11char_traitsIcEENS_9allocatorIcEEEEN5Catch7TagInfoEEEEEPT_SE_, symObjAddr: 0xAB598, symBinAddr: 0x1000AF038, symSize: 0x24 }
  - { offsetInCU: 0xC0D93, offset: 0xC0D93, size: 0x8, addend: 0x0, symName: __ZNSt3__19__launderB7v160006IKNS_4pairIKNS_12basic_stringIcNS_11char_traitsIcEENS_9allocatorIcEEEEN5Catch7TagInfoEEEEEPT_SE_, symObjAddr: 0xAB5BC, symBinAddr: 0x1000AF05C, symSize: 0x14 }
  - { offsetInCU: 0xC0DCA, offset: 0xC0DCA, size: 0x8, addend: 0x0, symName: __ZNSt3__1eqB7v160006ERKNS_15__tree_iteratorINS_12__value_typeINS_12basic_stringIcNS_11char_traitsIcEENS_9allocatorIcEEEEN5Catch7TagInfoEEEPNS_11__tree_nodeISA_PvEElEESH_, symObjAddr: 0xAB5F0, symBinAddr: 0x1000AF090, symSize: 0x30 }
  - { offsetInCU: 0xC0E59, offset: 0xC0E59, size: 0x8, addend: 0x0, symName: __ZNSt3__112construct_atB7v160006INS_4pairIKNS_12basic_stringIcNS_11char_traitsIcEENS_9allocatorIcEEEEN5Catch7TagInfoEEEJNS1_IS7_SA_EEEPSB_EEPT_SF_DpOT0_, symObjAddr: 0xABFF4, symBinAddr: 0x1000AFA94, symSize: 0x3C }
  - { offsetInCU: 0xC0F72, offset: 0xC0F72, size: 0x8, addend: 0x0, symName: __ZNSt3__110scientificB7v160006ERNS_8ios_baseE, symObjAddr: 0xAC7E0, symBinAddr: 0x1000B0280, symSize: 0x30 }
  - { offsetInCU: 0xC0FA0, offset: 0xC0FA0, size: 0x8, addend: 0x0, symName: __ZNSt3__19use_facetB7v160006INS_7collateIcEEEERKT_RKNS_6localeE, symObjAddr: 0xACAB8, symBinAddr: 0x1000B0558, symSize: 0x2C }
  - { offsetInCU: 0xC0FD7, offset: 0xC0FD7, size: 0x8, addend: 0x0, symName: __ZNSt3__119__throw_regex_errorB7v160006ILNS_15regex_constants10error_typeE17EEEvv, symObjAddr: 0xACDB4, symBinAddr: 0x1000B0854, symSize: 0x60 }
  - { offsetInCU: 0xC148E, offset: 0xC148E, size: 0x8, addend: 0x0, symName: __ZNSt3__119__throw_regex_errorB7v160006ILNS_15regex_constants10error_typeE14EEEvv, symObjAddr: 0xAD758, symBinAddr: 0x1000B11F8, symSize: 0x60 }
  - { offsetInCU: 0xC1F41, offset: 0xC1F41, size: 0x8, addend: 0x0, symName: __ZNSt3__14swapB7v160006IPNS_13__empty_stateIcEEEENS_9enable_ifIXaasr21is_move_constructibleIT_EE5valuesr18is_move_assignableIS5_EE5valueEvE4typeERS5_S8_, symObjAddr: 0xAE628, symBinAddr: 0x1000B20C8, symSize: 0x3C }
  - { offsetInCU: 0xC1F96, offset: 0xC1F96, size: 0x8, addend: 0x0, symName: __ZNSt3__14nextB7v160006INS_11__wrap_iterIPKcEEEENS_9enable_ifIXsr25__is_cpp17_input_iteratorIT_EE5valueES6_E4typeES6_NS_15iterator_traitsIS6_E15difference_typeE, symObjAddr: 0xAFEE4, symBinAddr: 0x1000B3984, symSize: 0x50 }
  - { offsetInCU: 0xC1FDB, offset: 0xC1FDB, size: 0x8, addend: 0x0, symName: __ZNSt3__119__throw_regex_errorB7v160006ILNS_15regex_constants10error_typeE6EEEvv, symObjAddr: 0xB00F4, symBinAddr: 0x1000B3B94, symSize: 0x60 }
  - { offsetInCU: 0xC2087, offset: 0xC2087, size: 0x8, addend: 0x0, symName: __ZNSt3__18__is_eolB7v160006IcEEbT_, symObjAddr: 0xB0448, symBinAddr: 0x1000B3EE8, symSize: 0x48 }
  - { offsetInCU: 0xC20BF, offset: 0xC20BF, size: 0x8, addend: 0x0, symName: __ZNSt3__14prevB7v160006IPKcEENS_9enable_ifIXsr25__is_cpp17_input_iteratorIT_EE5valueES4_E4typeES4_NS_15iterator_traitsIS4_E15difference_typeE, symObjAddr: 0xB0490, symBinAddr: 0x1000B3F30, symSize: 0x50 }
  - { offsetInCU: 0xC2105, offset: 0xC2105, size: 0x8, addend: 0x0, symName: __ZNSt3__19__advanceB7v160006IPKcEEvRT_NS_15iterator_traitsIS3_E15difference_typeENS_26random_access_iterator_tagE, symObjAddr: 0xB0530, symBinAddr: 0x1000B3FD0, symSize: 0x28 }
  - { offsetInCU: 0xC21D8, offset: 0xC21D8, size: 0x8, addend: 0x0, symName: __ZNSt3__19__advanceB7v160006INS_11__wrap_iterIPKcEEEEvRT_NS_15iterator_traitsIS5_E15difference_typeENS_26random_access_iterator_tagE, symObjAddr: 0xB07C8, symBinAddr: 0x1000B4268, symSize: 0x2C }
  - { offsetInCU: 0xC268E, offset: 0xC268E, size: 0x8, addend: 0x0, symName: __ZNSt3__119__debug_db_insert_cB7v160006INS_6vectorINS_9sub_matchIPKcEENS_9allocatorIS5_EEEEEEvPT_, symObjAddr: 0xB1D84, symBinAddr: 0x1000B5824, symSize: 0x10 }
  - { offsetInCU: 0xC26C1, offset: 0xC26C1, size: 0x8, addend: 0x0, symName: __ZNSt3__118__debug_db_erase_cB7v160006INS_6vectorINS_9sub_matchIPKcEENS_9allocatorIS5_EEEEEEvPT_, symObjAddr: 0xB2060, symBinAddr: 0x1000B5B00, symSize: 0x10 }
  - { offsetInCU: 0xC26F4, offset: 0xC26F4, size: 0x8, addend: 0x0, symName: __ZNSt3__112__to_addressB7v160006INS_9sub_matchIPKcEEEEPT_S6_, symObjAddr: 0xB21A4, symBinAddr: 0x1000B5C44, symSize: 0x14 }
  - { offsetInCU: 0xC272B, offset: 0xC272B, size: 0x8, addend: 0x0, symName: __ZNSt3__110destroy_atB7v160006INS_9sub_matchIPKcEELi0EEEvPT_, symObjAddr: 0xB226C, symBinAddr: 0x1000B5D0C, symSize: 0x24 }
  - { offsetInCU: 0xC2765, offset: 0xC2765, size: 0x8, addend: 0x0, symName: __ZNSt3__112__destroy_atB7v160006INS_9sub_matchIPKcEELi0EEEvPT_, symObjAddr: 0xB2290, symBinAddr: 0x1000B5D30, symSize: 0x10 }
  - { offsetInCU: 0xC279F, offset: 0xC279F, size: 0x8, addend: 0x0, symName: __ZNSt3__16fill_nB7v160006IPNS_9sub_matchIPKcEEmS4_EET_S6_T0_RKT1_, symObjAddr: 0xB2494, symBinAddr: 0x1000B5F34, symSize: 0x44 }
  - { offsetInCU: 0xC2806, offset: 0xC2806, size: 0x8, addend: 0x0, symName: __ZNSt3__125__debug_db_invalidate_allB7v160006INS_6vectorINS_9sub_matchIPKcEENS_9allocatorIS5_EEEEEEvPT_, symObjAddr: 0xB27FC, symBinAddr: 0x1000B629C, symSize: 0x10 }
  - { offsetInCU: 0xC2839, offset: 0xC2839, size: 0x8, addend: 0x0, symName: __ZNSt3__18__fill_nB7v160006IPNS_9sub_matchIPKcEEmS4_EET_S6_T0_RKT1_, symObjAddr: 0xB280C, symBinAddr: 0x1000B62AC, symSize: 0x6C }
  - { offsetInCU: 0xC28C7, offset: 0xC28C7, size: 0x8, addend: 0x0, symName: __ZNSt3__112construct_atB7v160006INS_9sub_matchIPKcEEJRKS4_EPS4_EEPT_S9_DpOT0_, symObjAddr: 0xB295C, symBinAddr: 0x1000B63FC, symSize: 0x34 }
  - { offsetInCU: 0xC293F, offset: 0xC293F, size: 0x8, addend: 0x0, symName: __ZNSt3__119__allocate_at_leastB7v160006INS_9allocatorINS_9sub_matchIPKcEEEEEENS_19__allocation_resultINS_16allocator_traitsIT_E7pointerEEERS9_m, symObjAddr: 0xB2BC4, symBinAddr: 0x1000B6664, symSize: 0x40 }
  - { offsetInCU: 0xC2984, offset: 0xC2984, size: 0x8, addend: 0x0, symName: __ZNSt3__119__throw_regex_errorB7v160006ILNS_15regex_constants10error_typeE12EEEvv, symObjAddr: 0xB300C, symBinAddr: 0x1000B6AAC, symSize: 0x60 }
  - { offsetInCU: 0xC29AB, offset: 0xC29AB, size: 0x8, addend: 0x0, symName: __ZNSt3__14nextB7v160006IPKcEENS_9enable_ifIXsr25__is_cpp17_input_iteratorIT_EE5valueES4_E4typeES4_NS_15iterator_traitsIS4_E15difference_typeE, symObjAddr: 0xB3098, symBinAddr: 0x1000B6B38, symSize: 0x48 }
  - { offsetInCU: 0xC29F0, offset: 0xC29F0, size: 0x8, addend: 0x0, symName: __ZNSt3__119__throw_regex_errorB7v160006ILNS_15regex_constants10error_typeE16EEEvv, symObjAddr: 0xB3114, symBinAddr: 0x1000B6BB4, symSize: 0x60 }
  - { offsetInCU: 0xC2A17, offset: 0xC2A17, size: 0x8, addend: 0x0, symName: __ZNSt3__119__debug_db_insert_cB7v160006INS_6vectorINS_7__stateIcEENS_9allocatorIS3_EEEEEEvPT_, symObjAddr: 0xB325C, symBinAddr: 0x1000B6CFC, symSize: 0x10 }
  - { offsetInCU: 0xC2A4A, offset: 0xC2A4A, size: 0x8, addend: 0x0, symName: __ZNSt3__112__to_addressB7v160006INS_7__stateIcEEEEPT_S4_, symObjAddr: 0xB3590, symBinAddr: 0x1000B7030, symSize: 0x14 }
  - { offsetInCU: 0xC2AA8, offset: 0xC2AA8, size: 0x8, addend: 0x0, symName: __ZNSt3__112construct_atB7v160006INS_7__stateIcEEJS2_EPS2_EEPT_S5_DpOT0_, symObjAddr: 0xB361C, symBinAddr: 0x1000B70BC, symSize: 0x3C }
  - { offsetInCU: 0xC2B20, offset: 0xC2B20, size: 0x8, addend: 0x0, symName: __ZNSt3__115__debug_db_swapB7v160006INS_6vectorINS_9sub_matchIPKcEENS_9allocatorIS5_EEEEEEvPT_SA_, symObjAddr: 0xB3884, symBinAddr: 0x1000B7324, symSize: 0x14 }
  - { offsetInCU: 0xC2B62, offset: 0xC2B62, size: 0x8, addend: 0x0, symName: __ZNSt3__119__debug_db_insert_cB7v160006INS_6vectorINS_4pairImPKcEENS_9allocatorIS5_EEEEEEvPT_, symObjAddr: 0xB3A38, symBinAddr: 0x1000B74D8, symSize: 0x10 }
  - { offsetInCU: 0xC2B95, offset: 0xC2B95, size: 0x8, addend: 0x0, symName: __ZNSt3__115__debug_db_swapB7v160006INS_6vectorINS_4pairImPKcEENS_9allocatorIS5_EEEEEEvPT_SA_, symObjAddr: 0xB3A48, symBinAddr: 0x1000B74E8, symSize: 0x14 }
  - { offsetInCU: 0xC2BD7, offset: 0xC2BD7, size: 0x8, addend: 0x0, symName: __ZNSt3__119__allocate_at_leastB7v160006INS_9allocatorINS_7__stateIcEEEEEENS_19__allocation_resultINS_16allocator_traitsIT_E7pointerEEERS7_m, symObjAddr: 0xB40E8, symBinAddr: 0x1000B7B88, symSize: 0x40 }
  - { offsetInCU: 0xC2C1C, offset: 0xC2C1C, size: 0x8, addend: 0x0, symName: __ZNSt3__142__uninitialized_allocator_move_if_noexceptB7v160006INS_9allocatorINS_7__stateIcEEEENS_16reverse_iteratorIPS3_EES7_S7_EET2_RT_T0_T1_S8_, symObjAddr: 0xB4374, symBinAddr: 0x1000B7E14, symSize: 0x12C }
  - { offsetInCU: 0xC2CBD, offset: 0xC2CBD, size: 0x8, addend: 0x0, symName: __ZNSt3__14swapB7v160006IPNS_7__stateIcEEEENS_9enable_ifIXaasr21is_move_constructibleIT_EE5valuesr18is_move_assignableIS5_EE5valueEvE4typeERS5_S8_, symObjAddr: 0xB44EC, symBinAddr: 0x1000B7F8C, symSize: 0x3C }
  - { offsetInCU: 0xC2D12, offset: 0xC2D12, size: 0x8, addend: 0x0, symName: __ZNSt3__125__debug_db_invalidate_allB7v160006INS_6vectorINS_7__stateIcEENS_9allocatorIS3_EEEEEEvPT_, symObjAddr: 0xB45F0, symBinAddr: 0x1000B8090, symSize: 0x10 }
  - { offsetInCU: 0xC2D45, offset: 0xC2D45, size: 0x8, addend: 0x0, symName: __ZNSt3__122__make_exception_guardB7v160006INS_29_AllocatorDestroyRangeReverseINS_9allocatorINS_7__stateIcEEEENS_16reverse_iteratorIPS4_EEEEEENS_28__exception_guard_exceptionsIT_EESB_, symObjAddr: 0xB4648, symBinAddr: 0x1000B80E8, symSize: 0x4C }
  - { offsetInCU: 0xC2D7D, offset: 0xC2D7D, size: 0x8, addend: 0x0, symName: __ZNSt3__1neB7v160006IPNS_7__stateIcEES3_EEbRKNS_16reverse_iteratorIT_EERKNS4_IT0_EE, symObjAddr: 0xB46D8, symBinAddr: 0x1000B8178, symSize: 0x48 }
  - { offsetInCU: 0xC2DCC, offset: 0xC2DCC, size: 0x8, addend: 0x0, symName: __ZNSt3__112__to_addressB7v160006INS_16reverse_iteratorIPNS_7__stateIcEEEEvEENS_5decayIDTclsr19__to_address_helperIT_EE6__callclsr3stdE7declvalIRKS7_EEEEE4typeES9_, symObjAddr: 0xB4720, symBinAddr: 0x1000B81C0, symSize: 0x24 }
  - { offsetInCU: 0xC2E2F, offset: 0xC2E2F, size: 0x8, addend: 0x0, symName: __ZNSt3__14prevB7v160006IPNS_7__stateIcEEEENS_9enable_ifIXsr25__is_cpp17_input_iteratorIT_EE5valueES5_E4typeES5_NS_15iterator_traitsIS5_E15difference_typeE, symObjAddr: 0xB48D4, symBinAddr: 0x1000B8374, symSize: 0x50 }
  - { offsetInCU: 0xC2E75, offset: 0xC2E75, size: 0x8, addend: 0x0, symName: __ZNSt3__19__advanceB7v160006IPNS_7__stateIcEEEEvRT_NS_15iterator_traitsIS4_E15difference_typeENS_26random_access_iterator_tagE, symObjAddr: 0xB4974, symBinAddr: 0x1000B8414, symSize: 0x30 }
  - { offsetInCU: 0xC2EC1, offset: 0xC2EC1, size: 0x8, addend: 0x0, symName: __ZNSt3__119__allocator_destroyB7v160006INS_9allocatorINS_7__stateIcEEEENS_16reverse_iteratorINS5_IPS3_EEEES8_EEvRT_T0_T1_, symObjAddr: 0xB4AA8, symBinAddr: 0x1000B8548, symSize: 0x70 }
  - { offsetInCU: 0xC2F27, offset: 0xC2F27, size: 0x8, addend: 0x0, symName: __ZNSt3__1neB7v160006INS_16reverse_iteratorIPNS_7__stateIcEEEES5_EEbRKNS1_IT_EERKNS1_IT0_EE, symObjAddr: 0xB4B54, symBinAddr: 0x1000B85F4, symSize: 0x60 }
  - { offsetInCU: 0xC2F76, offset: 0xC2F76, size: 0x8, addend: 0x0, symName: __ZNSt3__112__to_addressB7v160006INS_16reverse_iteratorINS1_IPNS_7__stateIcEEEEEEvEENS_5decayIDTclsr19__to_address_helperIT_EE6__callclsr3stdE7declvalIRKS8_EEEEE4typeESA_, symObjAddr: 0xB4BDC, symBinAddr: 0x1000B867C, symSize: 0x24 }
  - { offsetInCU: 0xC2FAE, offset: 0xC2FAE, size: 0x8, addend: 0x0, symName: __ZNSt3__110destroy_atB7v160006INS_7__stateIcEELi0EEEvPT_, symObjAddr: 0xB4C54, symBinAddr: 0x1000B86F4, symSize: 0x24 }
  - { offsetInCU: 0xC2FE8, offset: 0xC2FE8, size: 0x8, addend: 0x0, symName: __ZNSt3__112__destroy_atB7v160006INS_7__stateIcEELi0EEEvPT_, symObjAddr: 0xB4C78, symBinAddr: 0x1000B8718, symSize: 0x24 }
  - { offsetInCU: 0xC304D, offset: 0xC304D, size: 0x8, addend: 0x0, symName: __ZNSt3__14prevB7v160006INS_16reverse_iteratorIPNS_7__stateIcEEEEEENS_9enable_ifIXsr25__is_cpp17_input_iteratorIT_EE5valueES7_E4typeES7_NS_15iterator_traitsIS7_E15difference_typeE, symObjAddr: 0xB4D20, symBinAddr: 0x1000B87C0, symSize: 0x60 }
  - { offsetInCU: 0xC3093, offset: 0xC3093, size: 0x8, addend: 0x0, symName: __ZNSt3__19__advanceB7v160006INS_16reverse_iteratorIPNS_7__stateIcEEEEEEvRT_NS_15iterator_traitsIS6_E15difference_typeENS_26random_access_iterator_tagE, symObjAddr: 0xB4DD0, symBinAddr: 0x1000B8870, symSize: 0x2C }
  - { offsetInCU: 0xC30E0, offset: 0xC30E0, size: 0x8, addend: 0x0, symName: __ZNSt3__118__debug_db_erase_cB7v160006INS_6vectorINS_4pairImPKcEENS_9allocatorIS5_EEEEEEvPT_, symObjAddr: 0xB563C, symBinAddr: 0x1000B90DC, symSize: 0x10 }
  - { offsetInCU: 0xC3113, offset: 0xC3113, size: 0x8, addend: 0x0, symName: __ZNSt3__112__to_addressB7v160006INS_4pairImPKcEEEEPT_S6_, symObjAddr: 0xB5758, symBinAddr: 0x1000B91F8, symSize: 0x14 }
  - { offsetInCU: 0xC314A, offset: 0xC314A, size: 0x8, addend: 0x0, symName: __ZNSt3__110destroy_atB7v160006INS_4pairImPKcEELi0EEEvPT_, symObjAddr: 0xB5820, symBinAddr: 0x1000B92C0, symSize: 0x24 }
  - { offsetInCU: 0xC3184, offset: 0xC3184, size: 0x8, addend: 0x0, symName: __ZNSt3__112__destroy_atB7v160006INS_4pairImPKcEELi0EEEvPT_, symObjAddr: 0xB5844, symBinAddr: 0x1000B92E4, symSize: 0x10 }
  - { offsetInCU: 0xC31BD, offset: 0xC31BD, size: 0x8, addend: 0x0, symName: __ZNSt3__142__uninitialized_allocator_move_if_noexceptB7v160006INS_9allocatorINS_9sub_matchIPKcEEEENS_16reverse_iteratorIPS5_EES9_S9_EET2_RT_T0_T1_SA_, symObjAddr: 0xB5F58, symBinAddr: 0x1000B99F8, symSize: 0x12C }
  - { offsetInCU: 0xC325E, offset: 0xC325E, size: 0x8, addend: 0x0, symName: __ZNSt3__14swapB7v160006IPNS_9sub_matchIPKcEEEENS_9enable_ifIXaasr21is_move_constructibleIT_EE5valuesr18is_move_assignableIS7_EE5valueEvE4typeERS7_SA_, symObjAddr: 0xB60D0, symBinAddr: 0x1000B9B70, symSize: 0x3C }
  - { offsetInCU: 0xC32B3, offset: 0xC32B3, size: 0x8, addend: 0x0, symName: __ZNSt3__122__make_exception_guardB7v160006INS_29_AllocatorDestroyRangeReverseINS_9allocatorINS_9sub_matchIPKcEEEENS_16reverse_iteratorIPS6_EEEEEENS_28__exception_guard_exceptionsIT_EESD_, symObjAddr: 0xB610C, symBinAddr: 0x1000B9BAC, symSize: 0x4C }
  - { offsetInCU: 0xC32EB, offset: 0xC32EB, size: 0x8, addend: 0x0, symName: __ZNSt3__1neB7v160006IPNS_9sub_matchIPKcEES5_EEbRKNS_16reverse_iteratorIT_EERKNS6_IT0_EE, symObjAddr: 0xB619C, symBinAddr: 0x1000B9C3C, symSize: 0x48 }
  - { offsetInCU: 0xC333A, offset: 0xC333A, size: 0x8, addend: 0x0, symName: __ZNSt3__112__to_addressB7v160006INS_16reverse_iteratorIPNS_9sub_matchIPKcEEEEvEENS_5decayIDTclsr19__to_address_helperIT_EE6__callclsr3stdE7declvalIRKS9_EEEEE4typeESB_, symObjAddr: 0xB6214, symBinAddr: 0x1000B9CB4, symSize: 0x24 }
  - { offsetInCU: 0xC3372, offset: 0xC3372, size: 0x8, addend: 0x0, symName: __ZNSt3__112construct_atB7v160006INS_9sub_matchIPKcEEJS4_EPS4_EEPT_S7_DpOT0_, symObjAddr: 0xB6364, symBinAddr: 0x1000B9E04, symSize: 0x34 }
  - { offsetInCU: 0xC3415, offset: 0xC3415, size: 0x8, addend: 0x0, symName: __ZNSt3__14prevB7v160006IPNS_9sub_matchIPKcEEEENS_9enable_ifIXsr25__is_cpp17_input_iteratorIT_EE5valueES7_E4typeES7_NS_15iterator_traitsIS7_E15difference_typeE, symObjAddr: 0xB63FC, symBinAddr: 0x1000B9E9C, symSize: 0x50 }
  - { offsetInCU: 0xC345B, offset: 0xC345B, size: 0x8, addend: 0x0, symName: __ZNSt3__19__advanceB7v160006IPNS_9sub_matchIPKcEEEEvRT_NS_15iterator_traitsIS6_E15difference_typeENS_26random_access_iterator_tagE, symObjAddr: 0xB649C, symBinAddr: 0x1000B9F3C, symSize: 0x30 }
  - { offsetInCU: 0xC34A7, offset: 0xC34A7, size: 0x8, addend: 0x0, symName: __ZNSt3__119__allocator_destroyB7v160006INS_9allocatorINS_9sub_matchIPKcEEEENS_16reverse_iteratorINS7_IPS5_EEEESA_EEvRT_T0_T1_, symObjAddr: 0xB65D0, symBinAddr: 0x1000BA070, symSize: 0x70 }
  - { offsetInCU: 0xC350D, offset: 0xC350D, size: 0x8, addend: 0x0, symName: __ZNSt3__1neB7v160006INS_16reverse_iteratorIPNS_9sub_matchIPKcEEEES7_EEbRKNS1_IT_EERKNS1_IT0_EE, symObjAddr: 0xB667C, symBinAddr: 0x1000BA11C, symSize: 0x60 }
  - { offsetInCU: 0xC355C, offset: 0xC355C, size: 0x8, addend: 0x0, symName: __ZNSt3__112__to_addressB7v160006INS_16reverse_iteratorINS1_IPNS_9sub_matchIPKcEEEEEEvEENS_5decayIDTclsr19__to_address_helperIT_EE6__callclsr3stdE7declvalIRKSA_EEEEE4typeESC_, symObjAddr: 0xB66DC, symBinAddr: 0x1000BA17C, symSize: 0x24 }
  - { offsetInCU: 0xC35BF, offset: 0xC35BF, size: 0x8, addend: 0x0, symName: __ZNSt3__14prevB7v160006INS_16reverse_iteratorIPNS_9sub_matchIPKcEEEEEENS_9enable_ifIXsr25__is_cpp17_input_iteratorIT_EE5valueES9_E4typeES9_NS_15iterator_traitsIS9_E15difference_typeE, symObjAddr: 0xB67D8, symBinAddr: 0x1000BA278, symSize: 0x60 }
  - { offsetInCU: 0xC3605, offset: 0xC3605, size: 0x8, addend: 0x0, symName: __ZNSt3__19__advanceB7v160006INS_16reverse_iteratorIPNS_9sub_matchIPKcEEEEEEvRT_NS_15iterator_traitsIS8_E15difference_typeENS_26random_access_iterator_tagE, symObjAddr: 0xB6888, symBinAddr: 0x1000BA328, symSize: 0x2C }
  - { offsetInCU: 0xC3679, offset: 0xC3679, size: 0x8, addend: 0x0, symName: __ZNSt3__112construct_atB7v160006INS_4pairImPKcEEJEPS4_EEPT_S7_DpOT0_, symObjAddr: 0xB7138, symBinAddr: 0x1000BABD8, symSize: 0x34 }
  - { offsetInCU: 0xC36DB, offset: 0xC36DB, size: 0x8, addend: 0x0, symName: __ZNSt3__119__allocate_at_leastB7v160006INS_9allocatorINS_4pairImPKcEEEEEENS_19__allocation_resultINS_16allocator_traitsIT_E7pointerEEERS9_m, symObjAddr: 0xB73E8, symBinAddr: 0x1000BAE88, symSize: 0x40 }
  - { offsetInCU: 0xC3720, offset: 0xC3720, size: 0x8, addend: 0x0, symName: __ZNSt3__142__uninitialized_allocator_move_if_noexceptB7v160006INS_9allocatorINS_4pairImPKcEEEENS_16reverse_iteratorIPS5_EES9_S9_EET2_RT_T0_T1_SA_, symObjAddr: 0xB7668, symBinAddr: 0x1000BB108, symSize: 0x12C }
  - { offsetInCU: 0xC37C1, offset: 0xC37C1, size: 0x8, addend: 0x0, symName: __ZNSt3__14swapB7v160006IPNS_4pairImPKcEEEENS_9enable_ifIXaasr21is_move_constructibleIT_EE5valuesr18is_move_assignableIS7_EE5valueEvE4typeERS7_SA_, symObjAddr: 0xB77E0, symBinAddr: 0x1000BB280, symSize: 0x3C }
  - { offsetInCU: 0xC3816, offset: 0xC3816, size: 0x8, addend: 0x0, symName: __ZNSt3__125__debug_db_invalidate_allB7v160006INS_6vectorINS_4pairImPKcEENS_9allocatorIS5_EEEEEEvPT_, symObjAddr: 0xB78C8, symBinAddr: 0x1000BB368, symSize: 0x10 }
  - { offsetInCU: 0xC3849, offset: 0xC3849, size: 0x8, addend: 0x0, symName: __ZNSt3__122__make_exception_guardB7v160006INS_29_AllocatorDestroyRangeReverseINS_9allocatorINS_4pairImPKcEEEENS_16reverse_iteratorIPS6_EEEEEENS_28__exception_guard_exceptionsIT_EESD_, symObjAddr: 0xB78D8, symBinAddr: 0x1000BB378, symSize: 0x4C }
  - { offsetInCU: 0xC3881, offset: 0xC3881, size: 0x8, addend: 0x0, symName: __ZNSt3__1neB7v160006IPNS_4pairImPKcEES5_EEbRKNS_16reverse_iteratorIT_EERKNS6_IT0_EE, symObjAddr: 0xB7968, symBinAddr: 0x1000BB408, symSize: 0x48 }
  - { offsetInCU: 0xC38D0, offset: 0xC38D0, size: 0x8, addend: 0x0, symName: __ZNSt3__112__to_addressB7v160006INS_16reverse_iteratorIPNS_4pairImPKcEEEEvEENS_5decayIDTclsr19__to_address_helperIT_EE6__callclsr3stdE7declvalIRKS9_EEEEE4typeESB_, symObjAddr: 0xB79E0, symBinAddr: 0x1000BB480, symSize: 0x24 }
  - { offsetInCU: 0xC3908, offset: 0xC3908, size: 0x8, addend: 0x0, symName: __ZNSt3__112construct_atB7v160006INS_4pairImPKcEEJS4_EPS4_EEPT_S7_DpOT0_, symObjAddr: 0xB7B30, symBinAddr: 0x1000BB5D0, symSize: 0x2C }
  - { offsetInCU: 0xC39AB, offset: 0xC39AB, size: 0x8, addend: 0x0, symName: __ZNSt3__14prevB7v160006IPNS_4pairImPKcEEEENS_9enable_ifIXsr25__is_cpp17_input_iteratorIT_EE5valueES7_E4typeES7_NS_15iterator_traitsIS7_E15difference_typeE, symObjAddr: 0xB7BC0, symBinAddr: 0x1000BB660, symSize: 0x50 }
  - { offsetInCU: 0xC39F1, offset: 0xC39F1, size: 0x8, addend: 0x0, symName: __ZNSt3__19__advanceB7v160006IPNS_4pairImPKcEEEEvRT_NS_15iterator_traitsIS6_E15difference_typeENS_26random_access_iterator_tagE, symObjAddr: 0xB7C60, symBinAddr: 0x1000BB700, symSize: 0x28 }
  - { offsetInCU: 0xC3A3D, offset: 0xC3A3D, size: 0x8, addend: 0x0, symName: __ZNSt3__119__allocator_destroyB7v160006INS_9allocatorINS_4pairImPKcEEEENS_16reverse_iteratorINS7_IPS5_EEEESA_EEvRT_T0_T1_, symObjAddr: 0xB7D8C, symBinAddr: 0x1000BB82C, symSize: 0x70 }
  - { offsetInCU: 0xC3AA3, offset: 0xC3AA3, size: 0x8, addend: 0x0, symName: __ZNSt3__1neB7v160006INS_16reverse_iteratorIPNS_4pairImPKcEEEES7_EEbRKNS1_IT_EERKNS1_IT0_EE, symObjAddr: 0xB7E38, symBinAddr: 0x1000BB8D8, symSize: 0x60 }
  - { offsetInCU: 0xC3AF2, offset: 0xC3AF2, size: 0x8, addend: 0x0, symName: __ZNSt3__112__to_addressB7v160006INS_16reverse_iteratorINS1_IPNS_4pairImPKcEEEEEEvEENS_5decayIDTclsr19__to_address_helperIT_EE6__callclsr3stdE7declvalIRKSA_EEEEE4typeESC_, symObjAddr: 0xB7E98, symBinAddr: 0x1000BB938, symSize: 0x24 }
  - { offsetInCU: 0xC3B55, offset: 0xC3B55, size: 0x8, addend: 0x0, symName: __ZNSt3__14prevB7v160006INS_16reverse_iteratorIPNS_4pairImPKcEEEEEENS_9enable_ifIXsr25__is_cpp17_input_iteratorIT_EE5valueES9_E4typeES9_NS_15iterator_traitsIS9_E15difference_typeE, symObjAddr: 0xB7F94, symBinAddr: 0x1000BBA34, symSize: 0x60 }
  - { offsetInCU: 0xC3B9B, offset: 0xC3B9B, size: 0x8, addend: 0x0, symName: __ZNSt3__19__advanceB7v160006INS_16reverse_iteratorIPNS_4pairImPKcEEEEEEvRT_NS_15iterator_traitsIS8_E15difference_typeENS_26random_access_iterator_tagE, symObjAddr: 0xB8044, symBinAddr: 0x1000BBAE4, symSize: 0x2C }
  - { offsetInCU: 0xC3BE8, offset: 0xC3BE8, size: 0x8, addend: 0x0, symName: __ZNSt3__122__make_exception_guardB7v160006INS_6vectorINS_9sub_matchIPKcEENS_9allocatorIS5_EEE16__destroy_vectorEEENS_28__exception_guard_exceptionsIT_EESB_, symObjAddr: 0xB87C4, symBinAddr: 0x1000BC264, symSize: 0x40 }
  - { offsetInCU: 0xC3C1E, offset: 0xC3C1E, size: 0x8, addend: 0x0, symName: __ZNSt3__130__uninitialized_allocator_copyB7v160006INS_9allocatorINS_9sub_matchIPKcEEEEPS5_S7_S7_EET2_RT_T0_T1_S8_, symObjAddr: 0xB8930, symBinAddr: 0x1000BC3D0, symSize: 0xF4 }
  - { offsetInCU: 0xC3CBD, offset: 0xC3CBD, size: 0x8, addend: 0x0, symName: __ZNSt3__122__make_exception_guardB7v160006INS_29_AllocatorDestroyRangeReverseINS_9allocatorINS_9sub_matchIPKcEEEEPS6_EEEENS_28__exception_guard_exceptionsIT_EESB_, symObjAddr: 0xB8A24, symBinAddr: 0x1000BC4C4, symSize: 0x4C }
  - { offsetInCU: 0xC3CF5, offset: 0xC3CF5, size: 0x8, addend: 0x0, symName: __ZNSt3__112construct_atB7v160006INS_9sub_matchIPKcEEJRS4_EPS4_EEPT_S8_DpOT0_, symObjAddr: 0xB8BC8, symBinAddr: 0x1000BC668, symSize: 0x34 }
  - { offsetInCU: 0xC3D6C, offset: 0xC3D6C, size: 0x8, addend: 0x0, symName: __ZNSt3__119__allocator_destroyB7v160006INS_9allocatorINS_9sub_matchIPKcEEEENS_16reverse_iteratorIPS5_EES9_EEvRT_T0_T1_, symObjAddr: 0xB8CB4, symBinAddr: 0x1000BC754, symSize: 0x70 }
  - { offsetInCU: 0xC3DD0, offset: 0xC3DD0, size: 0x8, addend: 0x0, symName: __ZNSt3__122__make_exception_guardB7v160006INS_6vectorINS_4pairImPKcEENS_9allocatorIS5_EEE16__destroy_vectorEEENS_28__exception_guard_exceptionsIT_EESB_, symObjAddr: 0xB8E94, symBinAddr: 0x1000BC934, symSize: 0x40 }
  - { offsetInCU: 0xC3E06, offset: 0xC3E06, size: 0x8, addend: 0x0, symName: __ZNSt3__130__uninitialized_allocator_copyB7v160006INS_9allocatorINS_4pairImPKcEEEEPS5_S7_S7_EET2_RT_T0_T1_S8_, symObjAddr: 0xB90AC, symBinAddr: 0x1000BCB4C, symSize: 0xF4 }
  - { offsetInCU: 0xC3EA5, offset: 0xC3EA5, size: 0x8, addend: 0x0, symName: __ZNSt3__122__make_exception_guardB7v160006INS_29_AllocatorDestroyRangeReverseINS_9allocatorINS_4pairImPKcEEEEPS6_EEEENS_28__exception_guard_exceptionsIT_EESB_, symObjAddr: 0xB91A0, symBinAddr: 0x1000BCC40, symSize: 0x4C }
  - { offsetInCU: 0xC3EDD, offset: 0xC3EDD, size: 0x8, addend: 0x0, symName: __ZNSt3__112construct_atB7v160006INS_4pairImPKcEEJRS4_EPS4_EEPT_S8_DpOT0_, symObjAddr: 0xB9344, symBinAddr: 0x1000BCDE4, symSize: 0x2C }
  - { offsetInCU: 0xC3F54, offset: 0xC3F54, size: 0x8, addend: 0x0, symName: __ZNSt3__119__allocator_destroyB7v160006INS_9allocatorINS_4pairImPKcEEEENS_16reverse_iteratorIPS5_EES9_EEvRT_T0_T1_, symObjAddr: 0xB9428, symBinAddr: 0x1000BCEC8, symSize: 0x70 }
  - { offsetInCU: 0xC3FB8, offset: 0xC3FB8, size: 0x8, addend: 0x0, symName: __ZNSt3__118__debug_db_erase_cB7v160006INS_6vectorINS_7__stateIcEENS_9allocatorIS3_EEEEEEvPT_, symObjAddr: 0xB961C, symBinAddr: 0x1000BD0BC, symSize: 0x10 }
  - { offsetInCU: 0xC3FEA, offset: 0xC3FEA, size: 0x8, addend: 0x0, symName: __ZNSt3__119__throw_regex_errorB7v160006ILNS_15regex_constants10error_typeE11EEEvv, symObjAddr: 0xB9CAC, symBinAddr: 0x1000BD74C, symSize: 0x60 }
  - { offsetInCU: 0xC4084, offset: 0xC4084, size: 0x8, addend: 0x0, symName: __ZNSt3__119__throw_regex_errorB7v160006ILNS_15regex_constants10error_typeE3EEEvv, symObjAddr: 0xBA038, symBinAddr: 0x1000BDAD8, symSize: 0x60 }
  - { offsetInCU: 0xC40AA, offset: 0xC40AA, size: 0x8, addend: 0x0, symName: __ZNSt3__119__throw_regex_errorB7v160006ILNS_15regex_constants10error_typeE4EEEvv, symObjAddr: 0xBAE38, symBinAddr: 0x1000BE8D8, symSize: 0x60 }
  - { offsetInCU: 0xC44EB, offset: 0xC44EB, size: 0x8, addend: 0x0, symName: __ZNSt3__15equalB7v160006IPKcS2_EEbT_S3_T0_, symObjAddr: 0xBBFB4, symBinAddr: 0x1000BFA54, symSize: 0x38 }
  - { offsetInCU: 0xC4549, offset: 0xC4549, size: 0x8, addend: 0x0, symName: __ZNSt3__15equalB7v160006IPKcS2_NS_10__equal_toEEEbT_S4_T0_T1_, symObjAddr: 0xBBFEC, symBinAddr: 0x1000BFA8C, symSize: 0xA8 }
  - { offsetInCU: 0xC45BF, offset: 0xC45BF, size: 0x8, addend: 0x0, symName: __ZNSt3__119__debug_db_insert_cB7v160006INS_6vectorIcNS_9allocatorIcEEEEEEvPT_, symObjAddr: 0xBD04C, symBinAddr: 0x1000C0AEC, symSize: 0x10 }
  - { offsetInCU: 0xC45F2, offset: 0xC45F2, size: 0x8, addend: 0x0, symName: __ZNSt3__119__debug_db_insert_cB7v160006INS_6vectorINS_4pairINS_12basic_stringIcNS_11char_traitsIcEENS_9allocatorIcEEEES8_EENS6_IS9_EEEEEEvPT_, symObjAddr: 0xBD14C, symBinAddr: 0x1000C0BEC, symSize: 0x10 }
  - { offsetInCU: 0xC4625, offset: 0xC4625, size: 0x8, addend: 0x0, symName: __ZNSt3__119__debug_db_insert_cB7v160006INS_6vectorINS_4pairIccEENS_9allocatorIS3_EEEEEEvPT_, symObjAddr: 0xBD2B8, symBinAddr: 0x1000C0D58, symSize: 0x10 }
  - { offsetInCU: 0xC4658, offset: 0xC4658, size: 0x8, addend: 0x0, symName: __ZNSt3__118__debug_db_erase_cB7v160006INS_6vectorINS_4pairIccEENS_9allocatorIS3_EEEEEEvPT_, symObjAddr: 0xBD57C, symBinAddr: 0x1000C101C, symSize: 0x10 }
  - { offsetInCU: 0xC468B, offset: 0xC468B, size: 0x8, addend: 0x0, symName: __ZNSt3__112__to_addressB7v160006INS_4pairIccEEEEPT_S4_, symObjAddr: 0xBD6C0, symBinAddr: 0x1000C1160, symSize: 0x14 }
  - { offsetInCU: 0xC46C2, offset: 0xC46C2, size: 0x8, addend: 0x0, symName: __ZNSt3__110destroy_atB7v160006INS_4pairIccEELi0EEEvPT_, symObjAddr: 0xBD788, symBinAddr: 0x1000C1228, symSize: 0x24 }
  - { offsetInCU: 0xC46FC, offset: 0xC46FC, size: 0x8, addend: 0x0, symName: __ZNSt3__112__destroy_atB7v160006INS_4pairIccEELi0EEEvPT_, symObjAddr: 0xBD7AC, symBinAddr: 0x1000C124C, symSize: 0x10 }
  - { offsetInCU: 0xC4736, offset: 0xC4736, size: 0x8, addend: 0x0, symName: __ZNSt3__118__debug_db_erase_cB7v160006INS_6vectorINS_4pairINS_12basic_stringIcNS_11char_traitsIcEENS_9allocatorIcEEEES8_EENS6_IS9_EEEEEEvPT_, symObjAddr: 0xBDA9C, symBinAddr: 0x1000C153C, symSize: 0x10 }
  - { offsetInCU: 0xC4769, offset: 0xC4769, size: 0x8, addend: 0x0, symName: __ZNSt3__112__to_addressB7v160006INS_4pairINS_12basic_stringIcNS_11char_traitsIcEENS_9allocatorIcEEEES7_EEEEPT_SA_, symObjAddr: 0xBDBE0, symBinAddr: 0x1000C1680, symSize: 0x14 }
  - { offsetInCU: 0xC47A0, offset: 0xC47A0, size: 0x8, addend: 0x0, symName: __ZNSt3__110destroy_atB7v160006INS_4pairINS_12basic_stringIcNS_11char_traitsIcEENS_9allocatorIcEEEES7_EELi0EEEvPT_, symObjAddr: 0xBDCA8, symBinAddr: 0x1000C1748, symSize: 0x24 }
  - { offsetInCU: 0xC47DA, offset: 0xC47DA, size: 0x8, addend: 0x0, symName: __ZNSt3__112__destroy_atB7v160006INS_4pairINS_12basic_stringIcNS_11char_traitsIcEENS_9allocatorIcEEEES7_EELi0EEEvPT_, symObjAddr: 0xBDCCC, symBinAddr: 0x1000C176C, symSize: 0x24 }
  - { offsetInCU: 0xC4814, offset: 0xC4814, size: 0x8, addend: 0x0, symName: __ZNSt3__118__debug_db_erase_cB7v160006INS_6vectorIcNS_9allocatorIcEEEEEEvPT_, symObjAddr: 0xBE01C, symBinAddr: 0x1000C1ABC, symSize: 0x10 }
  - { offsetInCU: 0xC4846, offset: 0xC4846, size: 0x8, addend: 0x0, symName: __ZNSt3__1eqB7v160006IccEEbRKNS_4pairIT_T0_EES6_, symObjAddr: 0xBE32C, symBinAddr: 0x1000C1DCC, symSize: 0x64 }
  - { offsetInCU: 0xC4895, offset: 0xC4895, size: 0x8, addend: 0x0, symName: __ZNSt3__1leB7v160006ENS_15strong_orderingENS_20_CmpUnspecifiedParamE, symObjAddr: 0xBE4CC, symBinAddr: 0x1000C1F6C, symSize: 0x24 }
  - { offsetInCU: 0xC48CF, offset: 0xC48CF, size: 0x8, addend: 0x0, symName: __ZNSt3__14findB7v160006INS_11__wrap_iterIPKcEEcEET_S5_S5_RKT0_, symObjAddr: 0xBE5A8, symBinAddr: 0x1000C2048, symSize: 0x80 }
  - { offsetInCU: 0xC492D, offset: 0xC492D, size: 0x8, addend: 0x0, symName: __ZNSt3__18distanceB7v160006IPcEENS_15iterator_traitsIT_E15difference_typeES3_S3_, symObjAddr: 0xBEAC4, symBinAddr: 0x1000C2564, symSize: 0x2C }
  - { offsetInCU: 0xC4973, offset: 0xC4973, size: 0x8, addend: 0x0, symName: __ZNSt3__119__allocate_at_leastB7v160006INS_9allocatorIcEEEENS_19__allocation_resultINS_16allocator_traitsIT_E7pointerEEERS5_m, symObjAddr: 0xBEAF0, symBinAddr: 0x1000C2590, symSize: 0x40 }
  - { offsetInCU: 0xC49B9, offset: 0xC49B9, size: 0x8, addend: 0x0, symName: __ZNSt3__110__distanceB7v160006IPcEENS_15iterator_traitsIT_E15difference_typeES3_S3_NS_26random_access_iterator_tagE, symObjAddr: 0xBEB30, symBinAddr: 0x1000C25D0, symSize: 0x20 }
  - { offsetInCU: 0xC4A31, offset: 0xC4A31, size: 0x8, addend: 0x0, symName: __ZNSt3__112construct_atB7v160006IcJcEPcEEPT_S3_DpOT0_, symObjAddr: 0xBF09C, symBinAddr: 0x1000C2B3C, symSize: 0x2C }
  - { offsetInCU: 0xC4AA8, offset: 0xC4AA8, size: 0x8, addend: 0x0, symName: __ZNSt3__142__uninitialized_allocator_move_if_noexceptB7v160006INS_9allocatorIcEENS_16reverse_iteratorIPcEES5_cvEET1_RT_T0_S9_S6_, symObjAddr: 0xBF618, symBinAddr: 0x1000C30B8, symSize: 0x78 }
  - { offsetInCU: 0xC4B26, offset: 0xC4B26, size: 0x8, addend: 0x0, symName: __ZNSt3__14swapB7v160006IPcEENS_9enable_ifIXaasr21is_move_constructibleIT_EE5valuesr18is_move_assignableIS3_EE5valueEvE4typeERS3_S6_, symObjAddr: 0xBF6DC, symBinAddr: 0x1000C317C, symSize: 0x3C }
  - { offsetInCU: 0xC4B7B, offset: 0xC4B7B, size: 0x8, addend: 0x0, symName: __ZNSt3__125__debug_db_invalidate_allB7v160006INS_6vectorIcNS_9allocatorIcEEEEEEvPT_, symObjAddr: 0xBF7C4, symBinAddr: 0x1000C3264, symSize: 0x10 }
  - { offsetInCU: 0xC4BAE, offset: 0xC4BAE, size: 0x8, addend: 0x0, symName: __ZNSt3__14moveB7v160006INS_16reverse_iteratorIPcEES3_EET0_T_S5_S4_, symObjAddr: 0xBF7D4, symBinAddr: 0x1000C3274, symSize: 0x78 }
  - { offsetInCU: 0xC4C0C, offset: 0xC4C0C, size: 0x8, addend: 0x0, symName: __ZNSt3__16__moveB7v160006INS_17_ClassicAlgPolicyENS_16reverse_iteratorIPcEES4_S4_EENS_4pairIT0_T2_EES6_T1_S7_, symObjAddr: 0xBF84C, symBinAddr: 0x1000C32EC, symSize: 0x64 }
  - { offsetInCU: 0xC4C7C, offset: 0xC4C7C, size: 0x8, addend: 0x0, symName: __ZNSt3__123__dispatch_copy_or_moveB7v160006INS_17_ClassicAlgPolicyENS_11__move_loopIS1_EENS_14__move_trivialENS_16reverse_iteratorIPcEES7_S7_EENS_4pairIT2_T4_EES9_T3_SA_, symObjAddr: 0xBF8B0, symBinAddr: 0x1000C3350, symSize: 0x64 }
  - { offsetInCU: 0xC4CFE, offset: 0xC4CFE, size: 0x8, addend: 0x0, symName: __ZNSt3__121__unwrap_and_dispatchB7v160006INS_10__overloadINS_11__move_loopINS_17_ClassicAlgPolicyEEENS_14__move_trivialEEENS_16reverse_iteratorIPcEES9_S9_Li0EEENS_4pairIT0_T2_EESB_T1_SC_, symObjAddr: 0xBF914, symBinAddr: 0x1000C33B4, symSize: 0x12C }
  - { offsetInCU: 0xC4D95, offset: 0xC4D95, size: 0x8, addend: 0x0, symName: __ZNSt3__114__unwrap_rangeB7v160006INS_16reverse_iteratorIPcEES3_EEDaT_T0_, symObjAddr: 0xBFA40, symBinAddr: 0x1000C34E0, symSize: 0x4C }
  - { offsetInCU: 0xC4EBF, offset: 0xC4EBF, size: 0x8, addend: 0x0, symName: __ZNSt3__113__unwrap_iterB7v160006INS_16reverse_iteratorIPcEENS_18__unwrap_iter_implIS3_Lb0EEELi0EEEDTclsrT0_8__unwrapclsr3stdE7declvalIT_EEEES7_, symObjAddr: 0xBFB2C, symBinAddr: 0x1000C35CC, symSize: 0x44 }
  - { offsetInCU: 0xC4F05, offset: 0xC4F05, size: 0x8, addend: 0x0, symName: __ZNSt3__19make_pairB7v160006INS_16reverse_iteratorIPcEES3_EENS_4pairINS_18__unwrap_ref_decayIT_E4typeENS5_IT0_E4typeEEEOS6_OS9_, symObjAddr: 0xBFB70, symBinAddr: 0x1000C3610, symSize: 0x38 }
  - { offsetInCU: 0xC4F55, offset: 0xC4F55, size: 0x8, addend: 0x0, symName: __ZNSt3__114__rewrap_rangeB7v160006INS_16reverse_iteratorIPcEES3_S3_EET0_S4_T1_, symObjAddr: 0xBFBA8, symBinAddr: 0x1000C3648, symSize: 0x5C }
  - { offsetInCU: 0xC4FAD, offset: 0xC4FAD, size: 0x8, addend: 0x0, symName: __ZNSt3__113__rewrap_iterB7v160006INS_16reverse_iteratorIPcEES3_NS_18__unwrap_iter_implIS3_Lb0EEEEET_S6_T0_, symObjAddr: 0xBFC04, symBinAddr: 0x1000C36A4, symSize: 0x74 }
  - { offsetInCU: 0xC5058, offset: 0xC5058, size: 0x8, addend: 0x0, symName: __ZNSt3__1neB7v160006IPcS1_EEbRKNS_16reverse_iteratorIT_EERKNS2_IT0_EE, symObjAddr: 0xBFD6C, symBinAddr: 0x1000C380C, symSize: 0x48 }
  - { offsetInCU: 0xC511A, offset: 0xC511A, size: 0x8, addend: 0x0, symName: __ZNSt3__112construct_atB7v160006IcJRKcEPcEEPT_S5_DpOT0_, symObjAddr: 0xC0278, symBinAddr: 0x1000C3D18, symSize: 0x2C }
  - { offsetInCU: 0xC5192, offset: 0xC5192, size: 0x8, addend: 0x0, symName: __ZNSt3__119__debug_db_insert_iB7v160006INS_11__wrap_iterIPKcEEEEvPT_, symObjAddr: 0xC033C, symBinAddr: 0x1000C3DDC, symSize: 0x10 }
  - { offsetInCU: 0xC51C4, offset: 0xC51C4, size: 0x8, addend: 0x0, symName: __ZNSt3__17__is_07B7v160006Eh, symObjAddr: 0xC0464, symBinAddr: 0x1000C3F04, symSize: 0x24 }
  - { offsetInCU: 0xC51F2, offset: 0xC51F2, size: 0x8, addend: 0x0, symName: __ZNSt3__17__is_89B7v160006Eh, symObjAddr: 0xC0488, symBinAddr: 0x1000C3F28, symSize: 0x24 }
  - { offsetInCU: 0xC5220, offset: 0xC5220, size: 0x8, addend: 0x0, symName: __ZNSt3__110__to_lowerB7v160006Eh, symObjAddr: 0xC04AC, symBinAddr: 0x1000C3F4C, symSize: 0x1C }
  - { offsetInCU: 0xC524E, offset: 0xC524E, size: 0x8, addend: 0x0, symName: __ZNSt3__119__throw_regex_errorB7v160006ILNS_15regex_constants10error_typeE5EEEvv, symObjAddr: 0xC04C8, symBinAddr: 0x1000C3F68, symSize: 0x60 }
  - { offsetInCU: 0xC5275, offset: 0xC5275, size: 0x8, addend: 0x0, symName: __ZNSt3__16searchB7v160006INS_11__wrap_iterIPKcEEPcEET_S6_S6_T0_S7_, symObjAddr: 0xC2110, symBinAddr: 0x1000C5BB0, symSize: 0x54 }
  - { offsetInCU: 0xC52E1, offset: 0xC52E1, size: 0x8, addend: 0x0, symName: __ZNSt3__119__throw_regex_errorB7v160006ILNS_15regex_constants10error_typeE1EEEvv, symObjAddr: 0xC21B4, symBinAddr: 0x1000C5C54, symSize: 0x60 }
  - { offsetInCU: 0xC5308, offset: 0xC5308, size: 0x8, addend: 0x0, symName: __ZNSt3__16searchB7v160006INS_11__wrap_iterIPKcEEPcNS_10__equal_toEEET_S7_S7_T0_S8_T1_, symObjAddr: 0xC2294, symBinAddr: 0x1000C5D34, symSize: 0x7C }
  - { offsetInCU: 0xC539C, offset: 0xC539C, size: 0x8, addend: 0x0, symName: __ZNSt3__113__search_implB7v160006INS_11__wrap_iterIPKcEES4_PcS5_NS_10__equal_toENS_10__identityES7_EENS_4pairIT_S9_EES9_T0_T1_T2_RT3_RT4_RT5_PNS_9enable_ifIXaasr33__is_cpp17_random_access_iteratorIS9_EE5valuesr33__is_cpp17_random_access_iteratorISC_EE5valueEvE4typeE, symObjAddr: 0xC2310, symBinAddr: 0x1000C5DB0, symSize: 0x108 }
  - { offsetInCU: 0xC548C, offset: 0xC548C, size: 0x8, addend: 0x0, symName: __ZNSt3__19make_pairB7v160006IRNS_11__wrap_iterIPKcEES5_EENS_4pairINS_18__unwrap_ref_decayIT_E4typeENS7_IT0_E4typeEEEOS8_OSB_, symObjAddr: 0xC2418, symBinAddr: 0x1000C5EB8, symSize: 0x38 }
  - { offsetInCU: 0xC54DC, offset: 0xC54DC, size: 0x8, addend: 0x0, symName: __ZNSt3__1miB7v160006IPKcS2_EEDTmicldtfp_4baseEcldtfp0_4baseEERKNS_11__wrap_iterIT_EERKNS4_IT0_EE, symObjAddr: 0xC2450, symBinAddr: 0x1000C5EF0, symSize: 0x40 }
  - { offsetInCU: 0xC552B, offset: 0xC552B, size: 0x8, addend: 0x0, symName: __ZNSt3__127__search_random_access_implB7v160006INS_17_ClassicAlgPolicyENS_11__wrap_iterIPKcEES5_PcS6_NS_10__equal_toENS_10__identityES8_llEENS_4pairIT0_SA_EESA_T1_T2_T3_RT4_RT5_RT6_T7_T8_, symObjAddr: 0xC2490, symBinAddr: 0x1000C5F30, symSize: 0x1F0 }
  - { offsetInCU: 0xC566B, offset: 0xC566B, size: 0x8, addend: 0x0, symName: __ZNSt3__18__invokeB7v160006IRNS_10__equal_toEJRKcRcEEEDTclclsr3stdE7declvalIT_EEspclsr3stdE7declvalIT0_EEEEOS6_DpOS7_, symObjAddr: 0xC2788, symBinAddr: 0x1000C6228, symSize: 0x38 }
  - { offsetInCU: 0xC56D3, offset: 0xC56D3, size: 0x8, addend: 0x0, symName: __ZNSt3__18__invokeB7v160006IRNS_10__identityEJRcEEEDTclclsr3stdE7declvalIT_EEspclsr3stdE7declvalIT0_EEEEOS4_DpOS5_, symObjAddr: 0xC27C0, symBinAddr: 0x1000C6260, symSize: 0x2C }
  - { offsetInCU: 0xC5726, offset: 0xC5726, size: 0x8, addend: 0x0, symName: __ZNSt3__19make_pairB7v160006IRNS_11__wrap_iterIPKcEES4_EENS_4pairINS_18__unwrap_ref_decayIT_E4typeENS7_IT0_E4typeEEEOS8_OSB_, symObjAddr: 0xC27EC, symBinAddr: 0x1000C628C, symSize: 0x38 }
  - { offsetInCU: 0xC5776, offset: 0xC5776, size: 0x8, addend: 0x0, symName: __ZNSt3__18distanceB7v160006INS_11__wrap_iterIPKcEEEENS_15iterator_traitsIT_E15difference_typeES6_S6_, symObjAddr: 0xC2CEC, symBinAddr: 0x1000C678C, symSize: 0x3C }
  - { offsetInCU: 0xC57BC, offset: 0xC57BC, size: 0x8, addend: 0x0, symName: __ZNSt3__110__distanceB7v160006INS_11__wrap_iterIPKcEEEENS_15iterator_traitsIT_E15difference_typeES6_S6_NS_26random_access_iterator_tagE, symObjAddr: 0xC2D28, symBinAddr: 0x1000C67C8, symSize: 0x30 }
  - { offsetInCU: 0xC580D, offset: 0xC580D, size: 0x8, addend: 0x0, symName: __ZNSt3__18distanceB7v160006INS_11__wrap_iterIPcEEEENS_15iterator_traitsIT_E15difference_typeES5_S5_, symObjAddr: 0xC3114, symBinAddr: 0x1000C6BB4, symSize: 0x3C }
  - { offsetInCU: 0xC5853, offset: 0xC5853, size: 0x8, addend: 0x0, symName: __ZNSt3__110__distanceB7v160006INS_11__wrap_iterIPcEEEENS_15iterator_traitsIT_E15difference_typeES5_S5_NS_26random_access_iterator_tagE, symObjAddr: 0xC3150, symBinAddr: 0x1000C6BF0, symSize: 0x30 }
  - { offsetInCU: 0xC58A4, offset: 0xC58A4, size: 0x8, addend: 0x0, symName: __ZNSt3__1miB7v160006IPcS1_EEDTmicldtfp_4baseEcldtfp0_4baseEERKNS_11__wrap_iterIT_EERKNS3_IT0_EE, symObjAddr: 0xC3180, symBinAddr: 0x1000C6C20, symSize: 0x40 }
  - { offsetInCU: 0xC58F2, offset: 0xC58F2, size: 0x8, addend: 0x0, symName: __ZNSt3__119__throw_regex_errorB7v160006ILNS_15regex_constants10error_typeE2EEEvv, symObjAddr: 0xC321C, symBinAddr: 0x1000C6CBC, symSize: 0x60 }
  - { offsetInCU: 0xC5918, offset: 0xC5918, size: 0x8, addend: 0x0, symName: __ZNSt3__19make_pairB7v160006INS_12basic_stringIcNS_11char_traitsIcEENS_9allocatorIcEEEES6_EENS_4pairINS_18__unwrap_ref_decayIT_E4typeENS8_IT0_E4typeEEEOS9_OSC_, symObjAddr: 0xC353C, symBinAddr: 0x1000C6FDC, symSize: 0x40 }
  - { offsetInCU: 0xC5967, offset: 0xC5967, size: 0x8, addend: 0x0, symName: __ZNSt3__119__throw_regex_errorB7v160006ILNS_15regex_constants10error_typeE9EEEvv, symObjAddr: 0xC367C, symBinAddr: 0x1000C711C, symSize: 0x60 }
  - { offsetInCU: 0xC59B5, offset: 0xC59B5, size: 0x8, addend: 0x0, symName: __ZNSt3__112construct_atB7v160006INS_4pairINS_12basic_stringIcNS_11char_traitsIcEENS_9allocatorIcEEEES7_EEJS8_EPS8_EEPT_SB_DpOT0_, symObjAddr: 0xC3988, symBinAddr: 0x1000C7428, symSize: 0x3C }
  - { offsetInCU: 0xC5A2D, offset: 0xC5A2D, size: 0x8, addend: 0x0, symName: __ZNSt3__119__allocate_at_leastB7v160006INS_9allocatorINS_4pairINS_12basic_stringIcNS_11char_traitsIcEENS1_IcEEEES7_EEEEEENS_19__allocation_resultINS_16allocator_traitsIT_E7pointerEEERSC_m, symObjAddr: 0xC3EBC, symBinAddr: 0x1000C795C, symSize: 0x40 }
  - { offsetInCU: 0xC5A72, offset: 0xC5A72, size: 0x8, addend: 0x0, symName: __ZNSt3__142__uninitialized_allocator_move_if_noexceptB7v160006INS_9allocatorINS_4pairINS_12basic_stringIcNS_11char_traitsIcEENS1_IcEEEES7_EEEENS_16reverse_iteratorIPS8_EESC_SC_EET2_RT_T0_T1_SD_, symObjAddr: 0xC4074, symBinAddr: 0x1000C7B14, symSize: 0x12C }
  - { offsetInCU: 0xC5B13, offset: 0xC5B13, size: 0x8, addend: 0x0, symName: __ZNSt3__14swapB7v160006IPNS_4pairINS_12basic_stringIcNS_11char_traitsIcEENS_9allocatorIcEEEES7_EEEENS_9enable_ifIXaasr21is_move_constructibleIT_EE5valuesr18is_move_assignableISB_EE5valueEvE4typeERSB_SE_, symObjAddr: 0xC41EC, symBinAddr: 0x1000C7C8C, symSize: 0x3C }
  - { offsetInCU: 0xC5B68, offset: 0xC5B68, size: 0x8, addend: 0x0, symName: __ZNSt3__125__debug_db_invalidate_allB7v160006INS_6vectorINS_4pairINS_12basic_stringIcNS_11char_traitsIcEENS_9allocatorIcEEEES8_EENS6_IS9_EEEEEEvPT_, symObjAddr: 0xC42F0, symBinAddr: 0x1000C7D90, symSize: 0x10 }
  - { offsetInCU: 0xC5B9B, offset: 0xC5B9B, size: 0x8, addend: 0x0, symName: __ZNSt3__122__make_exception_guardB7v160006INS_29_AllocatorDestroyRangeReverseINS_9allocatorINS_4pairINS_12basic_stringIcNS_11char_traitsIcEENS2_IcEEEES8_EEEENS_16reverse_iteratorIPS9_EEEEEENS_28__exception_guard_exceptionsIT_EESG_, symObjAddr: 0xC4300, symBinAddr: 0x1000C7DA0, symSize: 0x4C }
  - { offsetInCU: 0xC5BD3, offset: 0xC5BD3, size: 0x8, addend: 0x0, symName: __ZNSt3__1neB7v160006IPNS_4pairINS_12basic_stringIcNS_11char_traitsIcEENS_9allocatorIcEEEES7_EES9_EEbRKNS_16reverse_iteratorIT_EERKNSA_IT0_EE, symObjAddr: 0xC4390, symBinAddr: 0x1000C7E30, symSize: 0x48 }
  - { offsetInCU: 0xC5C22, offset: 0xC5C22, size: 0x8, addend: 0x0, symName: __ZNSt3__112__to_addressB7v160006INS_16reverse_iteratorIPNS_4pairINS_12basic_stringIcNS_11char_traitsIcEENS_9allocatorIcEEEES8_EEEEvEENS_5decayIDTclsr19__to_address_helperIT_EE6__callclsr3stdE7declvalIRKSD_EEEEE4typeESF_, symObjAddr: 0xC43D8, symBinAddr: 0x1000C7E78, symSize: 0x24 }
  - { offsetInCU: 0xC5C85, offset: 0xC5C85, size: 0x8, addend: 0x0, symName: __ZNSt3__14prevB7v160006IPNS_4pairINS_12basic_stringIcNS_11char_traitsIcEENS_9allocatorIcEEEES7_EEEENS_9enable_ifIXsr25__is_cpp17_input_iteratorIT_EE5valueESB_E4typeESB_NS_15iterator_traitsISB_E15difference_typeE, symObjAddr: 0xC458C, symBinAddr: 0x1000C802C, symSize: 0x50 }
  - { offsetInCU: 0xC5CCB, offset: 0xC5CCB, size: 0x8, addend: 0x0, symName: __ZNSt3__19__advanceB7v160006IPNS_4pairINS_12basic_stringIcNS_11char_traitsIcEENS_9allocatorIcEEEES7_EEEEvRT_NS_15iterator_traitsISA_E15difference_typeENS_26random_access_iterator_tagE, symObjAddr: 0xC462C, symBinAddr: 0x1000C80CC, symSize: 0x30 }
  - { offsetInCU: 0xC5D17, offset: 0xC5D17, size: 0x8, addend: 0x0, symName: __ZNSt3__119__allocator_destroyB7v160006INS_9allocatorINS_4pairINS_12basic_stringIcNS_11char_traitsIcEENS1_IcEEEES7_EEEENS_16reverse_iteratorINSA_IPS8_EEEESD_EEvRT_T0_T1_, symObjAddr: 0xC4760, symBinAddr: 0x1000C8200, symSize: 0x70 }
  - { offsetInCU: 0xC5D7D, offset: 0xC5D7D, size: 0x8, addend: 0x0, symName: __ZNSt3__1neB7v160006INS_16reverse_iteratorIPNS_4pairINS_12basic_stringIcNS_11char_traitsIcEENS_9allocatorIcEEEES8_EEEESB_EEbRKNS1_IT_EERKNS1_IT0_EE, symObjAddr: 0xC480C, symBinAddr: 0x1000C82AC, symSize: 0x60 }
  - { offsetInCU: 0xC5DCC, offset: 0xC5DCC, size: 0x8, addend: 0x0, symName: __ZNSt3__112__to_addressB7v160006INS_16reverse_iteratorINS1_IPNS_4pairINS_12basic_stringIcNS_11char_traitsIcEENS_9allocatorIcEEEES8_EEEEEEvEENS_5decayIDTclsr19__to_address_helperIT_EE6__callclsr3stdE7declvalIRKSE_EEEEE4typeESG_, symObjAddr: 0xC486C, symBinAddr: 0x1000C830C, symSize: 0x24 }
  - { offsetInCU: 0xC5E2F, offset: 0xC5E2F, size: 0x8, addend: 0x0, symName: __ZNSt3__14prevB7v160006INS_16reverse_iteratorIPNS_4pairINS_12basic_stringIcNS_11char_traitsIcEENS_9allocatorIcEEEES8_EEEEEENS_9enable_ifIXsr25__is_cpp17_input_iteratorIT_EE5valueESD_E4typeESD_NS_15iterator_traitsISD_E15difference_typeE, symObjAddr: 0xC4968, symBinAddr: 0x1000C8408, symSize: 0x60 }
  - { offsetInCU: 0xC5E75, offset: 0xC5E75, size: 0x8, addend: 0x0, symName: __ZNSt3__19__advanceB7v160006INS_16reverse_iteratorIPNS_4pairINS_12basic_stringIcNS_11char_traitsIcEENS_9allocatorIcEEEES8_EEEEEEvRT_NS_15iterator_traitsISC_E15difference_typeENS_26random_access_iterator_tagE, symObjAddr: 0xC4A18, symBinAddr: 0x1000C84B8, symSize: 0x2C }
  - { offsetInCU: 0xC5EC1, offset: 0xC5EC1, size: 0x8, addend: 0x0, symName: __ZNSt3__19make_pairB7v160006IccEENS_4pairINS_18__unwrap_ref_decayIT_E4typeENS2_IT0_E4typeEEEOS3_OS6_, symObjAddr: 0xC4DC4, symBinAddr: 0x1000C8864, symSize: 0x34 }
  - { offsetInCU: 0xC5F10, offset: 0xC5F10, size: 0x8, addend: 0x0, symName: __ZNSt3__19make_pairB7v160006IRcS1_EENS_4pairINS_18__unwrap_ref_decayIT_E4typeENS3_IT0_E4typeEEEOS4_OS7_, symObjAddr: 0xC4DF8, symBinAddr: 0x1000C8898, symSize: 0x34 }
  - { offsetInCU: 0xC5F87, offset: 0xC5F87, size: 0x8, addend: 0x0, symName: __ZNSt3__112construct_atB7v160006INS_4pairIccEEJS2_EPS2_EEPT_S5_DpOT0_, symObjAddr: 0xC50D0, symBinAddr: 0x1000C8B70, symSize: 0x2C }
  - { offsetInCU: 0xC5FFF, offset: 0xC5FFF, size: 0x8, addend: 0x0, symName: __ZNSt3__119__allocate_at_leastB7v160006INS_9allocatorINS_4pairIccEEEEEENS_19__allocation_resultINS_16allocator_traitsIT_E7pointerEEERS7_m, symObjAddr: 0xC556C, symBinAddr: 0x1000C900C, symSize: 0x40 }
  - { offsetInCU: 0xC6044, offset: 0xC6044, size: 0x8, addend: 0x0, symName: __ZNSt3__142__uninitialized_allocator_move_if_noexceptB7v160006INS_9allocatorINS_4pairIccEEEENS_16reverse_iteratorIPS3_EES7_S7_EET2_RT_T0_T1_S8_, symObjAddr: 0xC5720, symBinAddr: 0x1000C91C0, symSize: 0x12C }
  - { offsetInCU: 0xC60E5, offset: 0xC60E5, size: 0x8, addend: 0x0, symName: __ZNSt3__14swapB7v160006IPNS_4pairIccEEEENS_9enable_ifIXaasr21is_move_constructibleIT_EE5valuesr18is_move_assignableIS5_EE5valueEvE4typeERS5_S8_, symObjAddr: 0xC5898, symBinAddr: 0x1000C9338, symSize: 0x3C }
  - { offsetInCU: 0xC613A, offset: 0xC613A, size: 0x8, addend: 0x0, symName: __ZNSt3__125__debug_db_invalidate_allB7v160006INS_6vectorINS_4pairIccEENS_9allocatorIS3_EEEEEEvPT_, symObjAddr: 0xC5980, symBinAddr: 0x1000C9420, symSize: 0x10 }
  - { offsetInCU: 0xC616D, offset: 0xC616D, size: 0x8, addend: 0x0, symName: __ZNSt3__122__make_exception_guardB7v160006INS_29_AllocatorDestroyRangeReverseINS_9allocatorINS_4pairIccEEEENS_16reverse_iteratorIPS4_EEEEEENS_28__exception_guard_exceptionsIT_EESB_, symObjAddr: 0xC5990, symBinAddr: 0x1000C9430, symSize: 0x4C }
  - { offsetInCU: 0xC61A5, offset: 0xC61A5, size: 0x8, addend: 0x0, symName: __ZNSt3__1neB7v160006IPNS_4pairIccEES3_EEbRKNS_16reverse_iteratorIT_EERKNS4_IT0_EE, symObjAddr: 0xC5A20, symBinAddr: 0x1000C94C0, symSize: 0x48 }
  - { offsetInCU: 0xC61F4, offset: 0xC61F4, size: 0x8, addend: 0x0, symName: __ZNSt3__112__to_addressB7v160006INS_16reverse_iteratorIPNS_4pairIccEEEEvEENS_5decayIDTclsr19__to_address_helperIT_EE6__callclsr3stdE7declvalIRKS7_EEEEE4typeES9_, symObjAddr: 0xC5A68, symBinAddr: 0x1000C9508, symSize: 0x24 }
  - { offsetInCU: 0xC6257, offset: 0xC6257, size: 0x8, addend: 0x0, symName: __ZNSt3__14prevB7v160006IPNS_4pairIccEEEENS_9enable_ifIXsr25__is_cpp17_input_iteratorIT_EE5valueES5_E4typeES5_NS_15iterator_traitsIS5_E15difference_typeE, symObjAddr: 0xC5C1C, symBinAddr: 0x1000C96BC, symSize: 0x50 }
  - { offsetInCU: 0xC629D, offset: 0xC629D, size: 0x8, addend: 0x0, symName: __ZNSt3__19__advanceB7v160006IPNS_4pairIccEEEEvRT_NS_15iterator_traitsIS4_E15difference_typeENS_26random_access_iterator_tagE, symObjAddr: 0xC5CBC, symBinAddr: 0x1000C975C, symSize: 0x28 }
  - { offsetInCU: 0xC62E9, offset: 0xC62E9, size: 0x8, addend: 0x0, symName: __ZNSt3__119__allocator_destroyB7v160006INS_9allocatorINS_4pairIccEEEENS_16reverse_iteratorINS5_IPS3_EEEES8_EEvRT_T0_T1_, symObjAddr: 0xC5DE8, symBinAddr: 0x1000C9888, symSize: 0x70 }
  - { offsetInCU: 0xC634F, offset: 0xC634F, size: 0x8, addend: 0x0, symName: __ZNSt3__1neB7v160006INS_16reverse_iteratorIPNS_4pairIccEEEES5_EEbRKNS1_IT_EERKNS1_IT0_EE, symObjAddr: 0xC5E94, symBinAddr: 0x1000C9934, symSize: 0x60 }
  - { offsetInCU: 0xC639E, offset: 0xC639E, size: 0x8, addend: 0x0, symName: __ZNSt3__112__to_addressB7v160006INS_16reverse_iteratorINS1_IPNS_4pairIccEEEEEEvEENS_5decayIDTclsr19__to_address_helperIT_EE6__callclsr3stdE7declvalIRKS8_EEEEE4typeESA_, symObjAddr: 0xC5EF4, symBinAddr: 0x1000C9994, symSize: 0x24 }
  - { offsetInCU: 0xC6401, offset: 0xC6401, size: 0x8, addend: 0x0, symName: __ZNSt3__14prevB7v160006INS_16reverse_iteratorIPNS_4pairIccEEEEEENS_9enable_ifIXsr25__is_cpp17_input_iteratorIT_EE5valueES7_E4typeES7_NS_15iterator_traitsIS7_E15difference_typeE, symObjAddr: 0xC5FF0, symBinAddr: 0x1000C9A90, symSize: 0x60 }
  - { offsetInCU: 0xC6447, offset: 0xC6447, size: 0x8, addend: 0x0, symName: __ZNSt3__19__advanceB7v160006INS_16reverse_iteratorIPNS_4pairIccEEEEEEvRT_NS_15iterator_traitsIS6_E15difference_typeENS_26random_access_iterator_tagE, symObjAddr: 0xC60A0, symBinAddr: 0x1000C9B40, symSize: 0x2C }
  - { offsetInCU: 0xC659F, offset: 0xC659F, size: 0x8, addend: 0x0, symName: __ZNSt3__119__throw_regex_errorB7v160006ILNS_15regex_constants10error_typeE8EEEvv, symObjAddr: 0xC6C18, symBinAddr: 0x1000CA6B8, symSize: 0x60 }
  - { offsetInCU: 0xC65C5, offset: 0xC65C5, size: 0x8, addend: 0x0, symName: __ZNSt3__119__throw_regex_errorB7v160006ILNS_15regex_constants10error_typeE7EEEvv, symObjAddr: 0xC6C78, symBinAddr: 0x1000CA718, symSize: 0x60 }
  - { offsetInCU: 0xC6F36, offset: 0xC6F36, size: 0x8, addend: 0x0, symName: __ZNSt3__119__throw_regex_errorB7v160006ILNS_15regex_constants10error_typeE15EEEvv, symObjAddr: 0xC7CD4, symBinAddr: 0x1000CB774, symSize: 0x60 }
  - { offsetInCU: 0xC6FD0, offset: 0xC6FD0, size: 0x8, addend: 0x0, symName: __ZNSt3__111regex_matchB7v160006INS_11__wrap_iterIPKcEEcNS_12regex_traitsIcEEEEbT_S7_RKNS_11basic_regexIT0_T1_EENS_15regex_constants15match_flag_typeE, symObjAddr: 0xC97A8, symBinAddr: 0x1000CD248, symSize: 0xA0 }
  - { offsetInCU: 0xC7369, offset: 0xC7369, size: 0x8, addend: 0x0, symName: __ZNSt3__111regex_matchB7v160006INS_11__wrap_iterIPKcEENS_9allocatorINS_9sub_matchIS4_EEEEcNS_12regex_traitsIcEEEEbT_SB_RNS_13match_resultsISB_T0_EERKNS_11basic_regexIT1_T2_EENS_15regex_constants15match_flag_typeE, symObjAddr: 0xC9888, symBinAddr: 0x1000CD328, symSize: 0xD0 }
  - { offsetInCU: 0xC7413, offset: 0xC7413, size: 0x8, addend: 0x0, symName: __ZNSt3__119__debug_db_insert_cB7v160006INS_6vectorINS_9sub_matchINS_11__wrap_iterIPKcEEEENS_9allocatorIS7_EEEEEEvPT_, symObjAddr: 0xC9BE0, symBinAddr: 0x1000CD680, symSize: 0x10 }
  - { offsetInCU: 0xC7446, offset: 0xC7446, size: 0x8, addend: 0x0, symName: __ZNSt3__118__debug_db_erase_cB7v160006INS_6vectorINS_9sub_matchINS_11__wrap_iterIPKcEEEENS_9allocatorIS7_EEEEEEvPT_, symObjAddr: 0xC9ED8, symBinAddr: 0x1000CD978, symSize: 0x10 }
  - { offsetInCU: 0xC7479, offset: 0xC7479, size: 0x8, addend: 0x0, symName: __ZNSt3__112__to_addressB7v160006INS_9sub_matchINS_11__wrap_iterIPKcEEEEEEPT_S8_, symObjAddr: 0xCA01C, symBinAddr: 0x1000CDABC, symSize: 0x14 }
  - { offsetInCU: 0xC74B0, offset: 0xC74B0, size: 0x8, addend: 0x0, symName: __ZNSt3__110destroy_atB7v160006INS_9sub_matchINS_11__wrap_iterIPKcEEEELi0EEEvPT_, symObjAddr: 0xCA0E4, symBinAddr: 0x1000CDB84, symSize: 0x24 }
  - { offsetInCU: 0xC74EA, offset: 0xC74EA, size: 0x8, addend: 0x0, symName: __ZNSt3__112__destroy_atB7v160006INS_9sub_matchINS_11__wrap_iterIPKcEEEELi0EEEvPT_, symObjAddr: 0xCA108, symBinAddr: 0x1000CDBA8, symSize: 0x10 }
  - { offsetInCU: 0xC7523, offset: 0xC7523, size: 0x8, addend: 0x0, symName: __ZNSt3__112regex_searchB7v160006IPKcNS_9allocatorINS_9sub_matchINS_11__wrap_iterIS2_EEEEEEcNS_12regex_traitsIcEEEEbNS5_IT_EESC_RNS_13match_resultsISC_T0_EERKNS_11basic_regexIT1_T2_EENS_15regex_constants15match_flag_typeE, symObjAddr: 0xCA1F4, symBinAddr: 0x1000CDC94, symSize: 0x124 }
  - { offsetInCU: 0xC75D2, offset: 0xC75D2, size: 0x8, addend: 0x0, symName: __ZNSt3__18distanceB7v160006IPKcEENS_15iterator_traitsIT_E15difference_typeES4_S4_, symObjAddr: 0xCB8BC, symBinAddr: 0x1000CF35C, symSize: 0x2C }
  - { offsetInCU: 0xC7618, offset: 0xC7618, size: 0x8, addend: 0x0, symName: __ZNSt3__110__distanceB7v160006IPKcEENS_15iterator_traitsIT_E15difference_typeES4_S4_NS_26random_access_iterator_tagE, symObjAddr: 0xCBF6C, symBinAddr: 0x1000CFA0C, symSize: 0x20 }
  - { offsetInCU: 0xC7A2F, offset: 0xC7A2F, size: 0x8, addend: 0x0, symName: __ZNSt3__14swapB7v160006IPPNS_7__stateIcEEEENS_9enable_ifIXaasr21is_move_constructibleIT_EE5valuesr18is_move_assignableIS6_EE5valueEvE4typeERS6_S9_, symObjAddr: 0xCD3B4, symBinAddr: 0x1000D0E54, symSize: 0x3C }
  - { offsetInCU: 0xC7A84, offset: 0xC7A84, size: 0x8, addend: 0x0, symName: __ZNSt3__14moveB7v160006IPPNS_7__stateIcEES4_EET0_T_S6_S5_, symObjAddr: 0xCD4E4, symBinAddr: 0x1000D0F84, symSize: 0x40 }
  - { offsetInCU: 0xC7AE2, offset: 0xC7AE2, size: 0x8, addend: 0x0, symName: __ZNSt3__112__to_addressB7v160006IPNS_7__stateIcEEEEPT_S5_, symObjAddr: 0xCD684, symBinAddr: 0x1000D1124, symSize: 0x14 }
  - { offsetInCU: 0xC7B19, offset: 0xC7B19, size: 0x8, addend: 0x0, symName: __ZNSt3__16__moveB7v160006INS_17_ClassicAlgPolicyEPPNS_7__stateIcEES5_S5_EENS_4pairIT0_T2_EES7_T1_S8_, symObjAddr: 0xCD698, symBinAddr: 0x1000D1138, symSize: 0x44 }
  - { offsetInCU: 0xC7B89, offset: 0xC7B89, size: 0x8, addend: 0x0, symName: __ZNSt3__123__dispatch_copy_or_moveB7v160006INS_17_ClassicAlgPolicyENS_11__move_loopIS1_EENS_14__move_trivialEPPNS_7__stateIcEES8_S8_EENS_4pairIT2_T4_EESA_T3_SB_, symObjAddr: 0xCD6DC, symBinAddr: 0x1000D117C, symSize: 0x44 }
  - { offsetInCU: 0xC7C0B, offset: 0xC7C0B, size: 0x8, addend: 0x0, symName: __ZNSt3__121__unwrap_and_dispatchB7v160006INS_10__overloadINS_11__move_loopINS_17_ClassicAlgPolicyEEENS_14__move_trivialEEEPPNS_7__stateIcEESA_SA_Li0EEENS_4pairIT0_T2_EESC_T1_SD_, symObjAddr: 0xCD720, symBinAddr: 0x1000D11C0, symSize: 0xB4 }
  - { offsetInCU: 0xC7CA0, offset: 0xC7CA0, size: 0x8, addend: 0x0, symName: __ZNSt3__114__unwrap_rangeB7v160006IPPNS_7__stateIcEES4_EEDaT_T0_, symObjAddr: 0xCD7D4, symBinAddr: 0x1000D1274, symSize: 0x3C }
  - { offsetInCU: 0xC7EB3, offset: 0xC7EB3, size: 0x8, addend: 0x0, symName: __ZNSt3__113__unwrap_iterB7v160006IPPNS_7__stateIcEENS_18__unwrap_iter_implIS4_Lb1EEELi0EEEDTclsrT0_8__unwrapclsr3stdE7declvalIT_EEEES8_, symObjAddr: 0xCD858, symBinAddr: 0x1000D12F8, symSize: 0x24 }
  - { offsetInCU: 0xC7EF9, offset: 0xC7EF9, size: 0x8, addend: 0x0, symName: __ZNSt3__19make_pairB7v160006IPPNS_7__stateIcEES4_EENS_4pairINS_18__unwrap_ref_decayIT_E4typeENS6_IT0_E4typeEEEOS7_OSA_, symObjAddr: 0xCD87C, symBinAddr: 0x1000D131C, symSize: 0x38 }
  - { offsetInCU: 0xC7F49, offset: 0xC7F49, size: 0x8, addend: 0x0, symName: __ZNSt3__114__rewrap_rangeB7v160006IPPNS_7__stateIcEES4_S4_EET0_S5_T1_, symObjAddr: 0xCD8B4, symBinAddr: 0x1000D1354, symSize: 0x2C }
  - { offsetInCU: 0xC7FA1, offset: 0xC7FA1, size: 0x8, addend: 0x0, symName: __ZNSt3__113__rewrap_iterB7v160006IPPNS_7__stateIcEES4_NS_18__unwrap_iter_implIS4_Lb1EEEEET_S7_T0_, symObjAddr: 0xCD8E0, symBinAddr: 0x1000D1380, symSize: 0x3C }
  - { offsetInCU: 0xC804C, offset: 0xC804C, size: 0x8, addend: 0x0, symName: __ZNSt3__119__copy_trivial_implB7v160006IPNS_7__stateIcEES3_EENS_4pairIPT_PT0_EES6_S6_S8_, symObjAddr: 0xCD9E4, symBinAddr: 0x1000D1484, symSize: 0x84 }
  - { offsetInCU: 0xC80B8, offset: 0xC80B8, size: 0x8, addend: 0x0, symName: __ZNSt3__19make_pairB7v160006IRPPNS_7__stateIcEES4_EENS_4pairINS_18__unwrap_ref_decayIT_E4typeENS7_IT0_E4typeEEEOS8_OSB_, symObjAddr: 0xCDA68, symBinAddr: 0x1000D1508, symSize: 0x38 }
  - { offsetInCU: 0xC8160, offset: 0xC8160, size: 0x8, addend: 0x0, symName: __ZNSt3__18distanceB7v160006INS_13move_iteratorIPPNS_7__stateIcEEEEEENS_15iterator_traitsIT_E15difference_typeES8_S8_, symObjAddr: 0xCDBB0, symBinAddr: 0x1000D1650, symSize: 0x3C }
  - { offsetInCU: 0xC81A6, offset: 0xC81A6, size: 0x8, addend: 0x0, symName: __ZNSt3__110__distanceB7v160006INS_13move_iteratorIPPNS_7__stateIcEEEEEENS_15iterator_traitsIT_E15difference_typeES8_S8_NS_26random_access_iterator_tagE, symObjAddr: 0xCDCF8, symBinAddr: 0x1000D1798, symSize: 0x30 }
  - { offsetInCU: 0xC81F6, offset: 0xC81F6, size: 0x8, addend: 0x0, symName: __ZNSt3__1miB7v160006IPPNS_7__stateIcEES4_EEDTmicldtfp_4baseEcldtfp0_4baseEERKNS_13move_iteratorIT_EERKNS6_IT0_EE, symObjAddr: 0xCDD28, symBinAddr: 0x1000D17C8, symSize: 0x4C }
  - { offsetInCU: 0xC826D, offset: 0xC826D, size: 0x8, addend: 0x0, symName: __ZNSt3__112construct_atB7v160006IPNS_7__stateIcEEJS3_EPS3_EEPT_S6_DpOT0_, symObjAddr: 0xCDDCC, symBinAddr: 0x1000D186C, symSize: 0x2C }
  - { offsetInCU: 0xC82E5, offset: 0xC82E5, size: 0x8, addend: 0x0, symName: __ZNSt3__112construct_atB7v160006IPNS_7__stateIcEEJRKS3_EPS3_EEPT_S8_DpOT0_, symObjAddr: 0xCDE94, symBinAddr: 0x1000D1934, symSize: 0x2C }
  - { offsetInCU: 0xC835D, offset: 0xC835D, size: 0x8, addend: 0x0, symName: __ZNSt3__113move_backwardB7v160006IPPNS_7__stateIcEES4_EET0_T_S6_S5_, symObjAddr: 0xCDF20, symBinAddr: 0x1000D19C0, symSize: 0x40 }
  - { offsetInCU: 0xC83BB, offset: 0xC83BB, size: 0x8, addend: 0x0, symName: __ZNSt3__115__move_backwardB7v160006INS_17_ClassicAlgPolicyEPPNS_7__stateIcEES5_S5_EENS_4pairIT0_T2_EES7_T1_S8_, symObjAddr: 0xCDF60, symBinAddr: 0x1000D1A00, symSize: 0x44 }
  - { offsetInCU: 0xC842B, offset: 0xC842B, size: 0x8, addend: 0x0, symName: __ZNSt3__123__dispatch_copy_or_moveB7v160006INS_17_ClassicAlgPolicyENS_20__move_backward_loopIS1_EENS_23__move_backward_trivialEPPNS_7__stateIcEES8_S8_EENS_4pairIT2_T4_EESA_T3_SB_, symObjAddr: 0xCDFA4, symBinAddr: 0x1000D1A44, symSize: 0x44 }
  - { offsetInCU: 0xC84AD, offset: 0xC84AD, size: 0x8, addend: 0x0, symName: __ZNSt3__121__unwrap_and_dispatchB7v160006INS_10__overloadINS_20__move_backward_loopINS_17_ClassicAlgPolicyEEENS_23__move_backward_trivialEEEPPNS_7__stateIcEESA_SA_Li0EEENS_4pairIT0_T2_EESC_T1_SD_, symObjAddr: 0xCDFE8, symBinAddr: 0x1000D1A88, symSize: 0xB4 }
  - { offsetInCU: 0xC85C9, offset: 0xC85C9, size: 0x8, addend: 0x0, symName: __ZNSt3__128__copy_backward_trivial_implB7v160006IPNS_7__stateIcEES3_EENS_4pairIPT_PT0_EES6_S6_S8_, symObjAddr: 0xCE0E4, symBinAddr: 0x1000D1B84, symSize: 0x94 }
  - { offsetInCU: 0xC8635, offset: 0xC8635, size: 0x8, addend: 0x0, symName: __ZNSt3__19make_pairB7v160006IRPPNS_7__stateIcEES5_EENS_4pairINS_18__unwrap_ref_decayIT_E4typeENS7_IT0_E4typeEEEOS8_OSB_, symObjAddr: 0xCE178, symBinAddr: 0x1000D1C18, symSize: 0x38 }
  - { offsetInCU: 0xC8685, offset: 0xC8685, size: 0x8, addend: 0x0, symName: __ZNSt3__119__allocate_at_leastB7v160006INS_9allocatorIPNS_7__stateIcEEEEEENS_19__allocation_resultINS_16allocator_traitsIT_E7pointerEEERS8_m, symObjAddr: 0xCE368, symBinAddr: 0x1000D1E08, symSize: 0x40 }
  - { offsetInCU: 0xC86CB, offset: 0xC86CB, size: 0x8, addend: 0x0, symName: __ZNSt3__110destroy_atB7v160006IPNS_7__stateIcEELi0EEEvPT_, symObjAddr: 0xCE988, symBinAddr: 0x1000D2428, symSize: 0x24 }
  - { offsetInCU: 0xC8705, offset: 0xC8705, size: 0x8, addend: 0x0, symName: __ZNSt3__112__destroy_atB7v160006IPNS_7__stateIcEELi0EEEvPT_, symObjAddr: 0xCE9AC, symBinAddr: 0x1000D244C, symSize: 0x10 }
  - { offsetInCU: 0xC873E, offset: 0xC873E, size: 0x8, addend: 0x0, symName: __ZNSt3__1neB7v160006ERKNS_16__deque_iteratorINS_7__stateIcEEPS2_RS2_PS3_lLl42EEES8_, symObjAddr: 0xCED98, symBinAddr: 0x1000D2838, symSize: 0x34 }
  - { offsetInCU: 0xC877B, offset: 0xC877B, size: 0x8, addend: 0x0, symName: __ZNSt3__1eqB7v160006ERKNS_16__deque_iteratorINS_7__stateIcEEPS2_RS2_PS3_lLl42EEES8_, symObjAddr: 0xCEE3C, symBinAddr: 0x1000D28DC, symSize: 0x30 }
  - { offsetInCU: 0xC87B9, offset: 0xC87B9, size: 0x8, addend: 0x0, symName: __ZNSt3__18distanceB7v160006IPNS_9sub_matchIPKcEEEENS_15iterator_traitsIT_E15difference_typeES7_S7_, symObjAddr: 0xCFC0C, symBinAddr: 0x1000D36AC, symSize: 0x2C }
  - { offsetInCU: 0xC87FF, offset: 0xC87FF, size: 0x8, addend: 0x0, symName: __ZNSt3__14copyB7v160006IPNS_9sub_matchIPKcEES5_EET0_T_S7_S6_, symObjAddr: 0xCFC88, symBinAddr: 0x1000D3728, symSize: 0x40 }
  - { offsetInCU: 0xC885D, offset: 0xC885D, size: 0x8, addend: 0x0, symName: __ZNSt3__110__distanceB7v160006IPNS_9sub_matchIPKcEEEENS_15iterator_traitsIT_E15difference_typeES7_S7_NS_26random_access_iterator_tagE, symObjAddr: 0xCFCC8, symBinAddr: 0x1000D3768, symSize: 0x28 }
  - { offsetInCU: 0xC88AE, offset: 0xC88AE, size: 0x8, addend: 0x0, symName: __ZNSt3__16__copyB7v160006INS_17_ClassicAlgPolicyEPNS_9sub_matchIPKcEES6_S6_EENS_4pairIT0_T2_EES8_T1_S9_, symObjAddr: 0xCFCF0, symBinAddr: 0x1000D3790, symSize: 0x44 }
  - { offsetInCU: 0xC891E, offset: 0xC891E, size: 0x8, addend: 0x0, symName: __ZNSt3__123__dispatch_copy_or_moveB7v160006INS_17_ClassicAlgPolicyENS_11__copy_loopIS1_EENS_14__copy_trivialEPNS_9sub_matchIPKcEES9_S9_EENS_4pairIT2_T4_EESB_T3_SC_, symObjAddr: 0xCFD34, symBinAddr: 0x1000D37D4, symSize: 0x44 }
  - { offsetInCU: 0xC89A0, offset: 0xC89A0, size: 0x8, addend: 0x0, symName: __ZNSt3__121__unwrap_and_dispatchB7v160006INS_10__overloadINS_11__copy_loopINS_17_ClassicAlgPolicyEEENS_14__copy_trivialEEEPNS_9sub_matchIPKcEESB_SB_Li0EEENS_4pairIT0_T2_EESD_T1_SE_, symObjAddr: 0xCFD78, symBinAddr: 0x1000D3818, symSize: 0xB4 }
  - { offsetInCU: 0xC8A35, offset: 0xC8A35, size: 0x8, addend: 0x0, symName: __ZNSt3__114__unwrap_rangeB7v160006IPNS_9sub_matchIPKcEES5_EEDaT_T0_, symObjAddr: 0xCFE2C, symBinAddr: 0x1000D38CC, symSize: 0x3C }
  - { offsetInCU: 0xC8B5F, offset: 0xC8B5F, size: 0x8, addend: 0x0, symName: __ZNSt3__113__unwrap_iterB7v160006IPNS_9sub_matchIPKcEENS_18__unwrap_iter_implIS5_Lb1EEELi0EEEDTclsrT0_8__unwrapclsr3stdE7declvalIT_EEEES9_, symObjAddr: 0xCFEF0, symBinAddr: 0x1000D3990, symSize: 0x24 }
  - { offsetInCU: 0xC8BA5, offset: 0xC8BA5, size: 0x8, addend: 0x0, symName: __ZNSt3__19make_pairB7v160006IPNS_9sub_matchIPKcEES5_EENS_4pairINS_18__unwrap_ref_decayIT_E4typeENS7_IT0_E4typeEEEOS8_OSB_, symObjAddr: 0xCFF14, symBinAddr: 0x1000D39B4, symSize: 0x38 }
  - { offsetInCU: 0xC8BF5, offset: 0xC8BF5, size: 0x8, addend: 0x0, symName: __ZNSt3__114__rewrap_rangeB7v160006IPNS_9sub_matchIPKcEES5_S5_EET0_S6_T1_, symObjAddr: 0xCFF4C, symBinAddr: 0x1000D39EC, symSize: 0x2C }
  - { offsetInCU: 0xC8C4D, offset: 0xC8C4D, size: 0x8, addend: 0x0, symName: __ZNSt3__113__rewrap_iterB7v160006IPNS_9sub_matchIPKcEES5_NS_18__unwrap_iter_implIS5_Lb1EEEEET_S8_T0_, symObjAddr: 0xCFF78, symBinAddr: 0x1000D3A18, symSize: 0x3C }
  - { offsetInCU: 0xC8D50, offset: 0xC8D50, size: 0x8, addend: 0x0, symName: __ZNSt3__18distanceB7v160006IPNS_4pairImPKcEEEENS_15iterator_traitsIT_E15difference_typeES7_S7_, symObjAddr: 0xD02E0, symBinAddr: 0x1000D3D80, symSize: 0x2C }
  - { offsetInCU: 0xC8D96, offset: 0xC8D96, size: 0x8, addend: 0x0, symName: __ZNSt3__14copyB7v160006IPNS_4pairImPKcEES5_EET0_T_S7_S6_, symObjAddr: 0xD035C, symBinAddr: 0x1000D3DFC, symSize: 0x40 }
  - { offsetInCU: 0xC8DF4, offset: 0xC8DF4, size: 0x8, addend: 0x0, symName: __ZNSt3__110__distanceB7v160006IPNS_4pairImPKcEEEENS_15iterator_traitsIT_E15difference_typeES7_S7_NS_26random_access_iterator_tagE, symObjAddr: 0xD0428, symBinAddr: 0x1000D3EC8, symSize: 0x28 }
  - { offsetInCU: 0xC8E45, offset: 0xC8E45, size: 0x8, addend: 0x0, symName: __ZNSt3__16__copyB7v160006INS_17_ClassicAlgPolicyEPNS_4pairImPKcEES6_S6_EENS2_IT0_T2_EES7_T1_S8_, symObjAddr: 0xD0450, symBinAddr: 0x1000D3EF0, symSize: 0x44 }
  - { offsetInCU: 0xC8EB5, offset: 0xC8EB5, size: 0x8, addend: 0x0, symName: __ZNSt3__123__dispatch_copy_or_moveB7v160006INS_17_ClassicAlgPolicyENS_11__copy_loopIS1_EENS_14__copy_trivialEPNS_4pairImPKcEES9_S9_EENS5_IT2_T4_EESA_T3_SB_, symObjAddr: 0xD0494, symBinAddr: 0x1000D3F34, symSize: 0x44 }
  - { offsetInCU: 0xC8F37, offset: 0xC8F37, size: 0x8, addend: 0x0, symName: __ZNSt3__121__unwrap_and_dispatchB7v160006INS_10__overloadINS_11__copy_loopINS_17_ClassicAlgPolicyEEENS_14__copy_trivialEEEPNS_4pairImPKcEESB_SB_Li0EEENS7_IT0_T2_EESC_T1_SD_, symObjAddr: 0xD04D8, symBinAddr: 0x1000D3F78, symSize: 0xB4 }
  - { offsetInCU: 0xC8FCC, offset: 0xC8FCC, size: 0x8, addend: 0x0, symName: __ZNSt3__114__unwrap_rangeB7v160006IPNS_4pairImPKcEES5_EEDaT_T0_, symObjAddr: 0xD058C, symBinAddr: 0x1000D402C, symSize: 0x3C }
  - { offsetInCU: 0xC90F6, offset: 0xC90F6, size: 0x8, addend: 0x0, symName: __ZNSt3__113__unwrap_iterB7v160006IPNS_4pairImPKcEENS_18__unwrap_iter_implIS5_Lb1EEELi0EEEDTclsrT0_8__unwrapclsr3stdE7declvalIT_EEEES9_, symObjAddr: 0xD0650, symBinAddr: 0x1000D40F0, symSize: 0x24 }
  - { offsetInCU: 0xC913C, offset: 0xC913C, size: 0x8, addend: 0x0, symName: __ZNSt3__19make_pairB7v160006IPNS_4pairImPKcEES5_EENS1_INS_18__unwrap_ref_decayIT_E4typeENS6_IT0_E4typeEEEOS7_OSA_, symObjAddr: 0xD0674, symBinAddr: 0x1000D4114, symSize: 0x38 }
  - { offsetInCU: 0xC918C, offset: 0xC918C, size: 0x8, addend: 0x0, symName: __ZNSt3__114__rewrap_rangeB7v160006IPNS_4pairImPKcEES5_S5_EET0_S6_T1_, symObjAddr: 0xD06AC, symBinAddr: 0x1000D414C, symSize: 0x2C }
  - { offsetInCU: 0xC91E4, offset: 0xC91E4, size: 0x8, addend: 0x0, symName: __ZNSt3__113__rewrap_iterB7v160006IPNS_4pairImPKcEES5_NS_18__unwrap_iter_implIS5_Lb1EEEEET_S8_T0_, symObjAddr: 0xD06D8, symBinAddr: 0x1000D4178, symSize: 0x3C }
  - { offsetInCU: 0xC930E, offset: 0xC930E, size: 0x8, addend: 0x0, symName: __ZNSt3__112construct_atB7v160006INS_9sub_matchINS_11__wrap_iterIPKcEEEEJEPS6_EEPT_S9_DpOT0_, symObjAddr: 0xD1094, symBinAddr: 0x1000D4B34, symSize: 0x34 }
  - { offsetInCU: 0xC9370, offset: 0xC9370, size: 0x8, addend: 0x0, symName: __ZNSt3__119__allocate_at_leastB7v160006INS_9allocatorINS_9sub_matchINS_11__wrap_iterIPKcEEEEEEEENS_19__allocation_resultINS_16allocator_traitsIT_E7pointerEEERSB_m, symObjAddr: 0xD1308, symBinAddr: 0x1000D4DA8, symSize: 0x40 }
  - { offsetInCU: 0xC93B5, offset: 0xC93B5, size: 0x8, addend: 0x0, symName: __ZNSt3__142__uninitialized_allocator_move_if_noexceptB7v160006INS_9allocatorINS_9sub_matchINS_11__wrap_iterIPKcEEEEEENS_16reverse_iteratorIPS7_EESB_SB_EET2_RT_T0_T1_SC_, symObjAddr: 0xD1594, symBinAddr: 0x1000D5034, symSize: 0x12C }
  - { offsetInCU: 0xC9456, offset: 0xC9456, size: 0x8, addend: 0x0, symName: __ZNSt3__14swapB7v160006IPNS_9sub_matchINS_11__wrap_iterIPKcEEEEEENS_9enable_ifIXaasr21is_move_constructibleIT_EE5valuesr18is_move_assignableIS9_EE5valueEvE4typeERS9_SC_, symObjAddr: 0xD170C, symBinAddr: 0x1000D51AC, symSize: 0x3C }
  - { offsetInCU: 0xC94AB, offset: 0xC94AB, size: 0x8, addend: 0x0, symName: __ZNSt3__125__debug_db_invalidate_allB7v160006INS_6vectorINS_9sub_matchINS_11__wrap_iterIPKcEEEENS_9allocatorIS7_EEEEEEvPT_, symObjAddr: 0xD1810, symBinAddr: 0x1000D52B0, symSize: 0x10 }
  - { offsetInCU: 0xC94DE, offset: 0xC94DE, size: 0x8, addend: 0x0, symName: __ZNSt3__122__make_exception_guardB7v160006INS_29_AllocatorDestroyRangeReverseINS_9allocatorINS_9sub_matchINS_11__wrap_iterIPKcEEEEEENS_16reverse_iteratorIPS8_EEEEEENS_28__exception_guard_exceptionsIT_EESF_, symObjAddr: 0xD1820, symBinAddr: 0x1000D52C0, symSize: 0x4C }
  - { offsetInCU: 0xC9516, offset: 0xC9516, size: 0x8, addend: 0x0, symName: __ZNSt3__1neB7v160006IPNS_9sub_matchINS_11__wrap_iterIPKcEEEES7_EEbRKNS_16reverse_iteratorIT_EERKNS8_IT0_EE, symObjAddr: 0xD18B0, symBinAddr: 0x1000D5350, symSize: 0x48 }
  - { offsetInCU: 0xC9565, offset: 0xC9565, size: 0x8, addend: 0x0, symName: __ZNSt3__112__to_addressB7v160006INS_16reverse_iteratorIPNS_9sub_matchINS_11__wrap_iterIPKcEEEEEEvEENS_5decayIDTclsr19__to_address_helperIT_EE6__callclsr3stdE7declvalIRKSB_EEEEE4typeESD_, symObjAddr: 0xD1928, symBinAddr: 0x1000D53C8, symSize: 0x24 }
  - { offsetInCU: 0xC959D, offset: 0xC959D, size: 0x8, addend: 0x0, symName: __ZNSt3__112construct_atB7v160006INS_9sub_matchINS_11__wrap_iterIPKcEEEEJS6_EPS6_EEPT_S9_DpOT0_, symObjAddr: 0xD1A78, symBinAddr: 0x1000D5518, symSize: 0x34 }
  - { offsetInCU: 0xC9640, offset: 0xC9640, size: 0x8, addend: 0x0, symName: __ZNSt3__14prevB7v160006IPNS_9sub_matchINS_11__wrap_iterIPKcEEEEEENS_9enable_ifIXsr25__is_cpp17_input_iteratorIT_EE5valueES9_E4typeES9_NS_15iterator_traitsIS9_E15difference_typeE, symObjAddr: 0xD1B10, symBinAddr: 0x1000D55B0, symSize: 0x50 }
  - { offsetInCU: 0xC9686, offset: 0xC9686, size: 0x8, addend: 0x0, symName: __ZNSt3__19__advanceB7v160006IPNS_9sub_matchINS_11__wrap_iterIPKcEEEEEEvRT_NS_15iterator_traitsIS8_E15difference_typeENS_26random_access_iterator_tagE, symObjAddr: 0xD1BB0, symBinAddr: 0x1000D5650, symSize: 0x30 }
  - { offsetInCU: 0xC96D2, offset: 0xC96D2, size: 0x8, addend: 0x0, symName: __ZNSt3__119__allocator_destroyB7v160006INS_9allocatorINS_9sub_matchINS_11__wrap_iterIPKcEEEEEENS_16reverse_iteratorINS9_IPS7_EEEESC_EEvRT_T0_T1_, symObjAddr: 0xD1CE4, symBinAddr: 0x1000D5784, symSize: 0x70 }
  - { offsetInCU: 0xC9738, offset: 0xC9738, size: 0x8, addend: 0x0, symName: __ZNSt3__1neB7v160006INS_16reverse_iteratorIPNS_9sub_matchINS_11__wrap_iterIPKcEEEEEES9_EEbRKNS1_IT_EERKNS1_IT0_EE, symObjAddr: 0xD1D90, symBinAddr: 0x1000D5830, symSize: 0x60 }
  - { offsetInCU: 0xC9787, offset: 0xC9787, size: 0x8, addend: 0x0, symName: __ZNSt3__112__to_addressB7v160006INS_16reverse_iteratorINS1_IPNS_9sub_matchINS_11__wrap_iterIPKcEEEEEEEEvEENS_5decayIDTclsr19__to_address_helperIT_EE6__callclsr3stdE7declvalIRKSC_EEEEE4typeESE_, symObjAddr: 0xD1DF0, symBinAddr: 0x1000D5890, symSize: 0x24 }
  - { offsetInCU: 0xC97EA, offset: 0xC97EA, size: 0x8, addend: 0x0, symName: __ZNSt3__14prevB7v160006INS_16reverse_iteratorIPNS_9sub_matchINS_11__wrap_iterIPKcEEEEEEEENS_9enable_ifIXsr25__is_cpp17_input_iteratorIT_EE5valueESB_E4typeESB_NS_15iterator_traitsISB_E15difference_typeE, symObjAddr: 0xD1EEC, symBinAddr: 0x1000D598C, symSize: 0x60 }
  - { offsetInCU: 0xC9830, offset: 0xC9830, size: 0x8, addend: 0x0, symName: __ZNSt3__19__advanceB7v160006INS_16reverse_iteratorIPNS_9sub_matchINS_11__wrap_iterIPKcEEEEEEEEvRT_NS_15iterator_traitsISA_E15difference_typeENS_26random_access_iterator_tagE, symObjAddr: 0xD1F9C, symBinAddr: 0x1000D5A3C, symSize: 0x2C }
  - { offsetInCU: 0xC9C43, offset: 0xC9C43, size: 0x8, addend: 0x0, symName: __ZNSt3__14swapB7v160006IPPcEENS_9enable_ifIXaasr21is_move_constructibleIT_EE5valuesr18is_move_assignableIS4_EE5valueEvE4typeERS4_S7_, symObjAddr: 0xD37CC, symBinAddr: 0x1000D726C, symSize: 0x3C }
  - { offsetInCU: 0xC9C98, offset: 0xC9C98, size: 0x8, addend: 0x0, symName: __ZNSt3__14moveB7v160006IPPcS2_EET0_T_S4_S3_, symObjAddr: 0xD38B0, symBinAddr: 0x1000D7350, symSize: 0x40 }
  - { offsetInCU: 0xC9CF6, offset: 0xC9CF6, size: 0x8, addend: 0x0, symName: __ZNSt3__16__moveB7v160006INS_17_ClassicAlgPolicyEPPcS3_S3_EENS_4pairIT0_T2_EES5_T1_S6_, symObjAddr: 0xD3A50, symBinAddr: 0x1000D74F0, symSize: 0x44 }
  - { offsetInCU: 0xC9D66, offset: 0xC9D66, size: 0x8, addend: 0x0, symName: __ZNSt3__123__dispatch_copy_or_moveB7v160006INS_17_ClassicAlgPolicyENS_11__move_loopIS1_EENS_14__move_trivialEPPcS6_S6_EENS_4pairIT2_T4_EES8_T3_S9_, symObjAddr: 0xD3A94, symBinAddr: 0x1000D7534, symSize: 0x44 }
  - { offsetInCU: 0xC9DE8, offset: 0xC9DE8, size: 0x8, addend: 0x0, symName: __ZNSt3__121__unwrap_and_dispatchB7v160006INS_10__overloadINS_11__move_loopINS_17_ClassicAlgPolicyEEENS_14__move_trivialEEEPPcS8_S8_Li0EEENS_4pairIT0_T2_EESA_T1_SB_, symObjAddr: 0xD3AD8, symBinAddr: 0x1000D7578, symSize: 0xB4 }
  - { offsetInCU: 0xC9E7D, offset: 0xC9E7D, size: 0x8, addend: 0x0, symName: __ZNSt3__114__unwrap_rangeB7v160006IPPcS2_EEDaT_T0_, symObjAddr: 0xD3B8C, symBinAddr: 0x1000D762C, symSize: 0x3C }
  - { offsetInCU: 0xCA009, offset: 0xCA009, size: 0x8, addend: 0x0, symName: __ZNSt3__113__unwrap_iterB7v160006IPPcNS_18__unwrap_iter_implIS2_Lb1EEELi0EEEDTclsrT0_8__unwrapclsr3stdE7declvalIT_EEEES6_, symObjAddr: 0xD3C10, symBinAddr: 0x1000D76B0, symSize: 0x24 }
  - { offsetInCU: 0xCA04F, offset: 0xCA04F, size: 0x8, addend: 0x0, symName: __ZNSt3__19make_pairB7v160006IPPcS2_EENS_4pairINS_18__unwrap_ref_decayIT_E4typeENS4_IT0_E4typeEEEOS5_OS8_, symObjAddr: 0xD3C34, symBinAddr: 0x1000D76D4, symSize: 0x38 }
  - { offsetInCU: 0xCA09F, offset: 0xCA09F, size: 0x8, addend: 0x0, symName: __ZNSt3__114__rewrap_rangeB7v160006IPPcS2_S2_EET0_S3_T1_, symObjAddr: 0xD3C6C, symBinAddr: 0x1000D770C, symSize: 0x2C }
  - { offsetInCU: 0xCA0F7, offset: 0xCA0F7, size: 0x8, addend: 0x0, symName: __ZNSt3__113__rewrap_iterB7v160006IPPcS2_NS_18__unwrap_iter_implIS2_Lb1EEEEET_S5_T0_, symObjAddr: 0xD3C98, symBinAddr: 0x1000D7738, symSize: 0x3C }
  - { offsetInCU: 0xCA1A2, offset: 0xCA1A2, size: 0x8, addend: 0x0, symName: __ZNSt3__119__copy_trivial_implB7v160006IPcS1_EENS_4pairIPT_PT0_EES4_S4_S6_, symObjAddr: 0xD3D9C, symBinAddr: 0x1000D783C, symSize: 0x84 }
  - { offsetInCU: 0xCA20E, offset: 0xCA20E, size: 0x8, addend: 0x0, symName: __ZNSt3__19make_pairB7v160006IRPPcS2_EENS_4pairINS_18__unwrap_ref_decayIT_E4typeENS5_IT0_E4typeEEEOS6_OS9_, symObjAddr: 0xD3E20, symBinAddr: 0x1000D78C0, symSize: 0x38 }
  - { offsetInCU: 0xCA2B6, offset: 0xCA2B6, size: 0x8, addend: 0x0, symName: __ZNSt3__18distanceB7v160006INS_13move_iteratorIPPcEEEENS_15iterator_traitsIT_E15difference_typeES6_S6_, symObjAddr: 0xD3F68, symBinAddr: 0x1000D7A08, symSize: 0x3C }
  - { offsetInCU: 0xCA2FC, offset: 0xCA2FC, size: 0x8, addend: 0x0, symName: __ZNSt3__110__distanceB7v160006INS_13move_iteratorIPPcEEEENS_15iterator_traitsIT_E15difference_typeES6_S6_NS_26random_access_iterator_tagE, symObjAddr: 0xD40B0, symBinAddr: 0x1000D7B50, symSize: 0x30 }
  - { offsetInCU: 0xCA34C, offset: 0xCA34C, size: 0x8, addend: 0x0, symName: __ZNSt3__1miB7v160006IPPcS2_EEDTmicldtfp_4baseEcldtfp0_4baseEERKNS_13move_iteratorIT_EERKNS4_IT0_EE, symObjAddr: 0xD40E0, symBinAddr: 0x1000D7B80, symSize: 0x4C }
  - { offsetInCU: 0xCA3C3, offset: 0xCA3C3, size: 0x8, addend: 0x0, symName: __ZNSt3__112construct_atB7v160006IPcJS1_EPS1_EEPT_S4_DpOT0_, symObjAddr: 0xD4184, symBinAddr: 0x1000D7C24, symSize: 0x2C }
  - { offsetInCU: 0xCA43B, offset: 0xCA43B, size: 0x8, addend: 0x0, symName: __ZNSt3__112construct_atB7v160006IPcJRKS1_EPS1_EEPT_S6_DpOT0_, symObjAddr: 0xD424C, symBinAddr: 0x1000D7CEC, symSize: 0x2C }
  - { offsetInCU: 0xCA4B3, offset: 0xCA4B3, size: 0x8, addend: 0x0, symName: __ZNSt3__113move_backwardB7v160006IPPcS2_EET0_T_S4_S3_, symObjAddr: 0xD4278, symBinAddr: 0x1000D7D18, symSize: 0x40 }
  - { offsetInCU: 0xCA511, offset: 0xCA511, size: 0x8, addend: 0x0, symName: __ZNSt3__115__move_backwardB7v160006INS_17_ClassicAlgPolicyEPPcS3_S3_EENS_4pairIT0_T2_EES5_T1_S6_, symObjAddr: 0xD42B8, symBinAddr: 0x1000D7D58, symSize: 0x44 }
  - { offsetInCU: 0xCA581, offset: 0xCA581, size: 0x8, addend: 0x0, symName: __ZNSt3__123__dispatch_copy_or_moveB7v160006INS_17_ClassicAlgPolicyENS_20__move_backward_loopIS1_EENS_23__move_backward_trivialEPPcS6_S6_EENS_4pairIT2_T4_EES8_T3_S9_, symObjAddr: 0xD42FC, symBinAddr: 0x1000D7D9C, symSize: 0x44 }
  - { offsetInCU: 0xCA603, offset: 0xCA603, size: 0x8, addend: 0x0, symName: __ZNSt3__121__unwrap_and_dispatchB7v160006INS_10__overloadINS_20__move_backward_loopINS_17_ClassicAlgPolicyEEENS_23__move_backward_trivialEEEPPcS8_S8_Li0EEENS_4pairIT0_T2_EESA_T1_SB_, symObjAddr: 0xD4340, symBinAddr: 0x1000D7DE0, symSize: 0xB4 }
  - { offsetInCU: 0xCA698, offset: 0xCA698, size: 0x8, addend: 0x0, symName: __ZNSt3__128__copy_backward_trivial_implB7v160006IPcS1_EENS_4pairIPT_PT0_EES4_S4_S6_, symObjAddr: 0xD443C, symBinAddr: 0x1000D7EDC, symSize: 0x94 }
  - { offsetInCU: 0xCA704, offset: 0xCA704, size: 0x8, addend: 0x0, symName: __ZNSt3__19make_pairB7v160006IRPPcS3_EENS_4pairINS_18__unwrap_ref_decayIT_E4typeENS5_IT0_E4typeEEEOS6_OS9_, symObjAddr: 0xD44D0, symBinAddr: 0x1000D7F70, symSize: 0x38 }
  - { offsetInCU: 0xCA754, offset: 0xCA754, size: 0x8, addend: 0x0, symName: __ZNSt3__119__allocate_at_leastB7v160006INS_9allocatorIPcEEEENS_19__allocation_resultINS_16allocator_traitsIT_E7pointerEEERS6_m, symObjAddr: 0xD4688, symBinAddr: 0x1000D8128, symSize: 0x40 }
  - { offsetInCU: 0xCA79A, offset: 0xCA79A, size: 0x8, addend: 0x0, symName: __ZNSt3__119__debug_db_insert_cB7v160006INS_6vectorINS_10shared_ptrIN5Catch16IReporterFactoryEEENS_9allocatorIS5_EEEEEEvPT_, symObjAddr: 0xD5CA0, symBinAddr: 0x1000D9740, symSize: 0x10 }
  - { offsetInCU: 0xCA7CD, offset: 0xCA7CD, size: 0x8, addend: 0x0, symName: __ZNSt3__119__debug_db_insert_cB7v160006INS_6vectorINS_10unique_ptrIKN5Catch20IExceptionTranslatorENS_14default_deleteIS5_EEEENS_9allocatorIS8_EEEEEEvPT_, symObjAddr: 0xD5E90, symBinAddr: 0x1000D9930, symSize: 0x10 }
  - { offsetInCU: 0xCA800, offset: 0xCA800, size: 0x8, addend: 0x0, symName: __ZNSt3__119__debug_db_insert_cB7v160006INS_6vectorISt13exception_ptrNS_9allocatorIS2_EEEEEEvPT_, symObjAddr: 0xD63D0, symBinAddr: 0x1000D9E70, symSize: 0x10 }
  - { offsetInCU: 0xCA833, offset: 0xCA833, size: 0x8, addend: 0x0, symName: __ZNSt3__119__debug_db_insert_cB7v160006INS_6vectorINS_10unique_ptrIN5Catch6Detail8EnumInfoENS_14default_deleteIS5_EEEENS_9allocatorIS8_EEEEEEvPT_, symObjAddr: 0xD65C0, symBinAddr: 0x1000DA060, symSize: 0x10 }
  - { offsetInCU: 0xCA866, offset: 0xCA866, size: 0x8, addend: 0x0, symName: __ZNSt3__118__debug_db_erase_cB7v160006INS_6vectorISt13exception_ptrNS_9allocatorIS2_EEEEEEvPT_, symObjAddr: 0xD68E0, symBinAddr: 0x1000DA380, symSize: 0x10 }
  - { offsetInCU: 0xCA899, offset: 0xCA899, size: 0x8, addend: 0x0, symName: __ZNSt3__110destroy_atB7v160006INS_4pairIKNS_12basic_stringIcNS_11char_traitsIcEENS_9allocatorIcEEEENS_10shared_ptrIN5Catch16IReporterFactoryEEEEELi0EEEvPT_, symObjAddr: 0xD6BF8, symBinAddr: 0x1000DA698, symSize: 0x24 }
  - { offsetInCU: 0xCA8D3, offset: 0xCA8D3, size: 0x8, addend: 0x0, symName: __ZNSt3__112__destroy_atB7v160006INS_4pairIKNS_12basic_stringIcNS_11char_traitsIcEENS_9allocatorIcEEEENS_10shared_ptrIN5Catch16IReporterFactoryEEEEELi0EEEvPT_, symObjAddr: 0xD6C1C, symBinAddr: 0x1000DA6BC, symSize: 0x24 }
  - { offsetInCU: 0xCA90C, offset: 0xCA90C, size: 0x8, addend: 0x0, symName: __ZNSt3__17launderB7v160006INS_4pairIKNS_12basic_stringIcNS_11char_traitsIcEENS_9allocatorIcEEEENS_10shared_ptrIN5Catch16IReporterFactoryEEEEEEEPT_SF_, symObjAddr: 0xD6CC8, symBinAddr: 0x1000DA768, symSize: 0x24 }
  - { offsetInCU: 0xCA943, offset: 0xCA943, size: 0x8, addend: 0x0, symName: __ZNSt3__19__launderB7v160006INS_4pairIKNS_12basic_stringIcNS_11char_traitsIcEENS_9allocatorIcEEEENS_10shared_ptrIN5Catch16IReporterFactoryEEEEEEEPT_SF_, symObjAddr: 0xD6CEC, symBinAddr: 0x1000DA78C, symSize: 0x14 }
  - { offsetInCU: 0xCAA1F, offset: 0xCAA1F, size: 0x8, addend: 0x0, symName: __ZNSt3__112construct_atB7v160006INS_4pairIKNS_12basic_stringIcNS_11char_traitsIcEENS_9allocatorIcEEEENS_10shared_ptrIN5Catch16IReporterFactoryEEEEEJRS8_RKSC_EPSD_EEPT_SJ_DpOT0_, symObjAddr: 0xD76C4, symBinAddr: 0x1000DB164, symSize: 0x44 }
  - { offsetInCU: 0xCAAAC, offset: 0xCAAAC, size: 0x8, addend: 0x0, symName: __ZNSt3__14swapB7v160006IPN5Catch6ConfigEEENS_9enable_ifIXaasr21is_move_constructibleIT_EE5valuesr18is_move_assignableIS5_EE5valueEvE4typeERS5_S8_, symObjAddr: 0xD7EA4, symBinAddr: 0x1000DB944, symSize: 0x3C }
  - { offsetInCU: 0xCAB00, offset: 0xCAB00, size: 0x8, addend: 0x0, symName: __ZNSt3__115allocate_sharedB7v160006IN5Catch6ConfigENS_9allocatorIS2_EEJRNS1_10ConfigDataEEvEENS_10shared_ptrIT_EERKT0_DpOT1_, symObjAddr: 0xD7EF8, symBinAddr: 0x1000DB998, symSize: 0x98 }
  - { offsetInCU: 0xCAE62, offset: 0xCAE62, size: 0x8, addend: 0x0, symName: __ZNSt3__112construct_atB7v160006IN5Catch6ConfigEJRNS1_10ConfigDataEEPS2_EEPT_S7_DpOT0_, symObjAddr: 0xD85CC, symBinAddr: 0x1000DC06C, symSize: 0x3C }
  - { offsetInCU: 0xCAEDA, offset: 0xCAEDA, size: 0x8, addend: 0x0, symName: __ZNSt3__110destroy_atB7v160006IN5Catch6ConfigELi0EEEvPT_, symObjAddr: 0xD86A4, symBinAddr: 0x1000DC144, symSize: 0x24 }
  - { offsetInCU: 0xCAF14, offset: 0xCAF14, size: 0x8, addend: 0x0, symName: __ZNSt3__112__destroy_atB7v160006IN5Catch6ConfigELi0EEEvPT_, symObjAddr: 0xD86C8, symBinAddr: 0x1000DC168, symSize: 0x2C }
  - { offsetInCU: 0xCAF84, offset: 0xCAF84, size: 0x8, addend: 0x0, symName: __ZNSt3__119__debug_db_insert_cB7v160006INS_6vectorINS_10unique_ptrINS_19basic_ostringstreamIcNS_11char_traitsIcEENS_9allocatorIcEEEENS_14default_deleteIS8_EEEENS6_ISB_EEEEEEvPT_, symObjAddr: 0xD8BDC, symBinAddr: 0x1000DC67C, symSize: 0x10 }
  - { offsetInCU: 0xCAFB7, offset: 0xCAFB7, size: 0x8, addend: 0x0, symName: __ZNSt3__118__debug_db_erase_cB7v160006INS_6vectorINS_10unique_ptrINS_19basic_ostringstreamIcNS_11char_traitsIcEENS_9allocatorIcEEEENS_14default_deleteIS8_EEEENS6_ISB_EEEEEEvPT_, symObjAddr: 0xD8DCC, symBinAddr: 0x1000DC86C, symSize: 0x10 }
  - { offsetInCU: 0xCAFEA, offset: 0xCAFEA, size: 0x8, addend: 0x0, symName: __ZNSt3__110destroy_atB7v160006INS_4pairIKNS_12basic_stringIcNS_11char_traitsIcEENS_9allocatorIcEEEEN5Catch8TagAliasEEELi0EEEvPT_, symObjAddr: 0xD9150, symBinAddr: 0x1000DCBF0, symSize: 0x24 }
  - { offsetInCU: 0xCB024, offset: 0xCB024, size: 0x8, addend: 0x0, symName: __ZNSt3__112__destroy_atB7v160006INS_4pairIKNS_12basic_stringIcNS_11char_traitsIcEENS_9allocatorIcEEEEN5Catch8TagAliasEEELi0EEEvPT_, symObjAddr: 0xD9174, symBinAddr: 0x1000DCC14, symSize: 0x24 }
  - { offsetInCU: 0xCB05D, offset: 0xCB05D, size: 0x8, addend: 0x0, symName: __ZNSt3__17launderB7v160006INS_4pairIKNS_12basic_stringIcNS_11char_traitsIcEENS_9allocatorIcEEEEN5Catch8TagAliasEEEEEPT_SD_, symObjAddr: 0xD9220, symBinAddr: 0x1000DCCC0, symSize: 0x24 }
  - { offsetInCU: 0xCB094, offset: 0xCB094, size: 0x8, addend: 0x0, symName: __ZNSt3__19__launderB7v160006INS_4pairIKNS_12basic_stringIcNS_11char_traitsIcEENS_9allocatorIcEEEEN5Catch8TagAliasEEEEEPT_SD_, symObjAddr: 0xD9244, symBinAddr: 0x1000DCCE4, symSize: 0x14 }
  - { offsetInCU: 0xCB0CB, offset: 0xCB0CB, size: 0x8, addend: 0x0, symName: __ZNSt3__1neB7v160006ERKNS_21__tree_const_iteratorINS_12__value_typeINS_12basic_stringIcNS_11char_traitsIcEENS_9allocatorIcEEEEN5Catch8TagAliasEEEPNS_11__tree_nodeISA_PvEElEESH_, symObjAddr: 0xD94BC, symBinAddr: 0x1000DCF5C, symSize: 0x34 }
  - { offsetInCU: 0xCB108, offset: 0xCB108, size: 0x8, addend: 0x0, symName: __ZNSt3__17launderB7v160006IKNS_4pairIKNS_12basic_stringIcNS_11char_traitsIcEENS_9allocatorIcEEEEN5Catch8TagAliasEEEEEPT_SE_, symObjAddr: 0xD9664, symBinAddr: 0x1000DD104, symSize: 0x24 }
  - { offsetInCU: 0xCB13F, offset: 0xCB13F, size: 0x8, addend: 0x0, symName: __ZNSt3__19__launderB7v160006IKNS_4pairIKNS_12basic_stringIcNS_11char_traitsIcEENS_9allocatorIcEEEEN5Catch8TagAliasEEEEEPT_SE_, symObjAddr: 0xD9688, symBinAddr: 0x1000DD128, symSize: 0x14 }
  - { offsetInCU: 0xCB176, offset: 0xCB176, size: 0x8, addend: 0x0, symName: __ZNSt3__1eqB7v160006ERKNS_21__tree_const_iteratorINS_12__value_typeINS_12basic_stringIcNS_11char_traitsIcEENS_9allocatorIcEEEEN5Catch8TagAliasEEEPNS_11__tree_nodeISA_PvEElEESH_, symObjAddr: 0xD96BC, symBinAddr: 0x1000DD15C, symSize: 0x30 }
  - { offsetInCU: 0xCB267, offset: 0xCB267, size: 0x8, addend: 0x0, symName: __ZNSt3__112construct_atB7v160006INS_4pairIKNS_12basic_stringIcNS_11char_traitsIcEENS_9allocatorIcEEEEN5Catch8TagAliasEEEJNS1_IS7_SA_EEEPSB_EEPT_SF_DpOT0_, symObjAddr: 0xDA1F4, symBinAddr: 0x1000DDC94, symSize: 0x3C }
  - { offsetInCU: 0xCBDC0, offset: 0xCBDC0, size: 0x8, addend: 0x0, symName: __ZNSt3__115allocate_sharedB7v160006IN5Catch16TestCaseTracking14SectionTrackerENS_9allocatorIS3_EEJNS2_15NameAndLocationERNS2_14TrackerContextEDnEvEENS_10shared_ptrIT_EERKT0_DpOT1_, symObjAddr: 0xDC298, symBinAddr: 0x1000DFD38, symSize: 0xA8 }
  - { offsetInCU: 0xCC1AD, offset: 0xCC1AD, size: 0x8, addend: 0x0, symName: __ZNSt3__112construct_atB7v160006IN5Catch16TestCaseTracking14SectionTrackerEJNS2_15NameAndLocationERNS2_14TrackerContextEDnEPS3_EEPT_S9_DpOT0_, symObjAddr: 0xDC9AC, symBinAddr: 0x1000E044C, symSize: 0x4C }
  - { offsetInCU: 0xCC24F, offset: 0xCC24F, size: 0x8, addend: 0x0, symName: __ZNSt3__110destroy_atB7v160006IN5Catch16TestCaseTracking14SectionTrackerELi0EEEvPT_, symObjAddr: 0xDCA94, symBinAddr: 0x1000E0534, symSize: 0x24 }
  - { offsetInCU: 0xCC289, offset: 0xCC289, size: 0x8, addend: 0x0, symName: __ZNSt3__112__destroy_atB7v160006IN5Catch16TestCaseTracking14SectionTrackerELi0EEEvPT_, symObjAddr: 0xDCAB8, symBinAddr: 0x1000E0558, symSize: 0x2C }
  - { offsetInCU: 0xCC2F9, offset: 0xCC2F9, size: 0x8, addend: 0x0, symName: __ZNSt3__14swapB7v160006IPN5Catch16TestCaseTracking8ITrackerEEENS_9enable_ifIXaasr21is_move_constructibleIT_EE5valuesr18is_move_assignableIS6_EE5valueEvE4typeERS6_S9_, symObjAddr: 0xDCD74, symBinAddr: 0x1000E0814, symSize: 0x3C }
  - { offsetInCU: 0xCC34E, offset: 0xCC34E, size: 0x8, addend: 0x0, symName: __ZNSt3__14swapB7v160006IPN5Catch16TestCaseTracking14SectionTrackerEEENS_9enable_ifIXaasr21is_move_constructibleIT_EE5valuesr18is_move_assignableIS6_EE5valueEvE4typeERS6_S9_, symObjAddr: 0xDCF14, symBinAddr: 0x1000E09B4, symSize: 0x3C }
  - { offsetInCU: 0xCC3A2, offset: 0xCC3A2, size: 0x8, addend: 0x0, symName: __ZNSt3__115allocate_sharedB7v160006IN5Catch16TestCaseTracking14SectionTrackerENS_9allocatorIS3_EEJRKNS2_15NameAndLocationERNS2_14TrackerContextEPNS2_8ITrackerEEvEENS_10shared_ptrIT_EERKT0_DpOT1_, symObjAddr: 0xDCF50, symBinAddr: 0x1000E09F0, symSize: 0xA8 }
  - { offsetInCU: 0xCC449, offset: 0xCC449, size: 0x8, addend: 0x0, symName: __ZNSt3__112construct_atB7v160006IN5Catch16TestCaseTracking14SectionTrackerEJRKNS2_15NameAndLocationERNS2_14TrackerContextEPNS2_8ITrackerEEPS3_EEPT_SD_DpOT0_, symObjAddr: 0xDD154, symBinAddr: 0x1000E0BF4, symSize: 0x50 }
  - { offsetInCU: 0xCC4EA, offset: 0xCC4EA, size: 0x8, addend: 0x0, symName: __ZNSt3__115allocate_sharedB7v160006IN5Catch8TestSpec11NamePatternENS_9allocatorIS3_EEJRNS_12basic_stringIcNS_11char_traitsIcEENS4_IcEEEESB_EvEENS_10shared_ptrIT_EERKT0_DpOT1_, symObjAddr: 0xDD284, symBinAddr: 0x1000E0D24, symSize: 0xA0 }
  - { offsetInCU: 0xCC86C, offset: 0xCC86C, size: 0x8, addend: 0x0, symName: __ZNSt3__112construct_atB7v160006IN5Catch8TestSpec11NamePatternEJRNS_12basic_stringIcNS_11char_traitsIcEENS_9allocatorIcEEEESA_EPS3_EEPT_SD_DpOT0_, symObjAddr: 0xDD978, symBinAddr: 0x1000E1418, symSize: 0x44 }
  - { offsetInCU: 0xCC8F9, offset: 0xCC8F9, size: 0x8, addend: 0x0, symName: __ZNSt3__110destroy_atB7v160006IN5Catch8TestSpec11NamePatternELi0EEEvPT_, symObjAddr: 0xDDA58, symBinAddr: 0x1000E14F8, symSize: 0x24 }
  - { offsetInCU: 0xCC933, offset: 0xCC933, size: 0x8, addend: 0x0, symName: __ZNSt3__112__destroy_atB7v160006IN5Catch8TestSpec11NamePatternELi0EEEvPT_, symObjAddr: 0xDDA7C, symBinAddr: 0x1000E151C, symSize: 0x2C }
  - { offsetInCU: 0xCC9A2, offset: 0xCC9A2, size: 0x8, addend: 0x0, symName: __ZNSt3__115allocate_sharedB7v160006IN5Catch8TestSpec15ExcludedPatternENS_9allocatorIS3_EEJRNS_10shared_ptrINS2_7PatternEEEEvEENS6_IT_EERKT0_DpOT1_, symObjAddr: 0xDDD08, symBinAddr: 0x1000E17A8, symSize: 0x98 }
  - { offsetInCU: 0xCCD04, offset: 0xCCD04, size: 0x8, addend: 0x0, symName: __ZNSt3__112construct_atB7v160006IN5Catch8TestSpec15ExcludedPatternEJRNS_10shared_ptrINS2_7PatternEEEEPS3_EEPT_SA_DpOT0_, symObjAddr: 0xDE3DC, symBinAddr: 0x1000E1E7C, symSize: 0x3C }
  - { offsetInCU: 0xCCD7C, offset: 0xCCD7C, size: 0x8, addend: 0x0, symName: __ZNSt3__110destroy_atB7v160006IN5Catch8TestSpec15ExcludedPatternELi0EEEvPT_, symObjAddr: 0xDE4B4, symBinAddr: 0x1000E1F54, symSize: 0x24 }
  - { offsetInCU: 0xCCDB6, offset: 0xCCDB6, size: 0x8, addend: 0x0, symName: __ZNSt3__112__destroy_atB7v160006IN5Catch8TestSpec15ExcludedPatternELi0EEEvPT_, symObjAddr: 0xDE4D8, symBinAddr: 0x1000E1F78, symSize: 0x2C }
  - { offsetInCU: 0xCCE26, offset: 0xCCE26, size: 0x8, addend: 0x0, symName: __ZNSt3__14swapB7v160006IPN5Catch8TestSpec7PatternEEENS_9enable_ifIXaasr21is_move_constructibleIT_EE5valuesr18is_move_assignableIS6_EE5valueEvE4typeERS6_S9_, symObjAddr: 0xDE7DC, symBinAddr: 0x1000E227C, symSize: 0x3C }
  - { offsetInCU: 0xCCE7A, offset: 0xCCE7A, size: 0x8, addend: 0x0, symName: __ZNSt3__115allocate_sharedB7v160006IN5Catch8TestSpec10TagPatternENS_9allocatorIS3_EEJRA2_KcRNS_12basic_stringIcNS_11char_traitsIcEENS4_IcEEEEEvEENS_10shared_ptrIT_EERKT0_DpOT1_, symObjAddr: 0xDE818, symBinAddr: 0x1000E22B8, symSize: 0xA0 }
  - { offsetInCU: 0xCD23B, offset: 0xCD23B, size: 0x8, addend: 0x0, symName: __ZNSt3__112construct_atB7v160006IN5Catch8TestSpec10TagPatternEJRA2_KcRNS_12basic_stringIcNS_11char_traitsIcEENS_9allocatorIcEEEEEPS3_EEPT_SG_DpOT0_, symObjAddr: 0xDEF0C, symBinAddr: 0x1000E29AC, symSize: 0x84 }
  - { offsetInCU: 0xCD2C8, offset: 0xCD2C8, size: 0x8, addend: 0x0, symName: __ZNSt3__110destroy_atB7v160006IN5Catch8TestSpec10TagPatternELi0EEEvPT_, symObjAddr: 0xDF02C, symBinAddr: 0x1000E2ACC, symSize: 0x24 }
  - { offsetInCU: 0xCD302, offset: 0xCD302, size: 0x8, addend: 0x0, symName: __ZNSt3__112__destroy_atB7v160006IN5Catch8TestSpec10TagPatternELi0EEEvPT_, symObjAddr: 0xDF050, symBinAddr: 0x1000E2AF0, symSize: 0x2C }
  - { offsetInCU: 0xCD371, offset: 0xCD371, size: 0x8, addend: 0x0, symName: __ZNSt3__115allocate_sharedB7v160006IN5Catch8TestSpec10TagPatternENS_9allocatorIS3_EEJRNS_12basic_stringIcNS_11char_traitsIcEENS4_IcEEEESB_EvEENS_10shared_ptrIT_EERKT0_DpOT1_, symObjAddr: 0xDF2DC, symBinAddr: 0x1000E2D7C, symSize: 0xA0 }
  - { offsetInCU: 0xCD402, offset: 0xCD402, size: 0x8, addend: 0x0, symName: __ZNSt3__112construct_atB7v160006IN5Catch8TestSpec10TagPatternEJRNS_12basic_stringIcNS_11char_traitsIcEENS_9allocatorIcEEEESA_EPS3_EEPT_SD_DpOT0_, symObjAddr: 0xDF4C0, symBinAddr: 0x1000E2F60, symSize: 0x44 }
  - { offsetInCU: 0xCD48E, offset: 0xCD48E, size: 0x8, addend: 0x0, symName: __ZNSt3__122__str_find_last_not_ofB7v160006IcmNS_11char_traitsIcEELm18446744073709551615EEET0_PKT_S3_S4_S3_, symObjAddr: 0xDF5E8, symBinAddr: 0x1000E3088, symSize: 0xD0 }
  - { offsetInCU: 0xCD536, offset: 0xCD536, size: 0x8, addend: 0x0, symName: __ZNSt3__119__debug_db_insert_cB7v160006INS_6vectorIN5Catch11SectionInfoENS_9allocatorIS3_EEEEEEvPT_, symObjAddr: 0xDF92C, symBinAddr: 0x1000E33CC, symSize: 0x10 }
  - { offsetInCU: 0xCD569, offset: 0xCD569, size: 0x8, addend: 0x0, symName: __ZNSt3__110destroy_atB7v160006IN5Catch9VerbosityELi0EEEvPT_, symObjAddr: 0xDFDE4, symBinAddr: 0x1000E3884, symSize: 0x24 }
  - { offsetInCU: 0xCD5A3, offset: 0xCD5A3, size: 0x8, addend: 0x0, symName: __ZNSt3__112__destroy_atB7v160006IN5Catch9VerbosityELi0EEEvPT_, symObjAddr: 0xDFE08, symBinAddr: 0x1000E38A8, symSize: 0x10 }
  - { offsetInCU: 0xCD5DC, offset: 0xCD5DC, size: 0x8, addend: 0x0, symName: __ZNSt3__1eqB7v160006ERKNS_21__tree_const_iteratorIN5Catch9VerbosityEPNS_11__tree_nodeIS2_PvEElEES9_, symObjAddr: 0xE0A58, symBinAddr: 0x1000E44F8, symSize: 0x30 }
  - { offsetInCU: 0xCD61A, offset: 0xCD61A, size: 0x8, addend: 0x0, symName: __ZNSt3__14nextB7v160006INS_21__tree_const_iteratorIN5Catch9VerbosityEPNS_11__tree_nodeIS3_PvEElEEEENS_9enable_ifIXsr25__is_cpp17_input_iteratorIT_EE5valueESA_E4typeESA_NS_15iterator_traitsISA_E15difference_typeE, symObjAddr: 0xE0D30, symBinAddr: 0x1000E47D0, symSize: 0x50 }
  - { offsetInCU: 0xCD660, offset: 0xCD660, size: 0x8, addend: 0x0, symName: __ZNSt3__19__advanceB7v160006INS_21__tree_const_iteratorIN5Catch9VerbosityEPNS_11__tree_nodeIS3_PvEElEEEEvRT_NS_15iterator_traitsIS9_E15difference_typeENS_26bidirectional_iterator_tagE, symObjAddr: 0xE0EB8, symBinAddr: 0x1000E4958, symSize: 0xA4 }
  - { offsetInCU: 0xCD6F4, offset: 0xCD6F4, size: 0x8, addend: 0x0, symName: __ZNSt3__112construct_atB7v160006IN5Catch9VerbosityEJRKS2_EPS2_EEPT_S7_DpOT0_, symObjAddr: 0xE128C, symBinAddr: 0x1000E4D2C, symSize: 0x2C }
  - { offsetInCU: 0xCD76B, offset: 0xCD76B, size: 0x8, addend: 0x0, symName: __ZNSt3__111make_sharedB7v160006IN5Catch17ReporterRegistrarINS1_15CompactReporterEE15ReporterFactoryEJEvEENS_10shared_ptrIT_EEDpOT0_, symObjAddr: 0xE167C, symBinAddr: 0x1000E511C, symSize: 0x38 }
  - { offsetInCU: 0xCD9BA, offset: 0xCD9BA, size: 0x8, addend: 0x0, symName: __ZNSt3__115allocate_sharedB7v160006IN5Catch17ReporterRegistrarINS1_15CompactReporterEE15ReporterFactoryENS_9allocatorIS5_EEJEvEENS_10shared_ptrIT_EERKT0_DpOT1_, symObjAddr: 0xE1714, symBinAddr: 0x1000E51B4, symSize: 0x90 }
  - { offsetInCU: 0xCDCFA, offset: 0xCDCFA, size: 0x8, addend: 0x0, symName: __ZNSt3__112construct_atB7v160006IN5Catch17ReporterRegistrarINS1_15CompactReporterEE15ReporterFactoryEJEPS5_EEPT_S8_DpOT0_, symObjAddr: 0xE1DC4, symBinAddr: 0x1000E5864, symSize: 0x38 }
  - { offsetInCU: 0xCDD5C, offset: 0xCDD5C, size: 0x8, addend: 0x0, symName: __ZNSt3__110destroy_atB7v160006IN5Catch17ReporterRegistrarINS1_15CompactReporterEE15ReporterFactoryELi0EEEvPT_, symObjAddr: 0xE282C, symBinAddr: 0x1000E62CC, symSize: 0x24 }
