---
triple:          'arm64-apple-darwin'
binary-path:     './bin/exec'
relocations:
  - { offsetInCU: 0x5C, offset: 0x5C, size: 0x8, addend: 0x0, symName: __ZNSt3__1L19piecewise_constructE, symObjAddr: 0x5409, symBinAddr: 0x10000F86D, symSize: 0x0 }
  - { offsetInCU: 0x77B3, offset: 0x77B3, size: 0x8, addend: 0x0, symName: __ZNSt3__124__put_character_sequenceB7v160006IcNS_11char_traitsIcEEEERNS_13basic_ostreamIT_T0_EES7_PKS4_m, symObjAddr: 0x1EF8, symBinAddr: 0x10000408C, symSize: 0x1EC }
  - { offsetInCU: 0xA090, offset: 0xA090, size: 0x8, addend: 0x0, symName: __ZNSt3__1neB7v160006ERKNS_14__map_iteratorINS_15__tree_iteratorINS_12__value_typeINS_12basic_stringIcNS_11char_traitsIcEENS_9allocatorIcEEEEP7DbTableEEPNS_11__tree_nodeISB_PvEElEEEESJ_, symObjAddr: 0x11C, symBinAddr: 0x1000022B0, symSize: 0x30 }
  - { offsetInCU: 0xA0CD, offset: 0xA0CD, size: 0x8, addend: 0x0, symName: __ZNSt3__1lsB7v160006INS_11char_traitsIcEEEERNS_13basic_ostreamIcT_EES6_PKc, symObjAddr: 0x184, symBinAddr: 0x100002318, symSize: 0x48 }
  - { offsetInCU: 0xA113, offset: 0xA113, size: 0x8, addend: 0x0, symName: __ZNSt3__1lsB7v160006IcNS_11char_traitsIcEENS_9allocatorIcEEEERNS_13basic_ostreamIT_T0_EES9_RKNS_12basic_stringIS6_S7_T1_EE, symObjAddr: 0x1CC, symBinAddr: 0x100002360, symSize: 0x4C }
  - { offsetInCU: 0xA16B, offset: 0xA16B, size: 0x8, addend: 0x0, symName: __ZNSt3__14endlB7v160006IcNS_11char_traitsIcEEEERNS_13basic_ostreamIT_T0_EES7_, symObjAddr: 0x244, symBinAddr: 0x1000023D8, symSize: 0x58 }
  - { offsetInCU: 0xA1AB, offset: 0xA1AB, size: 0x8, addend: 0x0, symName: __ZNSt3__1eqB7v160006ERKNS_14__map_iteratorINS_15__tree_iteratorINS_12__value_typeINS_12basic_stringIcNS_11char_traitsIcEENS_9allocatorIcEEEEP7DbTableEEPNS_11__tree_nodeISB_PvEElEEEESJ_, symObjAddr: 0x450, symBinAddr: 0x1000025E4, symSize: 0x30 }
  - { offsetInCU: 0xA1E8, offset: 0xA1E8, size: 0x8, addend: 0x0, symName: __ZNSt3__1neB7v160006ERKNS_20__map_const_iteratorINS_21__tree_const_iteratorINS_12__value_typeINS_12basic_stringIcNS_11char_traitsIcEENS_9allocatorIcEEEEP7DbTableEEPNS_11__tree_nodeISB_PvEElEEEESJ_, symObjAddr: 0x7B8, symBinAddr: 0x10000294C, symSize: 0x30 }
  - { offsetInCU: 0xA258, offset: 0xA258, size: 0x8, addend: 0x0, symName: __ZNSt3__119__debug_db_insert_cB7v160006INS_6vectorINS_4pairINS_12basic_stringIcNS_11char_traitsIcEENS_9allocatorIcEEEE8DataTypeEENS6_ISA_EEEEEEvPT_, symObjAddr: 0x118C, symBinAddr: 0x100003320, symSize: 0x10 }
  - { offsetInCU: 0xA289, offset: 0xA289, size: 0x8, addend: 0x0, symName: __ZNSt3__1neB7v160006ERKNS_15__tree_iteratorINS_12__value_typeINS_12basic_stringIcNS_11char_traitsIcEENS_9allocatorIcEEEEP7DbTableEEPNS_11__tree_nodeISA_PvEElEESH_, symObjAddr: 0x1488, symBinAddr: 0x10000361C, symSize: 0x34 }
  - { offsetInCU: 0xA2C6, offset: 0xA2C6, size: 0x8, addend: 0x0, symName: __ZNSt3__1ltB7v160006ENS_15strong_orderingENS_20_CmpUnspecifiedParamE, symObjAddr: 0x1680, symBinAddr: 0x100003814, symSize: 0x24 }
  - { offsetInCU: 0xA2FF, offset: 0xA2FF, size: 0x8, addend: 0x0, symName: __ZNSt3__1ssB7v160006IcNS_11char_traitsIcEENS_9allocatorIcEEEEDaRKNS_12basic_stringIT_T0_T1_EESC_, symObjAddr: 0x16A4, symBinAddr: 0x100003838, symSize: 0x5C }
  - { offsetInCU: 0xA373, offset: 0xA373, size: 0x8, addend: 0x0, symName: __ZNSt3__1ssB7v160006IcNS_11char_traitsIcEEEEDaNS_17basic_string_viewIT_T0_EES7_, symObjAddr: 0x1734, symBinAddr: 0x1000038C8, symSize: 0x7C }
  - { offsetInCU: 0xA3C2, offset: 0xA3C2, size: 0x8, addend: 0x0, symName: __ZNSt3__13minB7v160006ImEERKT_S3_S3_, symObjAddr: 0x193C, symBinAddr: 0x100003AD0, symSize: 0x2C }
  - { offsetInCU: 0xA405, offset: 0xA405, size: 0x8, addend: 0x0, symName: __ZNSt3__13minB7v160006ImNS_6__lessImmEEEERKT_S5_S5_T0_, symObjAddr: 0x1A04, symBinAddr: 0x100003B98, symSize: 0x54 }
  - { offsetInCU: 0xA49A, offset: 0xA49A, size: 0x8, addend: 0x0, symName: __ZNSt3__118__constexpr_memcmpB7v160006IcEEiPKT_S3_m, symObjAddr: 0x1A8C, symBinAddr: 0x100003C20, symSize: 0x34 }
  - { offsetInCU: 0xA4EB, offset: 0xA4EB, size: 0x8, addend: 0x0, symName: __ZNSt3__112__to_addressB7v160006IKcEEPT_S3_, symObjAddr: 0x1B78, symBinAddr: 0x100003D0C, symSize: 0x14 }
  - { offsetInCU: 0xA553, offset: 0xA553, size: 0x8, addend: 0x0, symName: __ZNSt3__17launderB7v160006IKNS_4pairIKNS_12basic_stringIcNS_11char_traitsIcEENS_9allocatorIcEEEEP7DbTableEEEEPT_SE_, symObjAddr: 0x1D78, symBinAddr: 0x100003F0C, symSize: 0x24 }
  - { offsetInCU: 0xA58A, offset: 0xA58A, size: 0x8, addend: 0x0, symName: __ZNSt3__19__launderB7v160006IKNS_4pairIKNS_12basic_stringIcNS_11char_traitsIcEENS_9allocatorIcEEEEP7DbTableEEEEPT_SE_, symObjAddr: 0x1D9C, symBinAddr: 0x100003F30, symSize: 0x14 }
  - { offsetInCU: 0xA5C1, offset: 0xA5C1, size: 0x8, addend: 0x0, symName: __ZNSt3__1eqB7v160006ERKNS_15__tree_iteratorINS_12__value_typeINS_12basic_stringIcNS_11char_traitsIcEENS_9allocatorIcEEEEP7DbTableEEPNS_11__tree_nodeISA_PvEElEESH_, symObjAddr: 0x1E58, symBinAddr: 0x100003FEC, symSize: 0x30 }
  - { offsetInCU: 0xA5FE, offset: 0xA5FE, size: 0x8, addend: 0x0, symName: __ZNSt3__116__pad_and_outputB7v160006IcNS_11char_traitsIcEEEENS_19ostreambuf_iteratorIT_T0_EES6_PKS4_S8_S8_RNS_8ios_baseES4_, symObjAddr: 0x2134, symBinAddr: 0x1000042C8, symSize: 0x240 }
  - { offsetInCU: 0xA6CD, offset: 0xA6CD, size: 0x8, addend: 0x0, symName: __ZNSt3__119__debug_db_insert_cB7v160006INS_12basic_stringIcNS_11char_traitsIcEENS_9allocatorIcEEEEEEvPT_, symObjAddr: 0x25E8, symBinAddr: 0x10000477C, symSize: 0x10 }
  - { offsetInCU: 0xA6FE, offset: 0xA6FE, size: 0x8, addend: 0x0, symName: __ZNSt3__112__to_addressB7v160006IcEEPT_S2_, symObjAddr: 0x26B4, symBinAddr: 0x100004848, symSize: 0x14 }
  - { offsetInCU: 0xA733, offset: 0xA733, size: 0x8, addend: 0x0, symName: __ZNSt3__19use_facetB7v160006INS_5ctypeIcEEEERKT_RKNS_6localeE, symObjAddr: 0x28FC, symBinAddr: 0x100004A90, symSize: 0x2C }
  - { offsetInCU: 0xAC02, offset: 0xAC02, size: 0x8, addend: 0x0, symName: __ZNSt3__118__constexpr_strlenB7v160006EPKc, symObjAddr: 0x2994, symBinAddr: 0x100004B28, symSize: 0x24 }
  - { offsetInCU: 0xAC65, offset: 0xAC65, size: 0x8, addend: 0x0, symName: __ZNSt3__116forward_as_tupleB7v160006IJRKNS_12basic_stringIcNS_11char_traitsIcEENS_9allocatorIcEEEEEEENS_5tupleIJDpOT_EEESC_, symObjAddr: 0x2AB8, symBinAddr: 0x100004C4C, symSize: 0x2C }
  - { offsetInCU: 0xAC9E, offset: 0xAC9E, size: 0x8, addend: 0x0, symName: __ZNSt3__116forward_as_tupleB7v160006IJEEENS_5tupleIJDpOT_EEES4_, symObjAddr: 0x2AE4, symBinAddr: 0x100004C78, symSize: 0x4 }
  - { offsetInCU: 0xACE0, offset: 0xACE0, size: 0x8, addend: 0x0, symName: __ZNSt3__117__libcpp_allocateB7v160006Emm, symObjAddr: 0x3248, symBinAddr: 0x1000053DC, symSize: 0x60 }
  - { offsetInCU: 0xAF26, offset: 0xAF26, size: 0x8, addend: 0x0, symName: __ZNSt3__124__is_overaligned_for_newB7v160006Em, symObjAddr: 0x32C4, symBinAddr: 0x100005458, symSize: 0x20 }
  - { offsetInCU: 0xAF54, offset: 0xAF54, size: 0x8, addend: 0x0, symName: __ZNSt3__121__libcpp_operator_newB7v160006IJmSt11align_val_tEEEPvDpT_, symObjAddr: 0x32E4, symBinAddr: 0x100005478, symSize: 0x2C }
  - { offsetInCU: 0xAFA1, offset: 0xAFA1, size: 0x8, addend: 0x0, symName: __ZNSt3__121__libcpp_operator_newB7v160006IJmEEEPvDpT_, symObjAddr: 0x3310, symBinAddr: 0x1000054A4, symSize: 0x24 }
  - { offsetInCU: 0xAFFF, offset: 0xAFFF, size: 0x8, addend: 0x0, symName: __ZNSt3__112construct_atB7v160006INS_4pairIKNS_12basic_stringIcNS_11char_traitsIcEENS_9allocatorIcEEEEP7DbTableEEJRKNS_21piecewise_construct_tENS_5tupleIJRS8_EEENSF_IJEEEEPSB_EEPT_SL_DpOT0_, symObjAddr: 0x3480, symBinAddr: 0x100005614, symSize: 0x50 }
  - { offsetInCU: 0xB0A0, offset: 0xB0A0, size: 0x8, addend: 0x0, symName: __ZNSt3__13getB7v160006ILm0EJRKNS_12basic_stringIcNS_11char_traitsIcEENS_9allocatorIcEEEEEEERNS_13tuple_elementIXT_ENS_5tupleIJDpT0_EEEE4typeERSD_, symObjAddr: 0x3590, symBinAddr: 0x100005724, symSize: 0x24 }
  - { offsetInCU: 0xB0E3, offset: 0xB0E3, size: 0x8, addend: 0x0, symName: __ZNSt3__127__tree_balance_after_insertB7v160006IPNS_16__tree_node_baseIPvEEEEvT_S5_, symObjAddr: 0x3654, symBinAddr: 0x1000057E8, symSize: 0x32C }
  - { offsetInCU: 0xB15F, offset: 0xB15F, size: 0x8, addend: 0x0, symName: __ZNSt3__120__tree_is_left_childB7v160006IPNS_16__tree_node_baseIPvEEEEbT_, symObjAddr: 0x39C0, symBinAddr: 0x100005B54, symSize: 0x2C }
  - { offsetInCU: 0xB194, offset: 0xB194, size: 0x8, addend: 0x0, symName: __ZNSt3__118__tree_left_rotateB7v160006IPNS_16__tree_node_baseIPvEEEEvT_, symObjAddr: 0x39EC, symBinAddr: 0x100005B80, symSize: 0xD8 }
  - { offsetInCU: 0xB1D6, offset: 0xB1D6, size: 0x8, addend: 0x0, symName: __ZNSt3__119__tree_right_rotateB7v160006IPNS_16__tree_node_baseIPvEEEEvT_, symObjAddr: 0x3AC4, symBinAddr: 0x100005C58, symSize: 0xCC }
  - { offsetInCU: 0xB218, offset: 0xB218, size: 0x8, addend: 0x0, symName: __ZNSt3__110destroy_atB7v160006INS_4pairIKNS_12basic_stringIcNS_11char_traitsIcEENS_9allocatorIcEEEEP7DbTableEELi0EEEvPT_, symObjAddr: 0x3DBC, symBinAddr: 0x100005F50, symSize: 0x24 }
  - { offsetInCU: 0xB24F, offset: 0xB24F, size: 0x8, addend: 0x0, symName: __ZNSt3__112__destroy_atB7v160006INS_4pairIKNS_12basic_stringIcNS_11char_traitsIcEENS_9allocatorIcEEEEP7DbTableEELi0EEEvPT_, symObjAddr: 0x3DE0, symBinAddr: 0x100005F74, symSize: 0x24 }
  - { offsetInCU: 0xB286, offset: 0xB286, size: 0x8, addend: 0x0, symName: __ZNSt3__119__libcpp_deallocateB7v160006EPvmm, symObjAddr: 0x3E9C, symBinAddr: 0x100006030, symSize: 0x60 }
  - { offsetInCU: 0xB2EB, offset: 0xB2EB, size: 0x8, addend: 0x0, symName: __ZNSt3__127__do_deallocate_handle_sizeB7v160006IJSt11align_val_tEEEvPvmDpT_, symObjAddr: 0x3EFC, symBinAddr: 0x100006090, symSize: 0x30 }
  - { offsetInCU: 0xB33E, offset: 0xB33E, size: 0x8, addend: 0x0, symName: __ZNSt3__127__do_deallocate_handle_sizeB7v160006IJEEEvPvmDpT_, symObjAddr: 0x3F2C, symBinAddr: 0x1000060C0, symSize: 0x28 }
  - { offsetInCU: 0xB37C, offset: 0xB37C, size: 0x8, addend: 0x0, symName: __ZNSt3__124__libcpp_operator_deleteB7v160006IJPvSt11align_val_tEEEvDpT_, symObjAddr: 0x3F54, symBinAddr: 0x1000060E8, symSize: 0x2C }
  - { offsetInCU: 0xB3C5, offset: 0xB3C5, size: 0x8, addend: 0x0, symName: __ZNSt3__124__libcpp_operator_deleteB7v160006IJPvEEEvDpT_, symObjAddr: 0x3F80, symBinAddr: 0x100006114, symSize: 0x24 }
  - { offsetInCU: 0xB451, offset: 0xB451, size: 0x8, addend: 0x0, symName: __ZNSt3__17launderB7v160006INS_4pairIKNS_12basic_stringIcNS_11char_traitsIcEENS_9allocatorIcEEEEP7DbTableEEEEPT_SD_, symObjAddr: 0x4100, symBinAddr: 0x100006294, symSize: 0x24 }
  - { offsetInCU: 0xB488, offset: 0xB488, size: 0x8, addend: 0x0, symName: __ZNSt3__19__launderB7v160006INS_4pairIKNS_12basic_stringIcNS_11char_traitsIcEENS_9allocatorIcEEEEP7DbTableEEEEPT_SD_, symObjAddr: 0x4124, symBinAddr: 0x1000062B8, symSize: 0x14 }
  - { offsetInCU: 0xB4F2, offset: 0xB4F2, size: 0x8, addend: 0x0, symName: __ZNSt3__113__tree_removeB7v160006IPNS_16__tree_node_baseIPvEEEEvT_S5_, symObjAddr: 0x4344, symBinAddr: 0x1000064D8, symSize: 0x6E0 }
  - { offsetInCU: 0xB570, offset: 0xB570, size: 0x8, addend: 0x0, symName: __ZNSt3__116__tree_next_iterB7v160006IPNS_15__tree_end_nodeIPNS_16__tree_node_baseIPvEEEES5_EET_T0_, symObjAddr: 0x4A24, symBinAddr: 0x100006BB8, symSize: 0x80 }
  - { offsetInCU: 0xB5AE, offset: 0xB5AE, size: 0x8, addend: 0x0, symName: __ZNSt3__110__tree_minB7v160006IPNS_16__tree_node_baseIPvEEEET_S5_, symObjAddr: 0x4AA4, symBinAddr: 0x100006C38, symSize: 0x40 }
  - { offsetInCU: 0xB5E3, offset: 0xB5E3, size: 0x8, addend: 0x0, symName: __ZNSt3__111__tree_nextB7v160006IPNS_16__tree_node_baseIPvEEEET_S5_, symObjAddr: 0x4AE4, symBinAddr: 0x100006C78, symSize: 0x80 }
  - { offsetInCU: 0xB618, offset: 0xB618, size: 0x8, addend: 0x0, symName: __ZNSt3__1neB7v160006ERKNS_21__tree_const_iteratorINS_12__value_typeINS_12basic_stringIcNS_11char_traitsIcEENS_9allocatorIcEEEEP7DbTableEEPNS_11__tree_nodeISA_PvEElEESH_, symObjAddr: 0x5078, symBinAddr: 0x10000720C, symSize: 0x34 }
  - { offsetInCU: 0xB655, offset: 0xB655, size: 0x8, addend: 0x0, symName: __ZNSt3__1eqB7v160006ERKNS_21__tree_const_iteratorINS_12__value_typeINS_12basic_stringIcNS_11char_traitsIcEENS_9allocatorIcEEEEP7DbTableEEPNS_11__tree_nodeISA_PvEElEESH_, symObjAddr: 0x50AC, symBinAddr: 0x100007240, symSize: 0x30 }
  - { offsetInCU: 0xB783, offset: 0xB783, size: 0x8, addend: 0x0, symName: __ZSt28__throw_bad_array_new_lengthB7v160006v, symObjAddr: 0x3214, symBinAddr: 0x1000053A8, symSize: 0x34 }
  - { offsetInCU: 0xE708, offset: 0xE708, size: 0x8, addend: 0x0, symName: __ZN8Database11CreateTableERKNSt3__112basic_stringIcNS0_11char_traitsIcEENS0_9allocatorIcEEEE, symObjAddr: 0x0, symBinAddr: 0x100002194, symSize: 0xDC }
  - { offsetInCU: 0xE74D, offset: 0xE74D, size: 0x8, addend: 0x0, symName: __ZNSt3__13mapINS_12basic_stringIcNS_11char_traitsIcEENS_9allocatorIcEEEEP7DbTableNS_4lessIS6_EENS4_INS_4pairIKS6_S8_EEEEE4findB7v160006ERSC_, symObjAddr: 0xDC, symBinAddr: 0x100002270, symSize: 0x40 }
  - { offsetInCU: 0xE782, offset: 0xE782, size: 0x8, addend: 0x0, symName: __ZNSt3__13mapINS_12basic_stringIcNS_11char_traitsIcEENS_9allocatorIcEEEEP7DbTableNS_4lessIS6_EENS4_INS_4pairIKS6_S8_EEEEE3endB7v160006Ev, symObjAddr: 0x14C, symBinAddr: 0x1000022E0, symSize: 0x38 }
  - { offsetInCU: 0xE7A8, offset: 0xE7A8, size: 0x8, addend: 0x0, symName: __ZNSt3__113basic_ostreamIcNS_11char_traitsIcEEElsB7v160006EPFRS3_S4_E, symObjAddr: 0x218, symBinAddr: 0x1000023AC, symSize: 0x2C }
  - { offsetInCU: 0xE7DC, offset: 0xE7DC, size: 0x8, addend: 0x0, symName: __ZN7DbTableC1Ev, symObjAddr: 0x29C, symBinAddr: 0x100002430, symSize: 0x2C }
  - { offsetInCU: 0xE806, offset: 0xE806, size: 0x8, addend: 0x0, symName: __ZNSt3__13mapINS_12basic_stringIcNS_11char_traitsIcEENS_9allocatorIcEEEEP7DbTableNS_4lessIS6_EENS4_INS_4pairIKS6_S8_EEEEEixERSC_, symObjAddr: 0x2C8, symBinAddr: 0x10000245C, symSize: 0x80 }
  - { offsetInCU: 0xE83D, offset: 0xE83D, size: 0x8, addend: 0x0, symName: __ZN8Database9DropTableERKNSt3__112basic_stringIcNS0_11char_traitsIcEENS0_9allocatorIcEEEE, symObjAddr: 0x348, symBinAddr: 0x1000024DC, symSize: 0x108 }
  - { offsetInCU: 0xE882, offset: 0xE882, size: 0x8, addend: 0x0, symName: __ZNKSt3__114__map_iteratorINS_15__tree_iteratorINS_12__value_typeINS_12basic_stringIcNS_11char_traitsIcEENS_9allocatorIcEEEEP7DbTableEEPNS_11__tree_nodeISB_PvEElEEEptB7v160006Ev, symObjAddr: 0x480, symBinAddr: 0x100002614, symSize: 0x2C }
  - { offsetInCU: 0xE8A8, offset: 0xE8A8, size: 0x8, addend: 0x0, symName: __ZNSt3__13mapINS_12basic_stringIcNS_11char_traitsIcEENS_9allocatorIcEEEEP7DbTableNS_4lessIS6_EENS4_INS_4pairIKS6_S8_EEEEE5eraseB7v160006ENS_14__map_iteratorINS_15__tree_iteratorINS_12__value_typeIS6_S8_EEPNS_11__tree_nodeISJ_PvEElEEEE, symObjAddr: 0x4AC, symBinAddr: 0x100002640, symSize: 0x5C }
  - { offsetInCU: 0xE8DD, offset: 0xE8DD, size: 0x8, addend: 0x0, symName: __ZN8Database8GetTableERKNSt3__112basic_stringIcNS0_11char_traitsIcEENS0_9allocatorIcEEEE, symObjAddr: 0x508, symBinAddr: 0x10000269C, symSize: 0xA0 }
  - { offsetInCU: 0xE922, offset: 0xE922, size: 0x8, addend: 0x0, symName: __ZN8DatabaseC2ERKS_, symObjAddr: 0x5A8, symBinAddr: 0x10000273C, symSize: 0x174 }
  - { offsetInCU: 0xE9DB, offset: 0xE9DB, size: 0x8, addend: 0x0, symName: __ZNSt3__13mapINS_12basic_stringIcNS_11char_traitsIcEENS_9allocatorIcEEEEP7DbTableNS_4lessIS6_EENS4_INS_4pairIKS6_S8_EEEEEC1B7v160006Ev, symObjAddr: 0x71C, symBinAddr: 0x1000028B0, symSize: 0x2C }
  - { offsetInCU: 0xEA05, offset: 0xEA05, size: 0x8, addend: 0x0, symName: __ZNKSt3__13mapINS_12basic_stringIcNS_11char_traitsIcEENS_9allocatorIcEEEEP7DbTableNS_4lessIS6_EENS4_INS_4pairIKS6_S8_EEEEE5beginB7v160006Ev, symObjAddr: 0x748, symBinAddr: 0x1000028DC, symSize: 0x38 }
  - { offsetInCU: 0xEA2B, offset: 0xEA2B, size: 0x8, addend: 0x0, symName: __ZNKSt3__13mapINS_12basic_stringIcNS_11char_traitsIcEENS_9allocatorIcEEEEP7DbTableNS_4lessIS6_EENS4_INS_4pairIKS6_S8_EEEEE3endB7v160006Ev, symObjAddr: 0x780, symBinAddr: 0x100002914, symSize: 0x38 }
  - { offsetInCU: 0xEA51, offset: 0xEA51, size: 0x8, addend: 0x0, symName: __ZNKSt3__120__map_const_iteratorINS_21__tree_const_iteratorINS_12__value_typeINS_12basic_stringIcNS_11char_traitsIcEENS_9allocatorIcEEEEP7DbTableEEPNS_11__tree_nodeISB_PvEElEEEdeB7v160006Ev, symObjAddr: 0x7E8, symBinAddr: 0x10000297C, symSize: 0x28 }
  - { offsetInCU: 0xEA77, offset: 0xEA77, size: 0x8, addend: 0x0, symName: __ZNSt3__120__map_const_iteratorINS_21__tree_const_iteratorINS_12__value_typeINS_12basic_stringIcNS_11char_traitsIcEENS_9allocatorIcEEEEP7DbTableEEPNS_11__tree_nodeISB_PvEElEEEppB7v160006Ev, symObjAddr: 0x810, symBinAddr: 0x1000029A4, symSize: 0x2C }
  - { offsetInCU: 0xEA9D, offset: 0xEA9D, size: 0x8, addend: 0x0, symName: __ZNSt3__13mapINS_12basic_stringIcNS_11char_traitsIcEENS_9allocatorIcEEEEP7DbTableNS_4lessIS6_EENS4_INS_4pairIKS6_S8_EEEEED1B7v160006Ev, symObjAddr: 0x83C, symBinAddr: 0x1000029D0, symSize: 0x2C }
  - { offsetInCU: 0xEAC7, offset: 0xEAC7, size: 0x8, addend: 0x0, symName: __ZN8DatabaseC1ERKS_, symObjAddr: 0x868, symBinAddr: 0x1000029FC, symSize: 0x34 }
  - { offsetInCU: 0xEB01, offset: 0xEB01, size: 0x8, addend: 0x0, symName: __ZN8DatabaseaSERKS_, symObjAddr: 0x89C, symBinAddr: 0x100002A30, symSize: 0x18C }
  - { offsetInCU: 0xEBCC, offset: 0xEBCC, size: 0x8, addend: 0x0, symName: __ZNSt3__13mapINS_12basic_stringIcNS_11char_traitsIcEENS_9allocatorIcEEEEP7DbTableNS_4lessIS6_EENS4_INS_4pairIKS6_S8_EEEEE5beginB7v160006Ev, symObjAddr: 0xA28, symBinAddr: 0x100002BBC, symSize: 0x38 }
  - { offsetInCU: 0xEBF2, offset: 0xEBF2, size: 0x8, addend: 0x0, symName: __ZNKSt3__114__map_iteratorINS_15__tree_iteratorINS_12__value_typeINS_12basic_stringIcNS_11char_traitsIcEENS_9allocatorIcEEEEP7DbTableEEPNS_11__tree_nodeISB_PvEElEEEdeB7v160006Ev, symObjAddr: 0xA60, symBinAddr: 0x100002BF4, symSize: 0x28 }
  - { offsetInCU: 0xEC18, offset: 0xEC18, size: 0x8, addend: 0x0, symName: __ZNSt3__114__map_iteratorINS_15__tree_iteratorINS_12__value_typeINS_12basic_stringIcNS_11char_traitsIcEENS_9allocatorIcEEEEP7DbTableEEPNS_11__tree_nodeISB_PvEElEEEppB7v160006Ev, symObjAddr: 0xA88, symBinAddr: 0x100002C1C, symSize: 0x2C }
  - { offsetInCU: 0xEC3E, offset: 0xEC3E, size: 0x8, addend: 0x0, symName: __ZNSt3__13mapINS_12basic_stringIcNS_11char_traitsIcEENS_9allocatorIcEEEEP7DbTableNS_4lessIS6_EENS4_INS_4pairIKS6_S8_EEEEE5clearB7v160006Ev, symObjAddr: 0xAB4, symBinAddr: 0x100002C48, symSize: 0x24 }
  - { offsetInCU: 0xEC64, offset: 0xEC64, size: 0x8, addend: 0x0, symName: __ZN8DatabaseD2Ev, symObjAddr: 0xAD8, symBinAddr: 0x100002C6C, symSize: 0xDC }
  - { offsetInCU: 0xECDA, offset: 0xECDA, size: 0x8, addend: 0x0, symName: __ZN8DatabaseD1Ev, symObjAddr: 0xBC0, symBinAddr: 0x100002D54, symSize: 0x2C }
  - { offsetInCU: 0xED05, offset: 0xED05, size: 0x8, addend: 0x0, symName: __ZlsRNSt3__113basic_ostreamIcNS_11char_traitsIcEEEERK8Database, symObjAddr: 0xBEC, symBinAddr: 0x100002D80, symSize: 0xB8 }
  - { offsetInCU: 0xED92, offset: 0xED92, size: 0x8, addend: 0x0, symName: __ZN7DbTableC2Ev, symObjAddr: 0xCA4, symBinAddr: 0x100002E38, symSize: 0x48 }
  - { offsetInCU: 0xEDBC, offset: 0xEDBC, size: 0x8, addend: 0x0, symName: __ZNSt3__13mapIjPPvNS_4lessIjEENS_9allocatorINS_4pairIKjS2_EEEEEC1B7v160006Ev, symObjAddr: 0xCEC, symBinAddr: 0x100002E80, symSize: 0x2C }
  - { offsetInCU: 0xEDE6, offset: 0xEDE6, size: 0x8, addend: 0x0, symName: __ZNSt3__16vectorINS_4pairINS_12basic_stringIcNS_11char_traitsIcEENS_9allocatorIcEEEE8DataTypeEENS5_IS9_EEEC1B7v160006Ev, symObjAddr: 0xD18, symBinAddr: 0x100002EAC, symSize: 0x2C }
  - { offsetInCU: 0xEE10, offset: 0xEE10, size: 0x8, addend: 0x0, symName: __ZNSt3__13mapIjPPvNS_4lessIjEENS_9allocatorINS_4pairIKjS2_EEEEEC2B7v160006Ev, symObjAddr: 0xD44, symBinAddr: 0x100002ED8, symSize: 0x40 }
  - { offsetInCU: 0xEE3A, offset: 0xEE3A, size: 0x8, addend: 0x0, symName: __ZNSt3__119__map_value_compareIjNS_12__value_typeIjPPvEENS_4lessIjEELb1EEC1B7v160006ES6_, symObjAddr: 0xD84, symBinAddr: 0x100002F18, symSize: 0x2C }
  - { offsetInCU: 0xEE73, offset: 0xEE73, size: 0x8, addend: 0x0, symName: __ZNSt3__16__treeINS_12__value_typeIjPPvEENS_19__map_value_compareIjS4_NS_4lessIjEELb1EEENS_9allocatorIS4_EEEC1ERKS8_, symObjAddr: 0xDB0, symBinAddr: 0x100002F44, symSize: 0x34 }
  - { offsetInCU: 0xEEAE, offset: 0xEEAE, size: 0x8, addend: 0x0, symName: __ZNSt3__119__map_value_compareIjNS_12__value_typeIjPPvEENS_4lessIjEELb1EEC2B7v160006ES6_, symObjAddr: 0xDE4, symBinAddr: 0x100002F78, symSize: 0x14 }
  - { offsetInCU: 0xEEE7, offset: 0xEEE7, size: 0x8, addend: 0x0, symName: __ZNSt3__16__treeINS_12__value_typeIjPPvEENS_19__map_value_compareIjS4_NS_4lessIjEELb1EEENS_9allocatorIS4_EEEC2ERKS8_, symObjAddr: 0xDF8, symBinAddr: 0x100002F8C, symSize: 0x7C }
  - { offsetInCU: 0xEF22, offset: 0xEF22, size: 0x8, addend: 0x0, symName: __ZNSt3__117__compressed_pairINS_15__tree_end_nodeIPNS_16__tree_node_baseIPvEEEENS_9allocatorINS_11__tree_nodeINS_12__value_typeIjPS3_EES3_EEEEEC1B7v160006ILb1EvEEv, symObjAddr: 0xE74, symBinAddr: 0x100003008, symSize: 0x2C }
  - { offsetInCU: 0xEF5C, offset: 0xEF5C, size: 0x8, addend: 0x0, symName: __ZNSt3__117__compressed_pairImNS_19__map_value_compareIjNS_12__value_typeIjPPvEENS_4lessIjEELb1EEEEC1B7v160006IiRKS8_EEOT_OT0_, symObjAddr: 0xEA0, symBinAddr: 0x100003034, symSize: 0x3C }
  - { offsetInCU: 0xEFB4, offset: 0xEFB4, size: 0x8, addend: 0x0, symName: __ZNSt3__16__treeINS_12__value_typeIjPPvEENS_19__map_value_compareIjS4_NS_4lessIjEELb1EEENS_9allocatorIS4_EEE10__end_nodeB7v160006Ev, symObjAddr: 0xEDC, symBinAddr: 0x100003070, symSize: 0x2C }
  - { offsetInCU: 0xEFDA, offset: 0xEFDA, size: 0x8, addend: 0x0, symName: __ZNSt3__16__treeINS_12__value_typeIjPPvEENS_19__map_value_compareIjS4_NS_4lessIjEELb1EEENS_9allocatorIS4_EEE12__begin_nodeB7v160006Ev, symObjAddr: 0xF08, symBinAddr: 0x10000309C, symSize: 0x14 }
  - { offsetInCU: 0xF000, offset: 0xF000, size: 0x8, addend: 0x0, symName: __ZNSt3__117__compressed_pairINS_15__tree_end_nodeIPNS_16__tree_node_baseIPvEEEENS_9allocatorINS_11__tree_nodeINS_12__value_typeIjPS3_EES3_EEEEEC2B7v160006ILb1EvEEv, symObjAddr: 0xF1C, symBinAddr: 0x1000030B0, symSize: 0x34 }
  - { offsetInCU: 0xF035, offset: 0xF035, size: 0x8, addend: 0x0, symName: __ZNSt3__122__compressed_pair_elemINS_15__tree_end_nodeIPNS_16__tree_node_baseIPvEEEELi0ELb0EEC2B7v160006ENS_16__value_init_tagE, symObjAddr: 0xF50, symBinAddr: 0x1000030E4, symSize: 0x2C }
  - { offsetInCU: 0xF06A, offset: 0xF06A, size: 0x8, addend: 0x0, symName: __ZNSt3__122__compressed_pair_elemINS_9allocatorINS_11__tree_nodeINS_12__value_typeIjPPvEES4_EEEELi1ELb1EEC2B7v160006ENS_16__value_init_tagE, symObjAddr: 0xF7C, symBinAddr: 0x100003110, symSize: 0x2C }
  - { offsetInCU: 0xF09F, offset: 0xF09F, size: 0x8, addend: 0x0, symName: __ZNSt3__115__tree_end_nodeIPNS_16__tree_node_baseIPvEEEC1B7v160006Ev, symObjAddr: 0xFA8, symBinAddr: 0x10000313C, symSize: 0x2C }
  - { offsetInCU: 0xF0C9, offset: 0xF0C9, size: 0x8, addend: 0x0, symName: __ZNSt3__115__tree_end_nodeIPNS_16__tree_node_baseIPvEEEC2B7v160006Ev, symObjAddr: 0xFD4, symBinAddr: 0x100003168, symSize: 0x18 }
  - { offsetInCU: 0xF0F3, offset: 0xF0F3, size: 0x8, addend: 0x0, symName: __ZNSt3__19allocatorINS_11__tree_nodeINS_12__value_typeIjPPvEES3_EEEC2B7v160006Ev, symObjAddr: 0xFEC, symBinAddr: 0x100003180, symSize: 0x2C }
  - { offsetInCU: 0xF11D, offset: 0xF11D, size: 0x8, addend: 0x0, symName: __ZNSt3__116__non_trivial_ifILb1ENS_9allocatorINS_11__tree_nodeINS_12__value_typeIjPPvEES4_EEEEEC2B7v160006Ev, symObjAddr: 0x1018, symBinAddr: 0x1000031AC, symSize: 0x14 }
  - { offsetInCU: 0xF147, offset: 0xF147, size: 0x8, addend: 0x0, symName: __ZNSt3__117__compressed_pairImNS_19__map_value_compareIjNS_12__value_typeIjPPvEENS_4lessIjEELb1EEEEC2B7v160006IiRKS8_EEOT_OT0_, symObjAddr: 0x102C, symBinAddr: 0x1000031C0, symSize: 0x44 }
  - { offsetInCU: 0xF19F, offset: 0xF19F, size: 0x8, addend: 0x0, symName: __ZNSt3__122__compressed_pair_elemImLi0ELb0EEC2B7v160006IivEEOT_, symObjAddr: 0x1070, symBinAddr: 0x100003204, symSize: 0x24 }
  - { offsetInCU: 0xF1E1, offset: 0xF1E1, size: 0x8, addend: 0x0, symName: __ZNSt3__122__compressed_pair_elemINS_19__map_value_compareIjNS_12__value_typeIjPPvEENS_4lessIjEELb1EEELi1ELb1EEC2B7v160006IRKS8_vEEOT_, symObjAddr: 0x1094, symBinAddr: 0x100003228, symSize: 0x18 }
  - { offsetInCU: 0xF223, offset: 0xF223, size: 0x8, addend: 0x0, symName: __ZNSt3__114pointer_traitsIPNS_15__tree_end_nodeIPNS_16__tree_node_baseIPvEEEEE10pointer_toB7v160006ERS6_, symObjAddr: 0x10AC, symBinAddr: 0x100003240, symSize: 0x14 }
  - { offsetInCU: 0xF246, offset: 0xF246, size: 0x8, addend: 0x0, symName: __ZNSt3__117__compressed_pairINS_15__tree_end_nodeIPNS_16__tree_node_baseIPvEEEENS_9allocatorINS_11__tree_nodeINS_12__value_typeIjPS3_EES3_EEEEE5firstB7v160006Ev, symObjAddr: 0x10C0, symBinAddr: 0x100003254, symSize: 0x24 }
  - { offsetInCU: 0xF26C, offset: 0xF26C, size: 0x8, addend: 0x0, symName: __ZNSt3__122__compressed_pair_elemINS_15__tree_end_nodeIPNS_16__tree_node_baseIPvEEEELi0ELb0EE5__getB7v160006Ev, symObjAddr: 0x10E4, symBinAddr: 0x100003278, symSize: 0x14 }
  - { offsetInCU: 0xF292, offset: 0xF292, size: 0x8, addend: 0x0, symName: __ZNSt3__16vectorINS_4pairINS_12basic_stringIcNS_11char_traitsIcEENS_9allocatorIcEEEE8DataTypeEENS5_IS9_EEEC2B7v160006Ev, symObjAddr: 0x10F8, symBinAddr: 0x10000328C, symSize: 0x58 }
  - { offsetInCU: 0xF2C6, offset: 0xF2C6, size: 0x8, addend: 0x0, symName: __ZNSt3__117__compressed_pairIPNS_4pairINS_12basic_stringIcNS_11char_traitsIcEENS_9allocatorIcEEEE8DataTypeEENS5_IS9_EEEC1B7v160006IDnNS_18__default_init_tagEEEOT_OT0_, symObjAddr: 0x1150, symBinAddr: 0x1000032E4, symSize: 0x3C }
  - { offsetInCU: 0xF31E, offset: 0xF31E, size: 0x8, addend: 0x0, symName: __ZNSt3__117__compressed_pairIPNS_4pairINS_12basic_stringIcNS_11char_traitsIcEENS_9allocatorIcEEEE8DataTypeEENS5_IS9_EEEC2B7v160006IDnNS_18__default_init_tagEEEOT_OT0_, symObjAddr: 0x119C, symBinAddr: 0x100003330, symSize: 0x40 }
  - { offsetInCU: 0xF376, offset: 0xF376, size: 0x8, addend: 0x0, symName: __ZNSt3__122__compressed_pair_elemIPNS_4pairINS_12basic_stringIcNS_11char_traitsIcEENS_9allocatorIcEEEE8DataTypeEELi0ELb0EEC2B7v160006IDnvEEOT_, symObjAddr: 0x11DC, symBinAddr: 0x100003370, symSize: 0x1C }
  - { offsetInCU: 0xF3B8, offset: 0xF3B8, size: 0x8, addend: 0x0, symName: __ZNSt3__122__compressed_pair_elemINS_9allocatorINS_4pairINS_12basic_stringIcNS_11char_traitsIcEENS1_IcEEEE8DataTypeEEEELi1ELb1EEC2B7v160006ENS_18__default_init_tagE, symObjAddr: 0x11F8, symBinAddr: 0x10000338C, symSize: 0x2C }
  - { offsetInCU: 0xF3ED, offset: 0xF3ED, size: 0x8, addend: 0x0, symName: __ZNSt3__19allocatorINS_4pairINS_12basic_stringIcNS_11char_traitsIcEENS0_IcEEEE8DataTypeEEEC2B7v160006Ev, symObjAddr: 0x1224, symBinAddr: 0x1000033B8, symSize: 0x2C }
  - { offsetInCU: 0xF417, offset: 0xF417, size: 0x8, addend: 0x0, symName: __ZNSt3__116__non_trivial_ifILb1ENS_9allocatorINS_4pairINS_12basic_stringIcNS_11char_traitsIcEENS1_IcEEEE8DataTypeEEEEEC2B7v160006Ev, symObjAddr: 0x1250, symBinAddr: 0x1000033E4, symSize: 0x14 }
  - { offsetInCU: 0xF441, offset: 0xF441, size: 0x8, addend: 0x0, symName: __ZNSt3__16__treeINS_12__value_typeINS_12basic_stringIcNS_11char_traitsIcEENS_9allocatorIcEEEEP7DbTableEENS_19__map_value_compareIS7_SA_NS_4lessIS7_EELb1EEENS5_ISA_EEE4findIS7_EENS_15__tree_iteratorISA_PNS_11__tree_nodeISA_PvEElEERKT_, symObjAddr: 0x1264, symBinAddr: 0x1000033F8, symSize: 0xF8 }
  - { offsetInCU: 0xF490, offset: 0xF490, size: 0x8, addend: 0x0, symName: __ZNSt3__114__map_iteratorINS_15__tree_iteratorINS_12__value_typeINS_12basic_stringIcNS_11char_traitsIcEENS_9allocatorIcEEEEP7DbTableEEPNS_11__tree_nodeISB_PvEElEEEC1B7v160006ESG_, symObjAddr: 0x135C, symBinAddr: 0x1000034F0, symSize: 0x34 }
  - { offsetInCU: 0xF4C9, offset: 0xF4C9, size: 0x8, addend: 0x0, symName: __ZNSt3__16__treeINS_12__value_typeINS_12basic_stringIcNS_11char_traitsIcEENS_9allocatorIcEEEEP7DbTableEENS_19__map_value_compareIS7_SA_NS_4lessIS7_EELb1EEENS5_ISA_EEE13__lower_boundIS7_EENS_15__tree_iteratorISA_PNS_11__tree_nodeISA_PvEElEERKT_SM_PNS_15__tree_end_nodeIPNS_16__tree_node_baseISK_EEEE, symObjAddr: 0x1390, symBinAddr: 0x100003524, symSize: 0xA4 }
  - { offsetInCU: 0xF527, offset: 0xF527, size: 0x8, addend: 0x0, symName: __ZNKSt3__16__treeINS_12__value_typeINS_12basic_stringIcNS_11char_traitsIcEENS_9allocatorIcEEEEP7DbTableEENS_19__map_value_compareIS7_SA_NS_4lessIS7_EELb1EEENS5_ISA_EEE6__rootB7v160006Ev, symObjAddr: 0x1434, symBinAddr: 0x1000035C8, symSize: 0x28 }
  - { offsetInCU: 0xF54D, offset: 0xF54D, size: 0x8, addend: 0x0, symName: __ZNSt3__16__treeINS_12__value_typeINS_12basic_stringIcNS_11char_traitsIcEENS_9allocatorIcEEEEP7DbTableEENS_19__map_value_compareIS7_SA_NS_4lessIS7_EELb1EEENS5_ISA_EEE10__end_nodeB7v160006Ev, symObjAddr: 0x145C, symBinAddr: 0x1000035F0, symSize: 0x2C }
  - { offsetInCU: 0xF573, offset: 0xF573, size: 0x8, addend: 0x0, symName: __ZNSt3__16__treeINS_12__value_typeINS_12basic_stringIcNS_11char_traitsIcEENS_9allocatorIcEEEEP7DbTableEENS_19__map_value_compareIS7_SA_NS_4lessIS7_EELb1EEENS5_ISA_EEE3endB7v160006Ev, symObjAddr: 0x14BC, symBinAddr: 0x100003650, symSize: 0x34 }
  - { offsetInCU: 0xF599, offset: 0xF599, size: 0x8, addend: 0x0, symName: __ZNSt3__16__treeINS_12__value_typeINS_12basic_stringIcNS_11char_traitsIcEENS_9allocatorIcEEEEP7DbTableEENS_19__map_value_compareIS7_SA_NS_4lessIS7_EELb1EEENS5_ISA_EEE10value_compB7v160006Ev, symObjAddr: 0x14F0, symBinAddr: 0x100003684, symSize: 0x28 }
  - { offsetInCU: 0xF5BF, offset: 0xF5BF, size: 0x8, addend: 0x0, symName: __ZNKSt3__119__map_value_compareINS_12basic_stringIcNS_11char_traitsIcEENS_9allocatorIcEEEENS_12__value_typeIS6_P7DbTableEENS_4lessIS6_EELb1EEclB7v160006ERKS6_RKSA_, symObjAddr: 0x1518, symBinAddr: 0x1000036AC, symSize: 0x50 }
  - { offsetInCU: 0xF603, offset: 0xF603, size: 0x8, addend: 0x0, symName: __ZNKSt3__115__tree_iteratorINS_12__value_typeINS_12basic_stringIcNS_11char_traitsIcEENS_9allocatorIcEEEEP7DbTableEEPNS_11__tree_nodeISA_PvEElEdeB7v160006Ev, symObjAddr: 0x1568, symBinAddr: 0x1000036FC, symSize: 0x28 }
  - { offsetInCU: 0xF629, offset: 0xF629, size: 0x8, addend: 0x0, symName: __ZNKSt3__119__map_value_compareINS_12basic_stringIcNS_11char_traitsIcEENS_9allocatorIcEEEENS_12__value_typeIS6_P7DbTableEENS_4lessIS6_EELb1EEclB7v160006ERKSA_RKS6_, symObjAddr: 0x1590, symBinAddr: 0x100003724, symSize: 0x48 }
  - { offsetInCU: 0xF66D, offset: 0xF66D, size: 0x8, addend: 0x0, symName: __ZNSt3__115__tree_iteratorINS_12__value_typeINS_12basic_stringIcNS_11char_traitsIcEENS_9allocatorIcEEEEP7DbTableEEPNS_11__tree_nodeISA_PvEElEC1B7v160006EPNS_15__tree_end_nodeIPNS_16__tree_node_baseISC_EEEE, symObjAddr: 0x15D8, symBinAddr: 0x10000376C, symSize: 0x34 }
  - { offsetInCU: 0xF6A6, offset: 0xF6A6, size: 0x8, addend: 0x0, symName: __ZNKSt3__14lessINS_12basic_stringIcNS_11char_traitsIcEENS_9allocatorIcEEEEEclB7v160006ERKS6_S9_, symObjAddr: 0x160C, symBinAddr: 0x1000037A0, symSize: 0x50 }
  - { offsetInCU: 0xF6EA, offset: 0xF6EA, size: 0x8, addend: 0x0, symName: __ZNKSt3__112__value_typeINS_12basic_stringIcNS_11char_traitsIcEENS_9allocatorIcEEEEP7DbTableE11__get_valueB7v160006Ev, symObjAddr: 0x165C, symBinAddr: 0x1000037F0, symSize: 0x24 }
  - { offsetInCU: 0xF71F, offset: 0xF71F, size: 0x8, addend: 0x0, symName: __ZNSt3__120_CmpUnspecifiedParamC1B7v160006EMS0_i, symObjAddr: 0x1700, symBinAddr: 0x100003894, symSize: 0x34 }
  - { offsetInCU: 0xF754, offset: 0xF754, size: 0x8, addend: 0x0, symName: __ZNKSt3__112basic_stringIcNS_11char_traitsIcEENS_9allocatorIcEEEcvNS_17basic_string_viewIcS2_EEB7v160006Ev, symObjAddr: 0x17B0, symBinAddr: 0x100003944, symSize: 0x50 }
  - { offsetInCU: 0xF77A, offset: 0xF77A, size: 0x8, addend: 0x0, symName: __ZNKSt3__117basic_string_viewIcNS_11char_traitsIcEEE7compareES3_, symObjAddr: 0x1800, symBinAddr: 0x100003994, symSize: 0x13C }
  - { offsetInCU: 0xF7CD, offset: 0xF7CD, size: 0x8, addend: 0x0, symName: __ZNKSt3__117basic_string_viewIcNS_11char_traitsIcEEE4sizeB7v160006Ev, symObjAddr: 0x1968, symBinAddr: 0x100003AFC, symSize: 0x18 }
  - { offsetInCU: 0xF7F3, offset: 0xF7F3, size: 0x8, addend: 0x0, symName: __ZNSt3__111char_traitsIcE7compareEPKcS3_m, symObjAddr: 0x1980, symBinAddr: 0x100003B14, symSize: 0x6C }
  - { offsetInCU: 0xF832, offset: 0xF832, size: 0x8, addend: 0x0, symName: __ZNKSt3__117basic_string_viewIcNS_11char_traitsIcEEE4dataB7v160006Ev, symObjAddr: 0x19EC, symBinAddr: 0x100003B80, symSize: 0x18 }
  - { offsetInCU: 0xF862, offset: 0xF862, size: 0x8, addend: 0x0, symName: __ZNKSt3__16__lessImmEclB7v160006ERKmS3_, symObjAddr: 0x1A58, symBinAddr: 0x100003BEC, symSize: 0x34 }
  - { offsetInCU: 0xF8A4, offset: 0xF8A4, size: 0x8, addend: 0x0, symName: __ZNKSt3__112basic_stringIcNS_11char_traitsIcEENS_9allocatorIcEEE4dataB7v160006Ev, symObjAddr: 0x1AC0, symBinAddr: 0x100003C54, symSize: 0x28 }
  - { offsetInCU: 0xF8CA, offset: 0xF8CA, size: 0x8, addend: 0x0, symName: __ZNKSt3__112basic_stringIcNS_11char_traitsIcEENS_9allocatorIcEEE4sizeB7v160006Ev, symObjAddr: 0x1AE8, symBinAddr: 0x100003C7C, symSize: 0x54 }
  - { offsetInCU: 0xF8F0, offset: 0xF8F0, size: 0x8, addend: 0x0, symName: __ZNSt3__117basic_string_viewIcNS_11char_traitsIcEEEC1B7v160006EPKcm, symObjAddr: 0x1B3C, symBinAddr: 0x100003CD0, symSize: 0x3C }
  - { offsetInCU: 0xF938, offset: 0xF938, size: 0x8, addend: 0x0, symName: __ZNKSt3__112basic_stringIcNS_11char_traitsIcEENS_9allocatorIcEEE13__get_pointerB7v160006Ev, symObjAddr: 0x1B8C, symBinAddr: 0x100003D20, symSize: 0x54 }
  - { offsetInCU: 0xF95E, offset: 0xF95E, size: 0x8, addend: 0x0, symName: __ZNKSt3__112basic_stringIcNS_11char_traitsIcEENS_9allocatorIcEEE9__is_longB7v160006Ev, symObjAddr: 0x1BE0, symBinAddr: 0x100003D74, symSize: 0x38 }
  - { offsetInCU: 0xF984, offset: 0xF984, size: 0x8, addend: 0x0, symName: __ZNKSt3__112basic_stringIcNS_11char_traitsIcEENS_9allocatorIcEEE18__get_long_pointerB7v160006Ev, symObjAddr: 0x1C18, symBinAddr: 0x100003DAC, symSize: 0x28 }
  - { offsetInCU: 0xF9AA, offset: 0xF9AA, size: 0x8, addend: 0x0, symName: __ZNKSt3__112basic_stringIcNS_11char_traitsIcEENS_9allocatorIcEEE19__get_short_pointerB7v160006Ev, symObjAddr: 0x1C40, symBinAddr: 0x100003DD4, symSize: 0x28 }
  - { offsetInCU: 0xF9D0, offset: 0xF9D0, size: 0x8, addend: 0x0, symName: __ZNKSt3__117__compressed_pairINS_12basic_stringIcNS_11char_traitsIcEENS_9allocatorIcEEE5__repES5_E5firstB7v160006Ev, symObjAddr: 0x1C68, symBinAddr: 0x100003DFC, symSize: 0x24 }
  - { offsetInCU: 0xF9F6, offset: 0xF9F6, size: 0x8, addend: 0x0, symName: __ZNKSt3__122__compressed_pair_elemINS_12basic_stringIcNS_11char_traitsIcEENS_9allocatorIcEEE5__repELi0ELb0EE5__getB7v160006Ev, symObjAddr: 0x1C8C, symBinAddr: 0x100003E20, symSize: 0x14 }
  - { offsetInCU: 0xFA1C, offset: 0xFA1C, size: 0x8, addend: 0x0, symName: __ZNSt3__114pointer_traitsIPKcE10pointer_toB7v160006ERS1_, symObjAddr: 0x1CA0, symBinAddr: 0x100003E34, symSize: 0x14 }
  - { offsetInCU: 0xFA3F, offset: 0xFA3F, size: 0x8, addend: 0x0, symName: __ZNKSt3__112basic_stringIcNS_11char_traitsIcEENS_9allocatorIcEEE15__get_long_sizeB7v160006Ev, symObjAddr: 0x1CB4, symBinAddr: 0x100003E48, symSize: 0x28 }
  - { offsetInCU: 0xFA65, offset: 0xFA65, size: 0x8, addend: 0x0, symName: __ZNKSt3__112basic_stringIcNS_11char_traitsIcEENS_9allocatorIcEEE16__get_short_sizeB7v160006Ev, symObjAddr: 0x1CDC, symBinAddr: 0x100003E70, symSize: 0x34 }
  - { offsetInCU: 0xFA8B, offset: 0xFA8B, size: 0x8, addend: 0x0, symName: __ZNSt3__117basic_string_viewIcNS_11char_traitsIcEEEC2B7v160006EPKcm, symObjAddr: 0x1D10, symBinAddr: 0x100003EA4, symSize: 0x50 }
  - { offsetInCU: 0xFAD3, offset: 0xFAD3, size: 0x8, addend: 0x0, symName: __ZNSt3__120_CmpUnspecifiedParamC2B7v160006EMS0_i, symObjAddr: 0x1D60, symBinAddr: 0x100003EF4, symSize: 0x18 }
  - { offsetInCU: 0xFB08, offset: 0xFB08, size: 0x8, addend: 0x0, symName: __ZNSt3__115__tree_iteratorINS_12__value_typeINS_12basic_stringIcNS_11char_traitsIcEENS_9allocatorIcEEEEP7DbTableEEPNS_11__tree_nodeISA_PvEElEC2B7v160006EPNS_15__tree_end_nodeIPNS_16__tree_node_baseISC_EEEE, symObjAddr: 0x1DB0, symBinAddr: 0x100003F44, symSize: 0x20 }
  - { offsetInCU: 0xFB41, offset: 0xFB41, size: 0x8, addend: 0x0, symName: __ZNKSt3__16__treeINS_12__value_typeINS_12basic_stringIcNS_11char_traitsIcEENS_9allocatorIcEEEEP7DbTableEENS_19__map_value_compareIS7_SA_NS_4lessIS7_EELb1EEENS5_ISA_EEE10__end_nodeB7v160006Ev, symObjAddr: 0x1DD0, symBinAddr: 0x100003F64, symSize: 0x2C }
  - { offsetInCU: 0xFB67, offset: 0xFB67, size: 0x8, addend: 0x0, symName: __ZNKSt3__117__compressed_pairINS_15__tree_end_nodeIPNS_16__tree_node_baseIPvEEEENS_9allocatorINS_11__tree_nodeINS_12__value_typeINS_12basic_stringIcNS_11char_traitsIcEENS7_IcEEEEP7DbTableEES3_EEEEE5firstB7v160006Ev, symObjAddr: 0x1DFC, symBinAddr: 0x100003F90, symSize: 0x24 }
  - { offsetInCU: 0xFB8D, offset: 0xFB8D, size: 0x8, addend: 0x0, symName: __ZNKSt3__122__compressed_pair_elemINS_15__tree_end_nodeIPNS_16__tree_node_baseIPvEEEELi0ELb0EE5__getB7v160006Ev, symObjAddr: 0x1E20, symBinAddr: 0x100003FB4, symSize: 0x14 }
  - { offsetInCU: 0xFBB3, offset: 0xFBB3, size: 0x8, addend: 0x0, symName: __ZNSt3__117__compressed_pairINS_15__tree_end_nodeIPNS_16__tree_node_baseIPvEEEENS_9allocatorINS_11__tree_nodeINS_12__value_typeINS_12basic_stringIcNS_11char_traitsIcEENS7_IcEEEEP7DbTableEES3_EEEEE5firstB7v160006Ev, symObjAddr: 0x1E34, symBinAddr: 0x100003FC8, symSize: 0x24 }
  - { offsetInCU: 0xFBD9, offset: 0xFBD9, size: 0x8, addend: 0x0, symName: __ZNSt3__117__compressed_pairImNS_19__map_value_compareINS_12basic_stringIcNS_11char_traitsIcEENS_9allocatorIcEEEENS_12__value_typeIS7_P7DbTableEENS_4lessIS7_EELb1EEEE6secondB7v160006Ev, symObjAddr: 0x1E88, symBinAddr: 0x10000401C, symSize: 0x24 }
  - { offsetInCU: 0xFBFF, offset: 0xFBFF, size: 0x8, addend: 0x0, symName: __ZNSt3__122__compressed_pair_elemINS_19__map_value_compareINS_12basic_stringIcNS_11char_traitsIcEENS_9allocatorIcEEEENS_12__value_typeIS7_P7DbTableEENS_4lessIS7_EELb1EEELi1ELb1EE5__getB7v160006Ev, symObjAddr: 0x1EAC, symBinAddr: 0x100004040, symSize: 0x14 }
  - { offsetInCU: 0xFC25, offset: 0xFC25, size: 0x8, addend: 0x0, symName: __ZNKSt3__115__tree_iteratorINS_12__value_typeINS_12basic_stringIcNS_11char_traitsIcEENS_9allocatorIcEEEEP7DbTableEEPNS_11__tree_nodeISA_PvEElE8__get_npB7v160006Ev, symObjAddr: 0x1EC0, symBinAddr: 0x100004054, symSize: 0x18 }
  - { offsetInCU: 0xFC4B, offset: 0xFC4B, size: 0x8, addend: 0x0, symName: __ZNSt3__114__map_iteratorINS_15__tree_iteratorINS_12__value_typeINS_12basic_stringIcNS_11char_traitsIcEENS_9allocatorIcEEEEP7DbTableEEPNS_11__tree_nodeISB_PvEElEEEC2B7v160006ESG_, symObjAddr: 0x1ED8, symBinAddr: 0x10000406C, symSize: 0x20 }
  - { offsetInCU: 0xFC84, offset: 0xFC84, size: 0x8, addend: 0x0, symName: __ZNSt3__111char_traitsIcE6lengthEPKc, symObjAddr: 0x20E4, symBinAddr: 0x100004278, symSize: 0x34 }
  - { offsetInCU: 0xFCC5, offset: 0xFCC5, size: 0x8, addend: 0x0, symName: __ZNKSt3__113basic_ostreamIcNS_11char_traitsIcEEE6sentrycvbB7v160006Ev, symObjAddr: 0x2118, symBinAddr: 0x1000042AC, symSize: 0x1C }
  - { offsetInCU: 0xFCEB, offset: 0xFCEB, size: 0x8, addend: 0x0, symName: __ZNSt3__119ostreambuf_iteratorIcNS_11char_traitsIcEEEC1B7v160006ERNS_13basic_ostreamIcS2_EE, symObjAddr: 0x2374, symBinAddr: 0x100004508, symSize: 0x34 }
  - { offsetInCU: 0xFD23, offset: 0xFD23, size: 0x8, addend: 0x0, symName: __ZNKSt3__18ios_base5flagsB7v160006Ev, symObjAddr: 0x23A8, symBinAddr: 0x10000453C, symSize: 0x18 }
  - { offsetInCU: 0xFD4B, offset: 0xFD4B, size: 0x8, addend: 0x0, symName: __ZNKSt3__19basic_iosIcNS_11char_traitsIcEEE4fillB7v160006Ev, symObjAddr: 0x23C0, symBinAddr: 0x100004554, symSize: 0x64 }
  - { offsetInCU: 0xFD73, offset: 0xFD73, size: 0x8, addend: 0x0, symName: __ZNKSt3__119ostreambuf_iteratorIcNS_11char_traitsIcEEE6failedB7v160006Ev, symObjAddr: 0x2424, symBinAddr: 0x1000045B8, symSize: 0x24 }
  - { offsetInCU: 0xFD99, offset: 0xFD99, size: 0x8, addend: 0x0, symName: __ZNSt3__19basic_iosIcNS_11char_traitsIcEEE8setstateB7v160006Ej, symObjAddr: 0x2448, symBinAddr: 0x1000045DC, symSize: 0x2C }
  - { offsetInCU: 0xFDCE, offset: 0xFDCE, size: 0x8, addend: 0x0, symName: __ZNKSt3__18ios_base5widthB7v160006Ev, symObjAddr: 0x2474, symBinAddr: 0x100004608, symSize: 0x18 }
  - { offsetInCU: 0xFDF6, offset: 0xFDF6, size: 0x8, addend: 0x0, symName: __ZNSt3__115basic_streambufIcNS_11char_traitsIcEEE5sputnB7v160006EPKcl, symObjAddr: 0x248C, symBinAddr: 0x100004620, symSize: 0x3C }
  - { offsetInCU: 0xFE38, offset: 0xFE38, size: 0x8, addend: 0x0, symName: __ZNSt3__112basic_stringIcNS_11char_traitsIcEENS_9allocatorIcEEEC1B7v160006Emc, symObjAddr: 0x24C8, symBinAddr: 0x10000465C, symSize: 0x3C }
  - { offsetInCU: 0xFE80, offset: 0xFE80, size: 0x8, addend: 0x0, symName: __ZNSt3__112basic_stringIcNS_11char_traitsIcEENS_9allocatorIcEEE4dataB7v160006Ev, symObjAddr: 0x2504, symBinAddr: 0x100004698, symSize: 0x28 }
  - { offsetInCU: 0xFEA6, offset: 0xFEA6, size: 0x8, addend: 0x0, symName: __ZNSt3__18ios_base5widthB7v160006El, symObjAddr: 0x252C, symBinAddr: 0x1000046C0, symSize: 0x2C }
  - { offsetInCU: 0xFEEC, offset: 0xFEEC, size: 0x8, addend: 0x0, symName: __ZNSt3__112basic_stringIcNS_11char_traitsIcEENS_9allocatorIcEEEC2B7v160006Emc, symObjAddr: 0x2558, symBinAddr: 0x1000046EC, symSize: 0x54 }
  - { offsetInCU: 0xFF34, offset: 0xFF34, size: 0x8, addend: 0x0, symName: __ZNSt3__117__compressed_pairINS_12basic_stringIcNS_11char_traitsIcEENS_9allocatorIcEEE5__repES5_EC1B7v160006INS_18__default_init_tagESA_EEOT_OT0_, symObjAddr: 0x25AC, symBinAddr: 0x100004740, symSize: 0x3C }
  - { offsetInCU: 0xFF8C, offset: 0xFF8C, size: 0x8, addend: 0x0, symName: __ZNSt3__117__compressed_pairINS_12basic_stringIcNS_11char_traitsIcEENS_9allocatorIcEEE5__repES5_EC2B7v160006INS_18__default_init_tagESA_EEOT_OT0_, symObjAddr: 0x25F8, symBinAddr: 0x10000478C, symSize: 0x3C }
  - { offsetInCU: 0xFFE4, offset: 0xFFE4, size: 0x8, addend: 0x0, symName: __ZNSt3__122__compressed_pair_elemINS_12basic_stringIcNS_11char_traitsIcEENS_9allocatorIcEEE5__repELi0ELb0EEC2B7v160006ENS_18__default_init_tagE, symObjAddr: 0x2634, symBinAddr: 0x1000047C8, symSize: 0x14 }
  - { offsetInCU: 0x10019, offset: 0x10019, size: 0x8, addend: 0x0, symName: __ZNSt3__122__compressed_pair_elemINS_9allocatorIcEELi1ELb1EEC2B7v160006ENS_18__default_init_tagE, symObjAddr: 0x2648, symBinAddr: 0x1000047DC, symSize: 0x2C }
  - { offsetInCU: 0x1004E, offset: 0x1004E, size: 0x8, addend: 0x0, symName: __ZNSt3__19allocatorIcEC2B7v160006Ev, symObjAddr: 0x2674, symBinAddr: 0x100004808, symSize: 0x2C }
  - { offsetInCU: 0x10078, offset: 0x10078, size: 0x8, addend: 0x0, symName: __ZNSt3__116__non_trivial_ifILb1ENS_9allocatorIcEEEC2B7v160006Ev, symObjAddr: 0x26A0, symBinAddr: 0x100004834, symSize: 0x14 }
  - { offsetInCU: 0x100A2, offset: 0x100A2, size: 0x8, addend: 0x0, symName: __ZNSt3__112basic_stringIcNS_11char_traitsIcEENS_9allocatorIcEEE13__get_pointerB7v160006Ev, symObjAddr: 0x26C8, symBinAddr: 0x10000485C, symSize: 0x54 }
  - { offsetInCU: 0x100C8, offset: 0x100C8, size: 0x8, addend: 0x0, symName: __ZNSt3__112basic_stringIcNS_11char_traitsIcEENS_9allocatorIcEEE18__get_long_pointerB7v160006Ev, symObjAddr: 0x271C, symBinAddr: 0x1000048B0, symSize: 0x28 }
  - { offsetInCU: 0x100EE, offset: 0x100EE, size: 0x8, addend: 0x0, symName: __ZNSt3__112basic_stringIcNS_11char_traitsIcEENS_9allocatorIcEEE19__get_short_pointerB7v160006Ev, symObjAddr: 0x2744, symBinAddr: 0x1000048D8, symSize: 0x28 }
  - { offsetInCU: 0x10114, offset: 0x10114, size: 0x8, addend: 0x0, symName: __ZNSt3__117__compressed_pairINS_12basic_stringIcNS_11char_traitsIcEENS_9allocatorIcEEE5__repES5_E5firstB7v160006Ev, symObjAddr: 0x276C, symBinAddr: 0x100004900, symSize: 0x24 }
  - { offsetInCU: 0x1013A, offset: 0x1013A, size: 0x8, addend: 0x0, symName: __ZNSt3__122__compressed_pair_elemINS_12basic_stringIcNS_11char_traitsIcEENS_9allocatorIcEEE5__repELi0ELb0EE5__getB7v160006Ev, symObjAddr: 0x2790, symBinAddr: 0x100004924, symSize: 0x14 }
  - { offsetInCU: 0x10160, offset: 0x10160, size: 0x8, addend: 0x0, symName: __ZNSt3__114pointer_traitsIPcE10pointer_toB7v160006ERc, symObjAddr: 0x27A4, symBinAddr: 0x100004938, symSize: 0x14 }
  - { offsetInCU: 0x10183, offset: 0x10183, size: 0x8, addend: 0x0, symName: __ZNSt3__119ostreambuf_iteratorIcNS_11char_traitsIcEEEC2B7v160006ERNS_13basic_ostreamIcS2_EE, symObjAddr: 0x27B8, symBinAddr: 0x10000494C, symSize: 0x54 }
  - { offsetInCU: 0x101BB, offset: 0x101BB, size: 0x8, addend: 0x0, symName: __ZNKSt3__19basic_iosIcNS_11char_traitsIcEEE5rdbufB7v160006Ev, symObjAddr: 0x280C, symBinAddr: 0x1000049A0, symSize: 0x24 }
  - { offsetInCU: 0x101E3, offset: 0x101E3, size: 0x8, addend: 0x0, symName: __ZNKSt3__18ios_base5rdbufB7v160006Ev, symObjAddr: 0x2830, symBinAddr: 0x1000049C4, symSize: 0x18 }
  - { offsetInCU: 0x10209, offset: 0x10209, size: 0x8, addend: 0x0, symName: __ZNSt3__111char_traitsIcE11eq_int_typeEii, symObjAddr: 0x2848, symBinAddr: 0x1000049DC, symSize: 0x28 }
  - { offsetInCU: 0x1023A, offset: 0x1023A, size: 0x8, addend: 0x0, symName: __ZNSt3__111char_traitsIcE3eofEv, symObjAddr: 0x2870, symBinAddr: 0x100004A04, symSize: 0x8 }
  - { offsetInCU: 0x1024E, offset: 0x1024E, size: 0x8, addend: 0x0, symName: __ZNKSt3__19basic_iosIcNS_11char_traitsIcEEE5widenB7v160006Ec, symObjAddr: 0x2878, symBinAddr: 0x100004A0C, symSize: 0x84 }
  - { offsetInCU: 0x102BC, offset: 0x102BC, size: 0x8, addend: 0x0, symName: __ZNKSt3__15ctypeIcE5widenB7v160006Ec, symObjAddr: 0x2928, symBinAddr: 0x100004ABC, symSize: 0x38 }
  - { offsetInCU: 0x102F1, offset: 0x102F1, size: 0x8, addend: 0x0, symName: __ZNSt3__18ios_base8setstateB7v160006Ej, symObjAddr: 0x2960, symBinAddr: 0x100004AF4, symSize: 0x34 }
  - { offsetInCU: 0x1033C, offset: 0x1033C, size: 0x8, addend: 0x0, symName: __ZNSt3__16__treeINS_12__value_typeINS_12basic_stringIcNS_11char_traitsIcEENS_9allocatorIcEEEEP7DbTableEENS_19__map_value_compareIS7_SA_NS_4lessIS7_EELb1EEENS5_ISA_EEE25__emplace_unique_key_argsIS7_JRKNS_21piecewise_construct_tENS_5tupleIJRKS7_EEENSL_IJEEEEEENS_4pairINS_15__tree_iteratorISA_PNS_11__tree_nodeISA_PvEElEEbEERKT_DpOT0_, symObjAddr: 0x29B8, symBinAddr: 0x100004B4C, symSize: 0x100 }
  - { offsetInCU: 0x10412, offset: 0x10412, size: 0x8, addend: 0x0, symName: __ZNKSt3__115__tree_iteratorINS_12__value_typeINS_12basic_stringIcNS_11char_traitsIcEENS_9allocatorIcEEEEP7DbTableEEPNS_11__tree_nodeISA_PvEElEptB7v160006Ev, symObjAddr: 0x2AE8, symBinAddr: 0x100004C7C, symSize: 0x2C }
  - { offsetInCU: 0x10438, offset: 0x10438, size: 0x8, addend: 0x0, symName: __ZNSt3__112__value_typeINS_12basic_stringIcNS_11char_traitsIcEENS_9allocatorIcEEEEP7DbTableE11__get_valueB7v160006Ev, symObjAddr: 0x2B14, symBinAddr: 0x100004CA8, symSize: 0x24 }
  - { offsetInCU: 0x1045E, offset: 0x1045E, size: 0x8, addend: 0x0, symName: __ZNSt3__16__treeINS_12__value_typeINS_12basic_stringIcNS_11char_traitsIcEENS_9allocatorIcEEEEP7DbTableEENS_19__map_value_compareIS7_SA_NS_4lessIS7_EELb1EEENS5_ISA_EEE12__find_equalIS7_EERPNS_16__tree_node_baseIPvEERPNS_15__tree_end_nodeISL_EERKT_, symObjAddr: 0x2B38, symBinAddr: 0x100004CCC, symSize: 0x184 }
  - { offsetInCU: 0x104CB, offset: 0x104CB, size: 0x8, addend: 0x0, symName: __ZNSt3__16__treeINS_12__value_typeINS_12basic_stringIcNS_11char_traitsIcEENS_9allocatorIcEEEEP7DbTableEENS_19__map_value_compareIS7_SA_NS_4lessIS7_EELb1EEENS5_ISA_EEE16__construct_nodeIJRKNS_21piecewise_construct_tENS_5tupleIJRKS7_EEENSL_IJEEEEEENS_10unique_ptrINS_11__tree_nodeISA_PvEENS_22__tree_node_destructorINS5_IST_EEEEEEDpOT_, symObjAddr: 0x2CBC, symBinAddr: 0x100004E50, symSize: 0x120 }
  - { offsetInCU: 0x10554, offset: 0x10554, size: 0x8, addend: 0x0, symName: __ZNSt3__16__treeINS_12__value_typeINS_12basic_stringIcNS_11char_traitsIcEENS_9allocatorIcEEEEP7DbTableEENS_19__map_value_compareIS7_SA_NS_4lessIS7_EELb1EEENS5_ISA_EEE16__insert_node_atEPNS_15__tree_end_nodeIPNS_16__tree_node_baseIPvEEEERSL_SL_, symObjAddr: 0x2DDC, symBinAddr: 0x100004F70, symSize: 0xCC }
  - { offsetInCU: 0x105A9, offset: 0x105A9, size: 0x8, addend: 0x0, symName: __ZNKSt3__110unique_ptrINS_11__tree_nodeINS_12__value_typeINS_12basic_stringIcNS_11char_traitsIcEENS_9allocatorIcEEEEP7DbTableEEPvEENS_22__tree_node_destructorINS6_ISD_EEEEE3getB7v160006Ev, symObjAddr: 0x2EA8, symBinAddr: 0x10000503C, symSize: 0x28 }
  - { offsetInCU: 0x105CF, offset: 0x105CF, size: 0x8, addend: 0x0, symName: __ZNSt3__110unique_ptrINS_11__tree_nodeINS_12__value_typeINS_12basic_stringIcNS_11char_traitsIcEENS_9allocatorIcEEEEP7DbTableEEPvEENS_22__tree_node_destructorINS6_ISD_EEEEE7releaseB7v160006Ev, symObjAddr: 0x2ED0, symBinAddr: 0x100005064, symSize: 0x44 }
  - { offsetInCU: 0x10604, offset: 0x10604, size: 0x8, addend: 0x0, symName: __ZNSt3__110unique_ptrINS_11__tree_nodeINS_12__value_typeINS_12basic_stringIcNS_11char_traitsIcEENS_9allocatorIcEEEEP7DbTableEEPvEENS_22__tree_node_destructorINS6_ISD_EEEEED1B7v160006Ev, symObjAddr: 0x2F14, symBinAddr: 0x1000050A8, symSize: 0x2C }
  - { offsetInCU: 0x1062E, offset: 0x1062E, size: 0x8, addend: 0x0, symName: __ZNSt3__115__tree_iteratorINS_12__value_typeINS_12basic_stringIcNS_11char_traitsIcEENS_9allocatorIcEEEEP7DbTableEEPNS_11__tree_nodeISA_PvEElEC1B7v160006ESE_, symObjAddr: 0x2F40, symBinAddr: 0x1000050D4, symSize: 0x34 }
  - { offsetInCU: 0x10671, offset: 0x10671, size: 0x8, addend: 0x0, symName: __ZNSt3__14pairINS_15__tree_iteratorINS_12__value_typeINS_12basic_stringIcNS_11char_traitsIcEENS_9allocatorIcEEEEP7DbTableEEPNS_11__tree_nodeISB_PvEElEEbEC1B7v160006ISG_RbLSD_0EEEOT_OT0_, symObjAddr: 0x2F74, symBinAddr: 0x100005108, symSize: 0x3C }
  - { offsetInCU: 0x106CF, offset: 0x106CF, size: 0x8, addend: 0x0, symName: __ZNKSt3__16__treeINS_12__value_typeINS_12basic_stringIcNS_11char_traitsIcEENS_9allocatorIcEEEEP7DbTableEENS_19__map_value_compareIS7_SA_NS_4lessIS7_EELb1EEENS5_ISA_EEE10__root_ptrEv, symObjAddr: 0x2FB0, symBinAddr: 0x100005144, symSize: 0x24 }
  - { offsetInCU: 0x106F5, offset: 0x106F5, size: 0x8, addend: 0x0, symName: __ZNSt3__16__treeINS_12__value_typeINS_12basic_stringIcNS_11char_traitsIcEENS_9allocatorIcEEEEP7DbTableEENS_19__map_value_compareIS7_SA_NS_4lessIS7_EELb1EEENS5_ISA_EEE12__node_allocB7v160006Ev, symObjAddr: 0x2FD4, symBinAddr: 0x100005168, symSize: 0x28 }
  - { offsetInCU: 0x1071B, offset: 0x1071B, size: 0x8, addend: 0x0, symName: __ZNSt3__116allocator_traitsINS_9allocatorINS_11__tree_nodeINS_12__value_typeINS_12basic_stringIcNS_11char_traitsIcEENS1_IcEEEEP7DbTableEEPvEEEEE8allocateB7v160006ERSE_m, symObjAddr: 0x2FFC, symBinAddr: 0x100005190, symSize: 0x2C }
  - { offsetInCU: 0x1074E, offset: 0x1074E, size: 0x8, addend: 0x0, symName: __ZNSt3__122__tree_node_destructorINS_9allocatorINS_11__tree_nodeINS_12__value_typeINS_12basic_stringIcNS_11char_traitsIcEENS1_IcEEEEP7DbTableEEPvEEEEEC1B7v160006ERSE_b, symObjAddr: 0x3028, symBinAddr: 0x1000051BC, symSize: 0x48 }
  - { offsetInCU: 0x1079B, offset: 0x1079B, size: 0x8, addend: 0x0, symName: __ZNSt3__110unique_ptrINS_11__tree_nodeINS_12__value_typeINS_12basic_stringIcNS_11char_traitsIcEENS_9allocatorIcEEEEP7DbTableEEPvEENS_22__tree_node_destructorINS6_ISD_EEEEEC1B7v160006ILb1EvEEPSD_NS_16__dependent_typeINS_27__unique_ptr_deleter_sfinaeISG_EEXT_EE20__good_rval_ref_typeE, symObjAddr: 0x3070, symBinAddr: 0x100005204, symSize: 0x3C }
  - { offsetInCU: 0x107EC, offset: 0x107EC, size: 0x8, addend: 0x0, symName: __ZNSt3__116allocator_traitsINS_9allocatorINS_11__tree_nodeINS_12__value_typeINS_12basic_stringIcNS_11char_traitsIcEENS1_IcEEEEP7DbTableEEPvEEEEE9constructB7v160006INS_4pairIKS8_SA_EEJRKNS_21piecewise_construct_tENS_5tupleIJRSI_EEENSN_IJEEEEvvEEvRSE_PT_DpOT0_, symObjAddr: 0x30AC, symBinAddr: 0x100005240, symSize: 0x40 }
  - { offsetInCU: 0x10868, offset: 0x10868, size: 0x8, addend: 0x0, symName: __ZNSt3__122__tree_key_value_typesINS_12__value_typeINS_12basic_stringIcNS_11char_traitsIcEENS_9allocatorIcEEEEP7DbTableEEE9__get_ptrB7v160006ERSA_, symObjAddr: 0x30EC, symBinAddr: 0x100005280, symSize: 0x24 }
  - { offsetInCU: 0x1088C, offset: 0x1088C, size: 0x8, addend: 0x0, symName: __ZNKSt3__110unique_ptrINS_11__tree_nodeINS_12__value_typeINS_12basic_stringIcNS_11char_traitsIcEENS_9allocatorIcEEEEP7DbTableEEPvEENS_22__tree_node_destructorINS6_ISD_EEEEEptB7v160006Ev, symObjAddr: 0x3110, symBinAddr: 0x1000052A4, symSize: 0x28 }
  - { offsetInCU: 0x108B2, offset: 0x108B2, size: 0x8, addend: 0x0, symName: __ZNSt3__110unique_ptrINS_11__tree_nodeINS_12__value_typeINS_12basic_stringIcNS_11char_traitsIcEENS_9allocatorIcEEEEP7DbTableEEPvEENS_22__tree_node_destructorINS6_ISD_EEEEE11get_deleterB7v160006Ev, symObjAddr: 0x3138, symBinAddr: 0x1000052CC, symSize: 0x24 }
  - { offsetInCU: 0x108D8, offset: 0x108D8, size: 0x8, addend: 0x0, symName: __ZNSt3__117__compressed_pairINS_15__tree_end_nodeIPNS_16__tree_node_baseIPvEEEENS_9allocatorINS_11__tree_nodeINS_12__value_typeINS_12basic_stringIcNS_11char_traitsIcEENS7_IcEEEEP7DbTableEES3_EEEEE6secondB7v160006Ev, symObjAddr: 0x315C, symBinAddr: 0x1000052F0, symSize: 0x24 }
  - { offsetInCU: 0x108FE, offset: 0x108FE, size: 0x8, addend: 0x0, symName: __ZNSt3__122__compressed_pair_elemINS_9allocatorINS_11__tree_nodeINS_12__value_typeINS_12basic_stringIcNS_11char_traitsIcEENS1_IcEEEEP7DbTableEEPvEEEELi1ELb1EE5__getB7v160006Ev, symObjAddr: 0x3180, symBinAddr: 0x100005314, symSize: 0x14 }
  - { offsetInCU: 0x10924, offset: 0x10924, size: 0x8, addend: 0x0, symName: __ZNSt3__19allocatorINS_11__tree_nodeINS_12__value_typeINS_12basic_stringIcNS_11char_traitsIcEENS0_IcEEEEP7DbTableEEPvEEE8allocateB7v160006Em, symObjAddr: 0x3194, symBinAddr: 0x100005328, symSize: 0x58 }
  - { offsetInCU: 0x10962, offset: 0x10962, size: 0x8, addend: 0x0, symName: __ZNSt3__116allocator_traitsINS_9allocatorINS_11__tree_nodeINS_12__value_typeINS_12basic_stringIcNS_11char_traitsIcEENS1_IcEEEEP7DbTableEEPvEEEEE8max_sizeB7v160006ISE_vvEEmRKSE_, symObjAddr: 0x31EC, symBinAddr: 0x100005380, symSize: 0x28 }
  - { offsetInCU: 0x1098D, offset: 0x1098D, size: 0x8, addend: 0x0, symName: __ZNSt3__114numeric_limitsImE3maxB7v160006Ev, symObjAddr: 0x32A8, symBinAddr: 0x10000543C, symSize: 0x14 }
  - { offsetInCU: 0x109A1, offset: 0x109A1, size: 0x8, addend: 0x0, symName: __ZNSt3__123__libcpp_numeric_limitsImLb1EE3maxB7v160006Ev, symObjAddr: 0x32BC, symBinAddr: 0x100005450, symSize: 0x8 }
  - { offsetInCU: 0x109B5, offset: 0x109B5, size: 0x8, addend: 0x0, symName: __ZNSt3__122__tree_node_destructorINS_9allocatorINS_11__tree_nodeINS_12__value_typeINS_12basic_stringIcNS_11char_traitsIcEENS1_IcEEEEP7DbTableEEPvEEEEEC2B7v160006ERSE_b, symObjAddr: 0x3334, symBinAddr: 0x1000054C8, symSize: 0x38 }
  - { offsetInCU: 0x109FD, offset: 0x109FD, size: 0x8, addend: 0x0, symName: __ZNSt3__110unique_ptrINS_11__tree_nodeINS_12__value_typeINS_12basic_stringIcNS_11char_traitsIcEENS_9allocatorIcEEEEP7DbTableEEPvEENS_22__tree_node_destructorINS6_ISD_EEEEEC2B7v160006ILb1EvEEPSD_NS_16__dependent_typeINS_27__unique_ptr_deleter_sfinaeISG_EEXT_EE20__good_rval_ref_typeE, symObjAddr: 0x336C, symBinAddr: 0x100005500, symSize: 0x48 }
  - { offsetInCU: 0x10A4E, offset: 0x10A4E, size: 0x8, addend: 0x0, symName: __ZNSt3__117__compressed_pairIPNS_11__tree_nodeINS_12__value_typeINS_12basic_stringIcNS_11char_traitsIcEENS_9allocatorIcEEEEP7DbTableEEPvEENS_22__tree_node_destructorINS6_ISD_EEEEEC1B7v160006IRSE_SH_EEOT_OT0_, symObjAddr: 0x33B4, symBinAddr: 0x100005548, symSize: 0x3C }
  - { offsetInCU: 0x10AA6, offset: 0x10AA6, size: 0x8, addend: 0x0, symName: __ZNSt3__117__compressed_pairIPNS_11__tree_nodeINS_12__value_typeINS_12basic_stringIcNS_11char_traitsIcEENS_9allocatorIcEEEEP7DbTableEEPvEENS_22__tree_node_destructorINS6_ISD_EEEEEC2B7v160006IRSE_SH_EEOT_OT0_, symObjAddr: 0x33F0, symBinAddr: 0x100005584, symSize: 0x48 }
  - { offsetInCU: 0x10AFE, offset: 0x10AFE, size: 0x8, addend: 0x0, symName: __ZNSt3__122__compressed_pair_elemIPNS_11__tree_nodeINS_12__value_typeINS_12basic_stringIcNS_11char_traitsIcEENS_9allocatorIcEEEEP7DbTableEEPvEELi0ELb0EEC2B7v160006IRSE_vEEOT_, symObjAddr: 0x3438, symBinAddr: 0x1000055CC, symSize: 0x24 }
  - { offsetInCU: 0x10B40, offset: 0x10B40, size: 0x8, addend: 0x0, symName: __ZNSt3__122__compressed_pair_elemINS_22__tree_node_destructorINS_9allocatorINS_11__tree_nodeINS_12__value_typeINS_12basic_stringIcNS_11char_traitsIcEENS2_IcEEEEP7DbTableEEPvEEEEEELi1ELb0EEC2B7v160006ISG_vEEOT_, symObjAddr: 0x345C, symBinAddr: 0x1000055F0, symSize: 0x24 }
  - { offsetInCU: 0x10B82, offset: 0x10B82, size: 0x8, addend: 0x0, symName: __ZNSt3__14pairIKNS_12basic_stringIcNS_11char_traitsIcEENS_9allocatorIcEEEEP7DbTableEC1B7v160006IJRS7_EJEEENS_21piecewise_construct_tENS_5tupleIJDpT_EEENSE_IJDpT0_EEE, symObjAddr: 0x34D0, symBinAddr: 0x100005664, symSize: 0x3C }
  - { offsetInCU: 0x10BE9, offset: 0x10BE9, size: 0x8, addend: 0x0, symName: __ZNSt3__14pairIKNS_12basic_stringIcNS_11char_traitsIcEENS_9allocatorIcEEEEP7DbTableEC1B7v160006IJRS7_EJEJLm0EEJEEENS_21piecewise_construct_tERNS_5tupleIJDpT_EEERNSE_IJDpT0_EEENS_15__tuple_indicesIJXspT1_EEEENSN_IJXspT2_EEEE, symObjAddr: 0x350C, symBinAddr: 0x1000056A0, symSize: 0x3C }
  - { offsetInCU: 0x10C76, offset: 0x10C76, size: 0x8, addend: 0x0, symName: __ZNSt3__14pairIKNS_12basic_stringIcNS_11char_traitsIcEENS_9allocatorIcEEEEP7DbTableEC2B7v160006IJRS7_EJEJLm0EEJEEENS_21piecewise_construct_tERNS_5tupleIJDpT_EEERNSE_IJDpT0_EEENS_15__tuple_indicesIJXspT1_EEEENSN_IJXspT2_EEEE, symObjAddr: 0x3548, symBinAddr: 0x1000056DC, symSize: 0x48 }
  - { offsetInCU: 0x10D03, offset: 0x10D03, size: 0x8, addend: 0x0, symName: __ZNSt3__112__tuple_leafILm0ERKNS_12basic_stringIcNS_11char_traitsIcEENS_9allocatorIcEEEELb0EE3getB7v160006Ev, symObjAddr: 0x35B4, symBinAddr: 0x100005748, symSize: 0x18 }
  - { offsetInCU: 0x10D29, offset: 0x10D29, size: 0x8, addend: 0x0, symName: __ZNKSt3__117__compressed_pairIPNS_11__tree_nodeINS_12__value_typeINS_12basic_stringIcNS_11char_traitsIcEENS_9allocatorIcEEEEP7DbTableEEPvEENS_22__tree_node_destructorINS6_ISD_EEEEE5firstB7v160006Ev, symObjAddr: 0x35CC, symBinAddr: 0x100005760, symSize: 0x24 }
  - { offsetInCU: 0x10D4F, offset: 0x10D4F, size: 0x8, addend: 0x0, symName: __ZNKSt3__122__compressed_pair_elemIPNS_11__tree_nodeINS_12__value_typeINS_12basic_stringIcNS_11char_traitsIcEENS_9allocatorIcEEEEP7DbTableEEPvEELi0ELb0EE5__getB7v160006Ev, symObjAddr: 0x35F0, symBinAddr: 0x100005784, symSize: 0x14 }
  - { offsetInCU: 0x10D75, offset: 0x10D75, size: 0x8, addend: 0x0, symName: __ZNSt3__117__compressed_pairIPNS_11__tree_nodeINS_12__value_typeINS_12basic_stringIcNS_11char_traitsIcEENS_9allocatorIcEEEEP7DbTableEEPvEENS_22__tree_node_destructorINS6_ISD_EEEEE6secondB7v160006Ev, symObjAddr: 0x3604, symBinAddr: 0x100005798, symSize: 0x28 }
  - { offsetInCU: 0x10D9B, offset: 0x10D9B, size: 0x8, addend: 0x0, symName: __ZNSt3__122__compressed_pair_elemINS_22__tree_node_destructorINS_9allocatorINS_11__tree_nodeINS_12__value_typeINS_12basic_stringIcNS_11char_traitsIcEENS2_IcEEEEP7DbTableEEPvEEEEEELi1ELb0EE5__getB7v160006Ev, symObjAddr: 0x362C, symBinAddr: 0x1000057C0, symSize: 0x14 }
  - { offsetInCU: 0x10DC1, offset: 0x10DC1, size: 0x8, addend: 0x0, symName: __ZNSt3__16__treeINS_12__value_typeINS_12basic_stringIcNS_11char_traitsIcEENS_9allocatorIcEEEEP7DbTableEENS_19__map_value_compareIS7_SA_NS_4lessIS7_EELb1EEENS5_ISA_EEE12__begin_nodeB7v160006Ev, symObjAddr: 0x3640, symBinAddr: 0x1000057D4, symSize: 0x14 }
  - { offsetInCU: 0x10DE7, offset: 0x10DE7, size: 0x8, addend: 0x0, symName: __ZNSt3__16__treeINS_12__value_typeINS_12basic_stringIcNS_11char_traitsIcEENS_9allocatorIcEEEEP7DbTableEENS_19__map_value_compareIS7_SA_NS_4lessIS7_EELb1EEENS5_ISA_EEE4sizeB7v160006Ev, symObjAddr: 0x3980, symBinAddr: 0x100005B14, symSize: 0x28 }
  - { offsetInCU: 0x10E0D, offset: 0x10E0D, size: 0x8, addend: 0x0, symName: __ZNKSt3__116__tree_node_baseIPvE15__parent_unsafeB7v160006Ev, symObjAddr: 0x39A8, symBinAddr: 0x100005B3C, symSize: 0x18 }
  - { offsetInCU: 0x10E33, offset: 0x10E33, size: 0x8, addend: 0x0, symName: __ZNSt3__116__tree_node_baseIPvE12__set_parentB7v160006EPS2_, symObjAddr: 0x3B90, symBinAddr: 0x100005D24, symSize: 0x20 }
  - { offsetInCU: 0x10E68, offset: 0x10E68, size: 0x8, addend: 0x0, symName: __ZNSt3__117__compressed_pairImNS_19__map_value_compareINS_12basic_stringIcNS_11char_traitsIcEENS_9allocatorIcEEEENS_12__value_typeIS7_P7DbTableEENS_4lessIS7_EELb1EEEE5firstB7v160006Ev, symObjAddr: 0x3BB0, symBinAddr: 0x100005D44, symSize: 0x24 }
  - { offsetInCU: 0x10E8E, offset: 0x10E8E, size: 0x8, addend: 0x0, symName: __ZNSt3__122__compressed_pair_elemImLi0ELb0EE5__getB7v160006Ev, symObjAddr: 0x3BD4, symBinAddr: 0x100005D68, symSize: 0x14 }
  - { offsetInCU: 0x10EB4, offset: 0x10EB4, size: 0x8, addend: 0x0, symName: __ZNSt3__117__compressed_pairIPNS_11__tree_nodeINS_12__value_typeINS_12basic_stringIcNS_11char_traitsIcEENS_9allocatorIcEEEEP7DbTableEEPvEENS_22__tree_node_destructorINS6_ISD_EEEEE5firstB7v160006Ev, symObjAddr: 0x3BE8, symBinAddr: 0x100005D7C, symSize: 0x24 }
  - { offsetInCU: 0x10EDA, offset: 0x10EDA, size: 0x8, addend: 0x0, symName: __ZNSt3__122__compressed_pair_elemIPNS_11__tree_nodeINS_12__value_typeINS_12basic_stringIcNS_11char_traitsIcEENS_9allocatorIcEEEEP7DbTableEEPvEELi0ELb0EE5__getB7v160006Ev, symObjAddr: 0x3C0C, symBinAddr: 0x100005DA0, symSize: 0x14 }
  - { offsetInCU: 0x10F00, offset: 0x10F00, size: 0x8, addend: 0x0, symName: __ZNSt3__110unique_ptrINS_11__tree_nodeINS_12__value_typeINS_12basic_stringIcNS_11char_traitsIcEENS_9allocatorIcEEEEP7DbTableEEPvEENS_22__tree_node_destructorINS6_ISD_EEEEED2B7v160006Ev, symObjAddr: 0x3C20, symBinAddr: 0x100005DB4, symSize: 0x30 }
  - { offsetInCU: 0x10F2A, offset: 0x10F2A, size: 0x8, addend: 0x0, symName: __ZNSt3__110unique_ptrINS_11__tree_nodeINS_12__value_typeINS_12basic_stringIcNS_11char_traitsIcEENS_9allocatorIcEEEEP7DbTableEEPvEENS_22__tree_node_destructorINS6_ISD_EEEEE5resetB7v160006EPSD_, symObjAddr: 0x3C50, symBinAddr: 0x100005DE4, symSize: 0x78 }
  - { offsetInCU: 0x10F6E, offset: 0x10F6E, size: 0x8, addend: 0x0, symName: __ZNSt3__122__tree_node_destructorINS_9allocatorINS_11__tree_nodeINS_12__value_typeINS_12basic_stringIcNS_11char_traitsIcEENS1_IcEEEEP7DbTableEEPvEEEEEclB7v160006EPSD_, symObjAddr: 0x3CC8, symBinAddr: 0x100005E5C, symSize: 0x98 }
  - { offsetInCU: 0x10FA3, offset: 0x10FA3, size: 0x8, addend: 0x0, symName: __ZNSt3__116allocator_traitsINS_9allocatorINS_11__tree_nodeINS_12__value_typeINS_12basic_stringIcNS_11char_traitsIcEENS1_IcEEEEP7DbTableEEPvEEEEE7destroyB7v160006INS_4pairIKS8_SA_EEvvEEvRSE_PT_, symObjAddr: 0x3D60, symBinAddr: 0x100005EF4, symSize: 0x28 }
  - { offsetInCU: 0x10FDD, offset: 0x10FDD, size: 0x8, addend: 0x0, symName: __ZNSt3__116allocator_traitsINS_9allocatorINS_11__tree_nodeINS_12__value_typeINS_12basic_stringIcNS_11char_traitsIcEENS1_IcEEEEP7DbTableEEPvEEEEE10deallocateB7v160006ERSE_PSD_m, symObjAddr: 0x3D88, symBinAddr: 0x100005F1C, symSize: 0x34 }
  - { offsetInCU: 0x1101F, offset: 0x1101F, size: 0x8, addend: 0x0, symName: __ZNSt3__14pairIKNS_12basic_stringIcNS_11char_traitsIcEENS_9allocatorIcEEEEP7DbTableED1Ev, symObjAddr: 0x3E04, symBinAddr: 0x100005F98, symSize: 0x2C }
  - { offsetInCU: 0x1104B, offset: 0x1104B, size: 0x8, addend: 0x0, symName: __ZNSt3__14pairIKNS_12basic_stringIcNS_11char_traitsIcEENS_9allocatorIcEEEEP7DbTableED2Ev, symObjAddr: 0x3E30, symBinAddr: 0x100005FC4, symSize: 0x2C }
  - { offsetInCU: 0x11077, offset: 0x11077, size: 0x8, addend: 0x0, symName: __ZNSt3__19allocatorINS_11__tree_nodeINS_12__value_typeINS_12basic_stringIcNS_11char_traitsIcEENS0_IcEEEEP7DbTableEEPvEEE10deallocateB7v160006EPSC_m, symObjAddr: 0x3E5C, symBinAddr: 0x100005FF0, symSize: 0x40 }
  - { offsetInCU: 0x110B9, offset: 0x110B9, size: 0x8, addend: 0x0, symName: __ZNSt3__115__tree_iteratorINS_12__value_typeINS_12basic_stringIcNS_11char_traitsIcEENS_9allocatorIcEEEEP7DbTableEEPNS_11__tree_nodeISA_PvEElEC2B7v160006ESE_, symObjAddr: 0x3FA4, symBinAddr: 0x100006138, symSize: 0x20 }
  - { offsetInCU: 0x110F2, offset: 0x110F2, size: 0x8, addend: 0x0, symName: __ZNSt3__14pairINS_15__tree_iteratorINS_12__value_typeINS_12basic_stringIcNS_11char_traitsIcEENS_9allocatorIcEEEEP7DbTableEEPNS_11__tree_nodeISB_PvEElEEbEC2B7v160006ISG_RbLSD_0EEEOT_OT0_, symObjAddr: 0x3FC4, symBinAddr: 0x100006158, symSize: 0x38 }
  - { offsetInCU: 0x11150, offset: 0x11150, size: 0x8, addend: 0x0, symName: __ZNSt3__15tupleIJRKNS_12basic_stringIcNS_11char_traitsIcEENS_9allocatorIcEEEEEEC1B7v160006INS_4_AndELi0EEES8_, symObjAddr: 0x3FFC, symBinAddr: 0x100006190, symSize: 0x34 }
  - { offsetInCU: 0x11198, offset: 0x11198, size: 0x8, addend: 0x0, symName: __ZNSt3__15tupleIJRKNS_12basic_stringIcNS_11char_traitsIcEENS_9allocatorIcEEEEEEC2B7v160006INS_4_AndELi0EEES8_, symObjAddr: 0x4030, symBinAddr: 0x1000061C4, symSize: 0x34 }
  - { offsetInCU: 0x111E0, offset: 0x111E0, size: 0x8, addend: 0x0, symName: __ZNSt3__112__tuple_implINS_15__tuple_indicesIJLm0EEEEJRKNS_12basic_stringIcNS_11char_traitsIcEENS_9allocatorIcEEEEEEC1B7v160006IJLm0EEJSA_EJEJEJSA_EEENS1_IJXspT_EEEENS_13__tuple_typesIJDpT0_EEENS1_IJXspT1_EEEENSE_IJDpT2_EEEDpOT3_, symObjAddr: 0x4064, symBinAddr: 0x1000061F8, symSize: 0x34 }
  - { offsetInCU: 0x11271, offset: 0x11271, size: 0x8, addend: 0x0, symName: __ZNSt3__112__tuple_implINS_15__tuple_indicesIJLm0EEEEJRKNS_12basic_stringIcNS_11char_traitsIcEENS_9allocatorIcEEEEEEC2B7v160006IJLm0EEJSA_EJEJEJSA_EEENS1_IJXspT_EEEENS_13__tuple_typesIJDpT0_EEENS1_IJXspT1_EEEENSE_IJDpT2_EEEDpOT3_, symObjAddr: 0x4098, symBinAddr: 0x10000622C, symSize: 0x34 }
  - { offsetInCU: 0x11302, offset: 0x11302, size: 0x8, addend: 0x0, symName: __ZNSt3__112__tuple_leafILm0ERKNS_12basic_stringIcNS_11char_traitsIcEENS_9allocatorIcEEEELb0EEC2B7v160006IS8_vEEOT_, symObjAddr: 0x40CC, symBinAddr: 0x100006260, symSize: 0x20 }
  - { offsetInCU: 0x11345, offset: 0x11345, size: 0x8, addend: 0x0, symName: __ZNSt3__114pointer_traitsIPNS_12__value_typeINS_12basic_stringIcNS_11char_traitsIcEENS_9allocatorIcEEEEP7DbTableEEE10pointer_toB7v160006ERSA_, symObjAddr: 0x40EC, symBinAddr: 0x100006280, symSize: 0x14 }
  - { offsetInCU: 0x11368, offset: 0x11368, size: 0x8, addend: 0x0, symName: __ZNSt3__114pointer_traitsIPNS_4pairIKNS_12basic_stringIcNS_11char_traitsIcEENS_9allocatorIcEEEEP7DbTableEEE10pointer_toB7v160006ERSB_, symObjAddr: 0x4138, symBinAddr: 0x1000062CC, symSize: 0x14 }
  - { offsetInCU: 0x1138B, offset: 0x1138B, size: 0x8, addend: 0x0, symName: __ZNSt3__16__treeINS_12__value_typeINS_12basic_stringIcNS_11char_traitsIcEENS_9allocatorIcEEEEP7DbTableEENS_19__map_value_compareIS7_SA_NS_4lessIS7_EELb1EEENS5_ISA_EEE5eraseENS_21__tree_const_iteratorISA_PNS_11__tree_nodeISA_PvEElEE, symObjAddr: 0x414C, symBinAddr: 0x1000062E0, symSize: 0x98 }
  - { offsetInCU: 0x113EF, offset: 0x113EF, size: 0x8, addend: 0x0, symName: __ZNSt3__121__tree_const_iteratorINS_12__value_typeINS_12basic_stringIcNS_11char_traitsIcEENS_9allocatorIcEEEEP7DbTableEEPNS_11__tree_nodeISA_PvEElEC1B7v160006ENS_15__tree_iteratorISA_SE_lEE, symObjAddr: 0x41E4, symBinAddr: 0x100006378, symSize: 0x34 }
  - { offsetInCU: 0x11428, offset: 0x11428, size: 0x8, addend: 0x0, symName: __ZNKSt3__121__tree_const_iteratorINS_12__value_typeINS_12basic_stringIcNS_11char_traitsIcEENS_9allocatorIcEEEEP7DbTableEEPNS_11__tree_nodeISA_PvEElE8__get_npB7v160006Ev, symObjAddr: 0x4218, symBinAddr: 0x1000063AC, symSize: 0x18 }
  - { offsetInCU: 0x1144E, offset: 0x1144E, size: 0x8, addend: 0x0, symName: __ZNSt3__16__treeINS_12__value_typeINS_12basic_stringIcNS_11char_traitsIcEENS_9allocatorIcEEEEP7DbTableEENS_19__map_value_compareIS7_SA_NS_4lessIS7_EELb1EEENS5_ISA_EEE21__remove_node_pointerEPNS_11__tree_nodeISA_PvEE, symObjAddr: 0x4230, symBinAddr: 0x1000063C4, symSize: 0xB4 }
  - { offsetInCU: 0x11494, offset: 0x11494, size: 0x8, addend: 0x0, symName: __ZNKSt3__121__tree_const_iteratorINS_12__value_typeINS_12basic_stringIcNS_11char_traitsIcEENS_9allocatorIcEEEEP7DbTableEEPNS_11__tree_nodeISA_PvEElEdeB7v160006Ev, symObjAddr: 0x42E4, symBinAddr: 0x100006478, symSize: 0x28 }
  - { offsetInCU: 0x114BA, offset: 0x114BA, size: 0x8, addend: 0x0, symName: __ZNSt3__115__tree_iteratorINS_12__value_typeINS_12basic_stringIcNS_11char_traitsIcEENS_9allocatorIcEEEEP7DbTableEEPNS_11__tree_nodeISA_PvEElEppB7v160006Ev, symObjAddr: 0x430C, symBinAddr: 0x1000064A0, symSize: 0x38 }
  - { offsetInCU: 0x114E0, offset: 0x114E0, size: 0x8, addend: 0x0, symName: __ZNSt3__121__tree_const_iteratorINS_12__value_typeINS_12basic_stringIcNS_11char_traitsIcEENS_9allocatorIcEEEEP7DbTableEEPNS_11__tree_nodeISA_PvEElEC2B7v160006ENS_15__tree_iteratorISA_SE_lEE, symObjAddr: 0x4B64, symBinAddr: 0x100006CF8, symSize: 0x20 }
  - { offsetInCU: 0x11519, offset: 0x11519, size: 0x8, addend: 0x0, symName: __ZNSt3__13mapINS_12basic_stringIcNS_11char_traitsIcEENS_9allocatorIcEEEEP7DbTableNS_4lessIS6_EENS4_INS_4pairIKS6_S8_EEEEEC2B7v160006Ev, symObjAddr: 0x4B84, symBinAddr: 0x100006D18, symSize: 0x40 }
  - { offsetInCU: 0x11543, offset: 0x11543, size: 0x8, addend: 0x0, symName: __ZNSt3__119__map_value_compareINS_12basic_stringIcNS_11char_traitsIcEENS_9allocatorIcEEEENS_12__value_typeIS6_P7DbTableEENS_4lessIS6_EELb1EEC1B7v160006ESC_, symObjAddr: 0x4BC4, symBinAddr: 0x100006D58, symSize: 0x2C }
  - { offsetInCU: 0x1157C, offset: 0x1157C, size: 0x8, addend: 0x0, symName: __ZNSt3__16__treeINS_12__value_typeINS_12basic_stringIcNS_11char_traitsIcEENS_9allocatorIcEEEEP7DbTableEENS_19__map_value_compareIS7_SA_NS_4lessIS7_EELb1EEENS5_ISA_EEEC1ERKSE_, symObjAddr: 0x4BF0, symBinAddr: 0x100006D84, symSize: 0x34 }
  - { offsetInCU: 0x115B7, offset: 0x115B7, size: 0x8, addend: 0x0, symName: __ZNSt3__119__map_value_compareINS_12basic_stringIcNS_11char_traitsIcEENS_9allocatorIcEEEENS_12__value_typeIS6_P7DbTableEENS_4lessIS6_EELb1EEC2B7v160006ESC_, symObjAddr: 0x4C24, symBinAddr: 0x100006DB8, symSize: 0x14 }
  - { offsetInCU: 0x115F0, offset: 0x115F0, size: 0x8, addend: 0x0, symName: __ZNSt3__16__treeINS_12__value_typeINS_12basic_stringIcNS_11char_traitsIcEENS_9allocatorIcEEEEP7DbTableEENS_19__map_value_compareIS7_SA_NS_4lessIS7_EELb1EEENS5_ISA_EEEC2ERKSE_, symObjAddr: 0x4C38, symBinAddr: 0x100006DCC, symSize: 0x7C }
  - { offsetInCU: 0x1162B, offset: 0x1162B, size: 0x8, addend: 0x0, symName: __ZNSt3__117__compressed_pairINS_15__tree_end_nodeIPNS_16__tree_node_baseIPvEEEENS_9allocatorINS_11__tree_nodeINS_12__value_typeINS_12basic_stringIcNS_11char_traitsIcEENS7_IcEEEEP7DbTableEES3_EEEEEC1B7v160006ILb1EvEEv, symObjAddr: 0x4CB4, symBinAddr: 0x100006E48, symSize: 0x2C }
  - { offsetInCU: 0x11660, offset: 0x11660, size: 0x8, addend: 0x0, symName: __ZNSt3__117__compressed_pairImNS_19__map_value_compareINS_12basic_stringIcNS_11char_traitsIcEENS_9allocatorIcEEEENS_12__value_typeIS7_P7DbTableEENS_4lessIS7_EELb1EEEEC1B7v160006IiRKSE_EEOT_OT0_, symObjAddr: 0x4CE0, symBinAddr: 0x100006E74, symSize: 0x3C }
  - { offsetInCU: 0x116B8, offset: 0x116B8, size: 0x8, addend: 0x0, symName: __ZNSt3__117__compressed_pairINS_15__tree_end_nodeIPNS_16__tree_node_baseIPvEEEENS_9allocatorINS_11__tree_nodeINS_12__value_typeINS_12basic_stringIcNS_11char_traitsIcEENS7_IcEEEEP7DbTableEES3_EEEEEC2B7v160006ILb1EvEEv, symObjAddr: 0x4D1C, symBinAddr: 0x100006EB0, symSize: 0x34 }
  - { offsetInCU: 0x116ED, offset: 0x116ED, size: 0x8, addend: 0x0, symName: __ZNSt3__122__compressed_pair_elemINS_9allocatorINS_11__tree_nodeINS_12__value_typeINS_12basic_stringIcNS_11char_traitsIcEENS1_IcEEEEP7DbTableEEPvEEEELi1ELb1EEC2B7v160006ENS_16__value_init_tagE, symObjAddr: 0x4D50, symBinAddr: 0x100006EE4, symSize: 0x2C }
  - { offsetInCU: 0x11722, offset: 0x11722, size: 0x8, addend: 0x0, symName: __ZNSt3__19allocatorINS_11__tree_nodeINS_12__value_typeINS_12basic_stringIcNS_11char_traitsIcEENS0_IcEEEEP7DbTableEEPvEEEC2B7v160006Ev, symObjAddr: 0x4D7C, symBinAddr: 0x100006F10, symSize: 0x2C }
  - { offsetInCU: 0x1174C, offset: 0x1174C, size: 0x8, addend: 0x0, symName: __ZNSt3__116__non_trivial_ifILb1ENS_9allocatorINS_11__tree_nodeINS_12__value_typeINS_12basic_stringIcNS_11char_traitsIcEENS1_IcEEEEP7DbTableEEPvEEEEEC2B7v160006Ev, symObjAddr: 0x4DA8, symBinAddr: 0x100006F3C, symSize: 0x14 }
  - { offsetInCU: 0x11776, offset: 0x11776, size: 0x8, addend: 0x0, symName: __ZNSt3__117__compressed_pairImNS_19__map_value_compareINS_12basic_stringIcNS_11char_traitsIcEENS_9allocatorIcEEEENS_12__value_typeIS7_P7DbTableEENS_4lessIS7_EELb1EEEEC2B7v160006IiRKSE_EEOT_OT0_, symObjAddr: 0x4DBC, symBinAddr: 0x100006F50, symSize: 0x44 }
  - { offsetInCU: 0x117CE, offset: 0x117CE, size: 0x8, addend: 0x0, symName: __ZNSt3__122__compressed_pair_elemINS_19__map_value_compareINS_12basic_stringIcNS_11char_traitsIcEENS_9allocatorIcEEEENS_12__value_typeIS7_P7DbTableEENS_4lessIS7_EELb1EEELi1ELb1EEC2B7v160006IRKSE_vEEOT_, symObjAddr: 0x4E00, symBinAddr: 0x100006F94, symSize: 0x18 }
  - { offsetInCU: 0x11810, offset: 0x11810, size: 0x8, addend: 0x0, symName: __ZNSt3__13mapINS_12basic_stringIcNS_11char_traitsIcEENS_9allocatorIcEEEEP7DbTableNS_4lessIS6_EENS4_INS_4pairIKS6_S8_EEEEED2B7v160006Ev, symObjAddr: 0x4E18, symBinAddr: 0x100006FAC, symSize: 0x2C }
  - { offsetInCU: 0x1183A, offset: 0x1183A, size: 0x8, addend: 0x0, symName: __ZNSt3__16__treeINS_12__value_typeINS_12basic_stringIcNS_11char_traitsIcEENS_9allocatorIcEEEEP7DbTableEENS_19__map_value_compareIS7_SA_NS_4lessIS7_EELb1EEENS5_ISA_EEED1Ev, symObjAddr: 0x4E44, symBinAddr: 0x100006FD8, symSize: 0x2C }
  - { offsetInCU: 0x11866, offset: 0x11866, size: 0x8, addend: 0x0, symName: __ZNSt3__16__treeINS_12__value_typeINS_12basic_stringIcNS_11char_traitsIcEENS_9allocatorIcEEEEP7DbTableEENS_19__map_value_compareIS7_SA_NS_4lessIS7_EELb1EEENS5_ISA_EEED2Ev, symObjAddr: 0x4E70, symBinAddr: 0x100007004, symSize: 0x38 }
  - { offsetInCU: 0x11892, offset: 0x11892, size: 0x8, addend: 0x0, symName: __ZNSt3__16__treeINS_12__value_typeINS_12basic_stringIcNS_11char_traitsIcEENS_9allocatorIcEEEEP7DbTableEENS_19__map_value_compareIS7_SA_NS_4lessIS7_EELb1EEENS5_ISA_EEE7destroyEPNS_11__tree_nodeISA_PvEE, symObjAddr: 0x4EA8, symBinAddr: 0x10000703C, symSize: 0xAC }
  - { offsetInCU: 0x118DE, offset: 0x118DE, size: 0x8, addend: 0x0, symName: __ZNKSt3__16__treeINS_12__value_typeINS_12basic_stringIcNS_11char_traitsIcEENS_9allocatorIcEEEEP7DbTableEENS_19__map_value_compareIS7_SA_NS_4lessIS7_EELb1EEENS5_ISA_EEE5beginB7v160006Ev, symObjAddr: 0x4F54, symBinAddr: 0x1000070E8, symSize: 0x34 }
  - { offsetInCU: 0x11904, offset: 0x11904, size: 0x8, addend: 0x0, symName: __ZNSt3__120__map_const_iteratorINS_21__tree_const_iteratorINS_12__value_typeINS_12basic_stringIcNS_11char_traitsIcEENS_9allocatorIcEEEEP7DbTableEEPNS_11__tree_nodeISB_PvEElEEEC1B7v160006ESG_, symObjAddr: 0x4F88, symBinAddr: 0x10000711C, symSize: 0x34 }
  - { offsetInCU: 0x1193D, offset: 0x1193D, size: 0x8, addend: 0x0, symName: __ZNKSt3__16__treeINS_12__value_typeINS_12basic_stringIcNS_11char_traitsIcEENS_9allocatorIcEEEEP7DbTableEENS_19__map_value_compareIS7_SA_NS_4lessIS7_EELb1EEENS5_ISA_EEE12__begin_nodeB7v160006Ev, symObjAddr: 0x4FBC, symBinAddr: 0x100007150, symSize: 0x14 }
  - { offsetInCU: 0x11963, offset: 0x11963, size: 0x8, addend: 0x0, symName: __ZNSt3__121__tree_const_iteratorINS_12__value_typeINS_12basic_stringIcNS_11char_traitsIcEENS_9allocatorIcEEEEP7DbTableEEPNS_11__tree_nodeISA_PvEElEC1B7v160006EPNS_15__tree_end_nodeIPNS_16__tree_node_baseISC_EEEE, symObjAddr: 0x4FD0, symBinAddr: 0x100007164, symSize: 0x34 }
  - { offsetInCU: 0x1199C, offset: 0x1199C, size: 0x8, addend: 0x0, symName: __ZNSt3__121__tree_const_iteratorINS_12__value_typeINS_12basic_stringIcNS_11char_traitsIcEENS_9allocatorIcEEEEP7DbTableEEPNS_11__tree_nodeISA_PvEElEC2B7v160006EPNS_15__tree_end_nodeIPNS_16__tree_node_baseISC_EEEE, symObjAddr: 0x5004, symBinAddr: 0x100007198, symSize: 0x20 }
  - { offsetInCU: 0x119D5, offset: 0x119D5, size: 0x8, addend: 0x0, symName: __ZNSt3__120__map_const_iteratorINS_21__tree_const_iteratorINS_12__value_typeINS_12basic_stringIcNS_11char_traitsIcEENS_9allocatorIcEEEEP7DbTableEEPNS_11__tree_nodeISB_PvEElEEEC2B7v160006ESG_, symObjAddr: 0x5024, symBinAddr: 0x1000071B8, symSize: 0x20 }
  - { offsetInCU: 0x11A0E, offset: 0x11A0E, size: 0x8, addend: 0x0, symName: __ZNKSt3__16__treeINS_12__value_typeINS_12basic_stringIcNS_11char_traitsIcEENS_9allocatorIcEEEEP7DbTableEENS_19__map_value_compareIS7_SA_NS_4lessIS7_EELb1EEENS5_ISA_EEE3endB7v160006Ev, symObjAddr: 0x5044, symBinAddr: 0x1000071D8, symSize: 0x34 }
  - { offsetInCU: 0x11A34, offset: 0x11A34, size: 0x8, addend: 0x0, symName: __ZNSt3__121__tree_const_iteratorINS_12__value_typeINS_12basic_stringIcNS_11char_traitsIcEENS_9allocatorIcEEEEP7DbTableEEPNS_11__tree_nodeISA_PvEElEppB7v160006Ev, symObjAddr: 0x50DC, symBinAddr: 0x100007270, symSize: 0x38 }
  - { offsetInCU: 0x11A5A, offset: 0x11A5A, size: 0x8, addend: 0x0, symName: __ZNKSt3__121__tree_const_iteratorINS_12__value_typeINS_12basic_stringIcNS_11char_traitsIcEENS_9allocatorIcEEEEP7DbTableEEPNS_11__tree_nodeISA_PvEElEptB7v160006Ev, symObjAddr: 0x5114, symBinAddr: 0x1000072A8, symSize: 0x2C }
  - { offsetInCU: 0x11A80, offset: 0x11A80, size: 0x8, addend: 0x0, symName: __ZNSt3__114pointer_traitsIPKNS_12__value_typeINS_12basic_stringIcNS_11char_traitsIcEENS_9allocatorIcEEEEP7DbTableEEE10pointer_toB7v160006ERSB_, symObjAddr: 0x5140, symBinAddr: 0x1000072D4, symSize: 0x14 }
  - { offsetInCU: 0x11AA3, offset: 0x11AA3, size: 0x8, addend: 0x0, symName: __ZNSt3__16__treeINS_12__value_typeINS_12basic_stringIcNS_11char_traitsIcEENS_9allocatorIcEEEEP7DbTableEENS_19__map_value_compareIS7_SA_NS_4lessIS7_EELb1EEENS5_ISA_EEE5beginB7v160006Ev, symObjAddr: 0x5154, symBinAddr: 0x1000072E8, symSize: 0x34 }
  - { offsetInCU: 0x11AC9, offset: 0x11AC9, size: 0x8, addend: 0x0, symName: __ZNSt3__16__treeINS_12__value_typeINS_12basic_stringIcNS_11char_traitsIcEENS_9allocatorIcEEEEP7DbTableEENS_19__map_value_compareIS7_SA_NS_4lessIS7_EELb1EEENS5_ISA_EEE5clearEv, symObjAddr: 0x5188, symBinAddr: 0x10000731C, symSize: 0x74 }
  - { offsetInCU: 0x5C, offset: 0x11C8C, size: 0x8, addend: 0x0, symName: __ZNSt3__1L19piecewise_constructE, symObjAddr: 0x9B76, symBinAddr: 0x10000F86E, symSize: 0x0 }
  - { offsetInCU: 0x4773, offset: 0x163A3, size: 0x8, addend: 0x0, symName: __ZNSt3__17advanceB7v160006IPNS_4pairINS_12basic_stringIcNS_11char_traitsIcEENS_9allocatorIcEEEE8DataTypeEEllvEEvRT_T0_, symObjAddr: 0x3AA4, symBinAddr: 0x10000AA94, symSize: 0x50 }
  - { offsetInCU: 0x49F4, offset: 0x16624, size: 0x8, addend: 0x0, symName: __ZNSt3__17advanceB7v160006INS_16reverse_iteratorIPNS_4pairINS_12basic_stringIcNS_11char_traitsIcEENS_9allocatorIcEEEE8DataTypeEEEEllvEEvRT_T0_, symObjAddr: 0x3F64, symBinAddr: 0x10000AF54, symSize: 0x50 }
  - { offsetInCU: 0x4A60, offset: 0x16690, size: 0x8, addend: 0x0, symName: __ZNSt3__17advanceB7v160006IPNS_4pairINS_12basic_stringIcNS_11char_traitsIcEENS_9allocatorIcEEEE8DataTypeEEmmvEEvRT_T0_, symObjAddr: 0x55C4, symBinAddr: 0x10000C1A8, symSize: 0x50 }
  - { offsetInCU: 0x843A, offset: 0x1A06A, size: 0x8, addend: 0x0, symName: __ZNSt3__1neB7v160006ERKNS_14__map_iteratorINS_15__tree_iteratorINS_12__value_typeIjPPvEEPNS_11__tree_nodeIS5_S3_EElEEEESC_, symObjAddr: 0x3B4, symBinAddr: 0x100007744, symSize: 0x30 }
  - { offsetInCU: 0x8495, offset: 0x1A0C5, size: 0x8, addend: 0x0, symName: __ZNSt3__1eqB7v160006ERKNS_14__map_iteratorINS_15__tree_iteratorINS_12__value_typeIjPPvEEPNS_11__tree_nodeIS5_S3_EElEEEESC_, symObjAddr: 0x1110, symBinAddr: 0x1000084A0, symSize: 0x30 }
  - { offsetInCU: 0x84D2, offset: 0x1A102, size: 0x8, addend: 0x0, symName: __ZNSt3__1neB7v160006ERKNS_20__map_const_iteratorINS_21__tree_const_iteratorINS_12__value_typeIjPPvEEPNS_11__tree_nodeIS5_S3_EElEEEESC_, symObjAddr: 0x163C, symBinAddr: 0x100008974, symSize: 0x30 }
  - { offsetInCU: 0x850F, offset: 0x1A13F, size: 0x8, addend: 0x0, symName: __ZNSt3__112__to_addressB7v160006INS_4pairINS_12basic_stringIcNS_11char_traitsIcEENS_9allocatorIcEEEE8DataTypeEEEEPT_SB_, symObjAddr: 0x2610, symBinAddr: 0x1000098A8, symSize: 0x14 }
  - { offsetInCU: 0x8569, offset: 0x1A199, size: 0x8, addend: 0x0, symName: __ZNSt3__112construct_atB7v160006INS_4pairINS_12basic_stringIcNS_11char_traitsIcEENS_9allocatorIcEEEE8DataTypeEEJRKS9_EPS9_EEPT_SE_DpOT0_, symObjAddr: 0x2694, symBinAddr: 0x10000992C, symSize: 0x3C }
  - { offsetInCU: 0x85D9, offset: 0x1A209, size: 0x8, addend: 0x0, symName: __ZNSt3__13maxB7v160006ImEERKT_S3_S3_, symObjAddr: 0x2A94, symBinAddr: 0x100009D2C, symSize: 0x2C }
  - { offsetInCU: 0x8806, offset: 0x1A436, size: 0x8, addend: 0x0, symName: __ZNSt3__120__throw_length_errorB7v160006EPKc, symObjAddr: 0x2C34, symBinAddr: 0x100009DFC, symSize: 0x64 }
  - { offsetInCU: 0x882F, offset: 0x1A45F, size: 0x8, addend: 0x0, symName: __ZNSt3__13maxB7v160006ImNS_6__lessImmEEEERKT_S5_S5_T0_, symObjAddr: 0x2D78, symBinAddr: 0x100009F40, symSize: 0x54 }
  - { offsetInCU: 0x8889, offset: 0x1A4B9, size: 0x8, addend: 0x0, symName: __ZNSt3__119__allocate_at_leastB7v160006INS_9allocatorINS_4pairINS_12basic_stringIcNS_11char_traitsIcEENS1_IcEEEE8DataTypeEEEEEENS_19__allocation_resultINS_16allocator_traitsIT_E7pointerEEERSD_m, symObjAddr: 0x2EDC, symBinAddr: 0x10000A0A4, symSize: 0x40 }
  - { offsetInCU: 0x88CC, offset: 0x1A4FC, size: 0x8, addend: 0x0, symName: __ZNSt3__142__uninitialized_allocator_move_if_noexceptB7v160006INS_9allocatorINS_4pairINS_12basic_stringIcNS_11char_traitsIcEENS1_IcEEEE8DataTypeEEEENS_16reverse_iteratorIPS9_EESD_SD_EET2_RT_T0_T1_SE_, symObjAddr: 0x3268, symBinAddr: 0x10000A310, symSize: 0x12C }
  - { offsetInCU: 0x896C, offset: 0x1A59C, size: 0x8, addend: 0x0, symName: __ZNSt3__14swapB7v160006IPNS_4pairINS_12basic_stringIcNS_11char_traitsIcEENS_9allocatorIcEEEE8DataTypeEEEENS_9enable_ifIXaasr21is_move_constructibleIT_EE5valuesr18is_move_assignableISC_EE5valueEvE4typeERSC_SF_, symObjAddr: 0x33E0, symBinAddr: 0x10000A488, symSize: 0x3C }
  - { offsetInCU: 0x89BE, offset: 0x1A5EE, size: 0x8, addend: 0x0, symName: __ZNSt3__125__debug_db_invalidate_allB7v160006INS_6vectorINS_4pairINS_12basic_stringIcNS_11char_traitsIcEENS_9allocatorIcEEEE8DataTypeEENS6_ISA_EEEEEEvPT_, symObjAddr: 0x34C8, symBinAddr: 0x10000A570, symSize: 0x10 }
  - { offsetInCU: 0x89EF, offset: 0x1A61F, size: 0x8, addend: 0x0, symName: __ZNSt3__122__make_exception_guardB7v160006INS_29_AllocatorDestroyRangeReverseINS_9allocatorINS_4pairINS_12basic_stringIcNS_11char_traitsIcEENS2_IcEEEE8DataTypeEEEENS_16reverse_iteratorIPSA_EEEEEENS_28__exception_guard_exceptionsIT_EESH_, symObjAddr: 0x3520, symBinAddr: 0x10000A5C8, symSize: 0x4C }
  - { offsetInCU: 0x8A25, offset: 0x1A655, size: 0x8, addend: 0x0, symName: __ZNSt3__1neB7v160006IPNS_4pairINS_12basic_stringIcNS_11char_traitsIcEENS_9allocatorIcEEEE8DataTypeEESA_EEbRKNS_16reverse_iteratorIT_EERKNSB_IT0_EE, symObjAddr: 0x35B0, symBinAddr: 0x10000A658, symSize: 0x48 }
  - { offsetInCU: 0x8A71, offset: 0x1A6A1, size: 0x8, addend: 0x0, symName: __ZNSt3__112__to_addressB7v160006INS_16reverse_iteratorIPNS_4pairINS_12basic_stringIcNS_11char_traitsIcEENS_9allocatorIcEEEE8DataTypeEEEEvEENS_5decayIDTclsr19__to_address_helperIT_EE6__callclsr3stdE7declvalIRKSE_EEEEE4typeESG_, symObjAddr: 0x3628, symBinAddr: 0x10000A6D0, symSize: 0x24 }
  - { offsetInCU: 0x8AA7, offset: 0x1A6D7, size: 0x8, addend: 0x0, symName: __ZNSt3__112construct_atB7v160006INS_4pairINS_12basic_stringIcNS_11char_traitsIcEENS_9allocatorIcEEEE8DataTypeEEJS9_EPS9_EEPT_SC_DpOT0_, symObjAddr: 0x3778, symBinAddr: 0x10000A820, symSize: 0x3C }
  - { offsetInCU: 0x8B17, offset: 0x1A747, size: 0x8, addend: 0x0, symName: __ZNSt3__115__debug_db_swapB7v160006INS_12basic_stringIcNS_11char_traitsIcEENS_9allocatorIcEEEEEEvPT_S8_, symObjAddr: 0x396C, symBinAddr: 0x10000A9CC, symSize: 0x14 }
  - { offsetInCU: 0x8B80, offset: 0x1A7B0, size: 0x8, addend: 0x0, symName: __ZNSt3__14prevB7v160006IPNS_4pairINS_12basic_stringIcNS_11char_traitsIcEENS_9allocatorIcEEEE8DataTypeEEEENS_9enable_ifIXsr25__is_cpp17_input_iteratorIT_EE5valueESC_E4typeESC_NS_15iterator_traitsISC_E15difference_typeE, symObjAddr: 0x3A54, symBinAddr: 0x10000AA44, symSize: 0x50 }
  - { offsetInCU: 0x8BC3, offset: 0x1A7F3, size: 0x8, addend: 0x0, symName: __ZNSt3__121__convert_to_integralB7v160006El, symObjAddr: 0x3AF4, symBinAddr: 0x10000AAE4, symSize: 0x14 }
  - { offsetInCU: 0x8BEF, offset: 0x1A81F, size: 0x8, addend: 0x0, symName: __ZNSt3__19__advanceB7v160006IPNS_4pairINS_12basic_stringIcNS_11char_traitsIcEENS_9allocatorIcEEEE8DataTypeEEEEvRT_NS_15iterator_traitsISB_E15difference_typeENS_26random_access_iterator_tagE, symObjAddr: 0x3B08, symBinAddr: 0x10000AAF8, symSize: 0x28 }
  - { offsetInCU: 0x8C39, offset: 0x1A869, size: 0x8, addend: 0x0, symName: __ZNSt3__119__allocator_destroyB7v160006INS_9allocatorINS_4pairINS_12basic_stringIcNS_11char_traitsIcEENS1_IcEEEE8DataTypeEEEENS_16reverse_iteratorINSB_IPS9_EEEESE_EEvRT_T0_T1_, symObjAddr: 0x3C34, symBinAddr: 0x10000AC24, symSize: 0x70 }
  - { offsetInCU: 0x8C9E, offset: 0x1A8CE, size: 0x8, addend: 0x0, symName: __ZNSt3__1neB7v160006INS_16reverse_iteratorIPNS_4pairINS_12basic_stringIcNS_11char_traitsIcEENS_9allocatorIcEEEE8DataTypeEEEESC_EEbRKNS1_IT_EERKNS1_IT0_EE, symObjAddr: 0x3CE0, symBinAddr: 0x10000ACD0, symSize: 0x60 }
  - { offsetInCU: 0x8CEA, offset: 0x1A91A, size: 0x8, addend: 0x0, symName: __ZNSt3__112__to_addressB7v160006INS_16reverse_iteratorINS1_IPNS_4pairINS_12basic_stringIcNS_11char_traitsIcEENS_9allocatorIcEEEE8DataTypeEEEEEEvEENS_5decayIDTclsr19__to_address_helperIT_EE6__callclsr3stdE7declvalIRKSF_EEEEE4typeESH_, symObjAddr: 0x3D68, symBinAddr: 0x10000AD58, symSize: 0x24 }
  - { offsetInCU: 0x8D20, offset: 0x1A950, size: 0x8, addend: 0x0, symName: __ZNSt3__110destroy_atB7v160006INS_4pairINS_12basic_stringIcNS_11char_traitsIcEENS_9allocatorIcEEEE8DataTypeEELi0EEEvPT_, symObjAddr: 0x3DE0, symBinAddr: 0x10000ADD0, symSize: 0x24 }
  - { offsetInCU: 0x8D57, offset: 0x1A987, size: 0x8, addend: 0x0, symName: __ZNSt3__112__destroy_atB7v160006INS_4pairINS_12basic_stringIcNS_11char_traitsIcEENS_9allocatorIcEEEE8DataTypeEELi0EEEvPT_, symObjAddr: 0x3E04, symBinAddr: 0x10000ADF4, symSize: 0x24 }
  - { offsetInCU: 0x8DB8, offset: 0x1A9E8, size: 0x8, addend: 0x0, symName: __ZNSt3__14prevB7v160006INS_16reverse_iteratorIPNS_4pairINS_12basic_stringIcNS_11char_traitsIcEENS_9allocatorIcEEEE8DataTypeEEEEEENS_9enable_ifIXsr25__is_cpp17_input_iteratorIT_EE5valueESE_E4typeESE_NS_15iterator_traitsISE_E15difference_typeE, symObjAddr: 0x3F04, symBinAddr: 0x10000AEF4, symSize: 0x60 }
  - { offsetInCU: 0x8DFB, offset: 0x1AA2B, size: 0x8, addend: 0x0, symName: __ZNSt3__19__advanceB7v160006INS_16reverse_iteratorIPNS_4pairINS_12basic_stringIcNS_11char_traitsIcEENS_9allocatorIcEEEE8DataTypeEEEEEEvRT_NS_15iterator_traitsISD_E15difference_typeENS_26random_access_iterator_tagE, symObjAddr: 0x3FB4, symBinAddr: 0x10000AFA4, symSize: 0x2C }
  - { offsetInCU: 0x8E45, offset: 0x1AA75, size: 0x8, addend: 0x0, symName: __ZNSt3__1miB7v160006IPKNS_4pairINS_12basic_stringIcNS_11char_traitsIcEENS_9allocatorIcEEEE8DataTypeEESB_EEDTmicldtfp_4baseEcldtfp0_4baseEERKNS_11__wrap_iterIT_EERKNSD_IT0_EE, symObjAddr: 0x4634, symBinAddr: 0x10000B3CC, symSize: 0x48 }
  - { offsetInCU: 0x8E91, offset: 0x1AAC1, size: 0x8, addend: 0x0, symName: __ZNSt3__14moveB7v160006IPNS_4pairINS_12basic_stringIcNS_11char_traitsIcEENS_9allocatorIcEEEE8DataTypeEESA_EET0_T_SC_SB_, symObjAddr: 0x4708, symBinAddr: 0x10000B4A0, symSize: 0x40 }
  - { offsetInCU: 0x8EEB, offset: 0x1AB1B, size: 0x8, addend: 0x0, symName: __ZNSt3__16__moveB7v160006INS_17_ClassicAlgPolicyEPNS_4pairINS_12basic_stringIcNS_11char_traitsIcEENS_9allocatorIcEEEE8DataTypeEESB_SB_EENS2_IT0_T2_EESC_T1_SD_, symObjAddr: 0x49AC, symBinAddr: 0x10000B744, symSize: 0x44 }
  - { offsetInCU: 0x8F57, offset: 0x1AB87, size: 0x8, addend: 0x0, symName: __ZNSt3__123__dispatch_copy_or_moveB7v160006INS_17_ClassicAlgPolicyENS_11__move_loopIS1_EENS_14__move_trivialEPNS_4pairINS_12basic_stringIcNS_11char_traitsIcEENS_9allocatorIcEEEE8DataTypeEESE_SE_EENS5_IT2_T4_EESF_T3_SG_, symObjAddr: 0x49F0, symBinAddr: 0x10000B788, symSize: 0x44 }
  - { offsetInCU: 0x8FD5, offset: 0x1AC05, size: 0x8, addend: 0x0, symName: __ZNSt3__121__unwrap_and_dispatchB7v160006INS_10__overloadINS_11__move_loopINS_17_ClassicAlgPolicyEEENS_14__move_trivialEEEPNS_4pairINS_12basic_stringIcNS_11char_traitsIcEENS_9allocatorIcEEEE8DataTypeEESG_SG_Li0EEENS7_IT0_T2_EESH_T1_SI_, symObjAddr: 0x4A34, symBinAddr: 0x10000B7CC, symSize: 0xB4 }
  - { offsetInCU: 0x9065, offset: 0x1AC95, size: 0x8, addend: 0x0, symName: __ZNSt3__114__unwrap_rangeB7v160006IPNS_4pairINS_12basic_stringIcNS_11char_traitsIcEENS_9allocatorIcEEEE8DataTypeEESA_EEDaT_T0_, symObjAddr: 0x4AE8, symBinAddr: 0x10000B880, symSize: 0x3C }
  - { offsetInCU: 0x91E0, offset: 0x1AE10, size: 0x8, addend: 0x0, symName: __ZNSt3__113__unwrap_iterB7v160006IPNS_4pairINS_12basic_stringIcNS_11char_traitsIcEENS_9allocatorIcEEEE8DataTypeEENS_18__unwrap_iter_implISA_Lb1EEELi0EEEDTclsrT0_8__unwrapclsr3stdE7declvalIT_EEEESE_, symObjAddr: 0x4BB4, symBinAddr: 0x10000B94C, symSize: 0x24 }
  - { offsetInCU: 0x9224, offset: 0x1AE54, size: 0x8, addend: 0x0, symName: __ZNSt3__19make_pairB7v160006IPNS_4pairINS_12basic_stringIcNS_11char_traitsIcEENS_9allocatorIcEEEE8DataTypeEESA_EENS1_INS_18__unwrap_ref_decayIT_E4typeENSB_IT0_E4typeEEEOSC_OSF_, symObjAddr: 0x4BD8, symBinAddr: 0x10000B970, symSize: 0x38 }
  - { offsetInCU: 0x9273, offset: 0x1AEA3, size: 0x8, addend: 0x0, symName: __ZNSt3__114__rewrap_rangeB7v160006IPNS_4pairINS_12basic_stringIcNS_11char_traitsIcEENS_9allocatorIcEEEE8DataTypeEESA_SA_EET0_SB_T1_, symObjAddr: 0x4C10, symBinAddr: 0x10000B9A8, symSize: 0x2C }
  - { offsetInCU: 0x92C8, offset: 0x1AEF8, size: 0x8, addend: 0x0, symName: __ZNSt3__113__rewrap_iterB7v160006IPNS_4pairINS_12basic_stringIcNS_11char_traitsIcEENS_9allocatorIcEEEE8DataTypeEESA_NS_18__unwrap_iter_implISA_Lb1EEEEET_SD_T0_, symObjAddr: 0x4C3C, symBinAddr: 0x10000B9D4, symSize: 0x3C }
  - { offsetInCU: 0x942A, offset: 0x1B05A, size: 0x8, addend: 0x0, symName: __ZNSt3__18distanceB7v160006IPNS_4pairINS_12basic_stringIcNS_11char_traitsIcEENS_9allocatorIcEEEE8DataTypeEEEENS_15iterator_traitsIT_E15difference_typeESC_SC_, symObjAddr: 0x5598, symBinAddr: 0x10000C17C, symSize: 0x2C }
  - { offsetInCU: 0x946D, offset: 0x1B09D, size: 0x8, addend: 0x0, symName: __ZNSt3__14copyB7v160006IPNS_4pairINS_12basic_stringIcNS_11char_traitsIcEENS_9allocatorIcEEEE8DataTypeEESA_EET0_T_SC_SB_, symObjAddr: 0x5614, symBinAddr: 0x10000C1F8, symSize: 0x40 }
  - { offsetInCU: 0x94C7, offset: 0x1B0F7, size: 0x8, addend: 0x0, symName: __ZNSt3__110__distanceB7v160006IPNS_4pairINS_12basic_stringIcNS_11char_traitsIcEENS_9allocatorIcEEEE8DataTypeEEEENS_15iterator_traitsIT_E15difference_typeESC_SC_NS_26random_access_iterator_tagE, symObjAddr: 0x5818, symBinAddr: 0x10000C3FC, symSize: 0x28 }
  - { offsetInCU: 0x9515, offset: 0x1B145, size: 0x8, addend: 0x0, symName: __ZNSt3__121__convert_to_integralB7v160006Em, symObjAddr: 0x5840, symBinAddr: 0x10000C424, symSize: 0x14 }
  - { offsetInCU: 0x9541, offset: 0x1B171, size: 0x8, addend: 0x0, symName: __ZNSt3__16__copyB7v160006INS_17_ClassicAlgPolicyEPNS_4pairINS_12basic_stringIcNS_11char_traitsIcEENS_9allocatorIcEEEE8DataTypeEESB_SB_EENS2_IT0_T2_EESC_T1_SD_, symObjAddr: 0x5854, symBinAddr: 0x10000C438, symSize: 0x44 }
  - { offsetInCU: 0x95AD, offset: 0x1B1DD, size: 0x8, addend: 0x0, symName: __ZNSt3__123__dispatch_copy_or_moveB7v160006INS_17_ClassicAlgPolicyENS_11__copy_loopIS1_EENS_14__copy_trivialEPNS_4pairINS_12basic_stringIcNS_11char_traitsIcEENS_9allocatorIcEEEE8DataTypeEESE_SE_EENS5_IT2_T4_EESF_T3_SG_, symObjAddr: 0x5898, symBinAddr: 0x10000C47C, symSize: 0x44 }
  - { offsetInCU: 0x962B, offset: 0x1B25B, size: 0x8, addend: 0x0, symName: __ZNSt3__121__unwrap_and_dispatchB7v160006INS_10__overloadINS_11__copy_loopINS_17_ClassicAlgPolicyEEENS_14__copy_trivialEEEPNS_4pairINS_12basic_stringIcNS_11char_traitsIcEENS_9allocatorIcEEEE8DataTypeEESG_SG_Li0EEENS7_IT0_T2_EESH_T1_SI_, symObjAddr: 0x58DC, symBinAddr: 0x10000C4C0, symSize: 0xB4 }
  - { offsetInCU: 0x970D, offset: 0x1B33D, size: 0x8, addend: 0x0, symName: __ZNSt3__130__uninitialized_allocator_copyB7v160006INS_9allocatorINS_4pairINS_12basic_stringIcNS_11char_traitsIcEENS1_IcEEEE8DataTypeEEEEPS9_SB_SB_EET2_RT_T0_T1_SC_, symObjAddr: 0x5A58, symBinAddr: 0x10000C63C, symSize: 0xF4 }
  - { offsetInCU: 0x97AB, offset: 0x1B3DB, size: 0x8, addend: 0x0, symName: __ZNSt3__122__make_exception_guardB7v160006INS_29_AllocatorDestroyRangeReverseINS_9allocatorINS_4pairINS_12basic_stringIcNS_11char_traitsIcEENS2_IcEEEE8DataTypeEEEEPSA_EEEENS_28__exception_guard_exceptionsIT_EESF_, symObjAddr: 0x5B4C, symBinAddr: 0x10000C730, symSize: 0x4C }
  - { offsetInCU: 0x97E1, offset: 0x1B411, size: 0x8, addend: 0x0, symName: __ZNSt3__112construct_atB7v160006INS_4pairINS_12basic_stringIcNS_11char_traitsIcEENS_9allocatorIcEEEE8DataTypeEEJRS9_EPS9_EEPT_SD_DpOT0_, symObjAddr: 0x5CF0, symBinAddr: 0x10000C8D4, symSize: 0x3C }
  - { offsetInCU: 0x9851, offset: 0x1B481, size: 0x8, addend: 0x0, symName: __ZNSt3__119__allocator_destroyB7v160006INS_9allocatorINS_4pairINS_12basic_stringIcNS_11char_traitsIcEENS1_IcEEEE8DataTypeEEEENS_16reverse_iteratorIPS9_EESD_EEvRT_T0_T1_, symObjAddr: 0x5DE4, symBinAddr: 0x10000C9C8, symSize: 0x70 }
  - { offsetInCU: 0x98B4, offset: 0x1B4E4, size: 0x8, addend: 0x0, symName: __ZNSt3__118__debug_db_erase_cB7v160006INS_6vectorINS_4pairINS_12basic_stringIcNS_11char_traitsIcEENS_9allocatorIcEEEE8DataTypeEENS6_ISA_EEEEEEvPT_, symObjAddr: 0x5FFC, symBinAddr: 0x10000CBE0, symSize: 0x10 }
  - { offsetInCU: 0x98E5, offset: 0x1B515, size: 0x8, addend: 0x0, symName: __ZNSt3__1neB7v160006ERKNS_15__tree_iteratorINS_12__value_typeIjPPvEEPNS_11__tree_nodeIS4_S2_EElEESA_, symObjAddr: 0x61A8, symBinAddr: 0x10000CD00, symSize: 0x34 }
  - { offsetInCU: 0x9922, offset: 0x1B552, size: 0x8, addend: 0x0, symName: __ZNSt3__1eqB7v160006ERKNS_15__tree_iteratorINS_12__value_typeIjPPvEEPNS_11__tree_nodeIS4_S2_EElEESA_, symObjAddr: 0x61DC, symBinAddr: 0x10000CD34, symSize: 0x30 }
  - { offsetInCU: 0x9992, offset: 0x1B5C2, size: 0x8, addend: 0x0, symName: __ZNSt3__17launderB7v160006INS_4pairIKjPPvEEEEPT_S7_, symObjAddr: 0x63D4, symBinAddr: 0x10000CE18, symSize: 0x24 }
  - { offsetInCU: 0x99C9, offset: 0x1B5F9, size: 0x8, addend: 0x0, symName: __ZNSt3__19__launderB7v160006INS_4pairIKjPPvEEEEPT_S7_, symObjAddr: 0x63F8, symBinAddr: 0x10000CE3C, symSize: 0x14 }
  - { offsetInCU: 0x9A00, offset: 0x1B630, size: 0x8, addend: 0x0, symName: __ZNSt3__116forward_as_tupleB7v160006IJRKjEEENS_5tupleIJDpOT_EEES6_, symObjAddr: 0x656C, symBinAddr: 0x10000CFB0, symSize: 0x2C }
  - { offsetInCU: 0x9A39, offset: 0x1B669, size: 0x8, addend: 0x0, symName: __ZNSt3__17launderB7v160006IKNS_4pairIKjPPvEEEEPT_S8_, symObjAddr: 0x6C14, symBinAddr: 0x10000D640, symSize: 0x24 }
  - { offsetInCU: 0x9A70, offset: 0x1B6A0, size: 0x8, addend: 0x0, symName: __ZNSt3__19__launderB7v160006IKNS_4pairIKjPPvEEEEPT_S8_, symObjAddr: 0x6C38, symBinAddr: 0x10000D664, symSize: 0x14 }
  - { offsetInCU: 0x9AEA, offset: 0x1B71A, size: 0x8, addend: 0x0, symName: __ZNSt3__112construct_atB7v160006INS_4pairIKjPPvEEJRKNS_21piecewise_construct_tENS_5tupleIJRS2_EEENS9_IJEEEEPS5_EEPT_SF_DpOT0_, symObjAddr: 0x6FDC, symBinAddr: 0x10000DA08, symSize: 0x50 }
  - { offsetInCU: 0x9B80, offset: 0x1B7B0, size: 0x8, addend: 0x0, symName: __ZNSt3__13getB7v160006ILm0EJRKjEEERNS_13tuple_elementIXT_ENS_5tupleIJDpT0_EEEE4typeERS7_, symObjAddr: 0x70F4, symBinAddr: 0x10000DB20, symSize: 0x24 }
  - { offsetInCU: 0x9BC3, offset: 0x1B7F3, size: 0x8, addend: 0x0, symName: __ZNSt3__110destroy_atB7v160006INS_4pairIKjPPvEELi0EEEvPT_, symObjAddr: 0x7810, symBinAddr: 0x10000DDE8, symSize: 0x24 }
  - { offsetInCU: 0x9BFA, offset: 0x1B82A, size: 0x8, addend: 0x0, symName: __ZNSt3__112__destroy_atB7v160006INS_4pairIKjPPvEELi0EEEvPT_, symObjAddr: 0x7834, symBinAddr: 0x10000DE0C, symSize: 0x10 }
  - { offsetInCU: 0x9C79, offset: 0x1B8A9, size: 0x8, addend: 0x0, symName: __ZNSt3__1neB7v160006ERKNS_21__tree_const_iteratorINS_12__value_typeIjPPvEEPNS_11__tree_nodeIS4_S2_EElEESA_, symObjAddr: 0x8B00, symBinAddr: 0x10000E650, symSize: 0x34 }
  - { offsetInCU: 0x9CB6, offset: 0x1B8E6, size: 0x8, addend: 0x0, symName: __ZNSt3__1eqB7v160006ERKNS_21__tree_const_iteratorINS_12__value_typeIjPPvEEPNS_11__tree_nodeIS4_S2_EElEESA_, symObjAddr: 0x8B34, symBinAddr: 0x10000E684, symSize: 0x30 }
  - { offsetInCU: 0xA559, offset: 0x1C189, size: 0x8, addend: 0x0, symName: __ZNSt3__16vectorINS_4pairINS_12basic_stringIcNS_11char_traitsIcEENS_9allocatorIcEEEE8DataTypeEENS5_IS9_EEE26__swap_out_circular_bufferERNS_14__split_bufferIS9_RSA_EE, symObjAddr: 0x2894, symBinAddr: 0x100009B2C, symSize: 0x118 }
  - { offsetInCU: 0xC9A8, offset: 0x1E5D8, size: 0x8, addend: 0x0, symName: __ZN7DbTable9AddColumnERKNSt3__14pairINS0_12basic_stringIcNS0_11char_traitsIcEENS0_9allocatorIcEEEE8DataTypeEE, symObjAddr: 0x0, symBinAddr: 0x100007390, symSize: 0x31C }
  - { offsetInCU: 0xCAC5, offset: 0x1E6F5, size: 0x8, addend: 0x0, symName: __ZNKSt3__16vectorINS_4pairINS_12basic_stringIcNS_11char_traitsIcEENS_9allocatorIcEEEE8DataTypeEENS5_IS9_EEE4sizeB7v160006Ev, symObjAddr: 0x31C, symBinAddr: 0x1000076AC, symSize: 0x28 }
  - { offsetInCU: 0xCAEB, offset: 0x1E71B, size: 0x8, addend: 0x0, symName: __ZNSt3__13mapIjPPvNS_4lessIjEENS_9allocatorINS_4pairIKjS2_EEEEE5beginB7v160006Ev, symObjAddr: 0x344, symBinAddr: 0x1000076D4, symSize: 0x38 }
  - { offsetInCU: 0xCB11, offset: 0x1E741, size: 0x8, addend: 0x0, symName: __ZNSt3__13mapIjPPvNS_4lessIjEENS_9allocatorINS_4pairIKjS2_EEEEE3endB7v160006Ev, symObjAddr: 0x37C, symBinAddr: 0x10000770C, symSize: 0x38 }
  - { offsetInCU: 0xCB37, offset: 0x1E767, size: 0x8, addend: 0x0, symName: __ZNKSt3__114__map_iteratorINS_15__tree_iteratorINS_12__value_typeIjPPvEEPNS_11__tree_nodeIS5_S3_EElEEEdeB7v160006Ev, symObjAddr: 0x3E4, symBinAddr: 0x100007774, symSize: 0x28 }
  - { offsetInCU: 0xCB5D, offset: 0x1E78D, size: 0x8, addend: 0x0, symName: __ZNSt3__114__map_iteratorINS_15__tree_iteratorINS_12__value_typeIjPPvEEPNS_11__tree_nodeIS5_S3_EElEEEppB7v160006Ev, symObjAddr: 0x40C, symBinAddr: 0x10000779C, symSize: 0x2C }
  - { offsetInCU: 0xCB83, offset: 0x1E7B3, size: 0x8, addend: 0x0, symName: __ZNSt3__16vectorINS_4pairINS_12basic_stringIcNS_11char_traitsIcEENS_9allocatorIcEEEE8DataTypeEENS5_IS9_EEE9push_backB7v160006ERKS9_, symObjAddr: 0x438, symBinAddr: 0x1000077C8, symSize: 0x6C }
  - { offsetInCU: 0xCBBF, offset: 0x1E7EF, size: 0x8, addend: 0x0, symName: __ZNSt3__112basic_stringIcNS_11char_traitsIcEENS_9allocatorIcEEEC1B7v160006IDnEEPKc, symObjAddr: 0x4A4, symBinAddr: 0x100007834, symSize: 0x34 }
  - { offsetInCU: 0xCBFD, offset: 0x1E82D, size: 0x8, addend: 0x0, symName: __ZNSt16invalid_argumentC1B7v160006EPKc, symObjAddr: 0x4D8, symBinAddr: 0x100007868, symSize: 0x34 }
  - { offsetInCU: 0xCC35, offset: 0x1E865, size: 0x8, addend: 0x0, symName: __ZN7DbTable17DeleteColumnByIdxEj, symObjAddr: 0x50C, symBinAddr: 0x10000789C, symSize: 0x378 }
  - { offsetInCU: 0xCCF9, offset: 0x1E929, size: 0x8, addend: 0x0, symName: __ZNSt12out_of_rangeC1B7v160006EPKc, symObjAddr: 0x884, symBinAddr: 0x100007C14, symSize: 0x34 }
  - { offsetInCU: 0xCD31, offset: 0x1E961, size: 0x8, addend: 0x0, symName: __ZNKSt3__13mapIjPPvNS_4lessIjEENS_9allocatorINS_4pairIKjS2_EEEEE5emptyB7v160006Ev, symObjAddr: 0x8B8, symBinAddr: 0x100007C48, symSize: 0x34 }
  - { offsetInCU: 0xCD57, offset: 0x1E987, size: 0x8, addend: 0x0, symName: __ZNSt3__16vectorINS_4pairINS_12basic_stringIcNS_11char_traitsIcEENS_9allocatorIcEEEE8DataTypeEENS5_IS9_EEEixB7v160006Em, symObjAddr: 0x8EC, symBinAddr: 0x100007C7C, symSize: 0x24 }
  - { offsetInCU: 0xCD8E, offset: 0x1E9BE, size: 0x8, addend: 0x0, symName: __ZNSt3__16vectorINS_4pairINS_12basic_stringIcNS_11char_traitsIcEENS_9allocatorIcEEEE8DataTypeEENS5_IS9_EEE5eraseB7v160006ENS_11__wrap_iterIPKS9_EE, symObjAddr: 0x910, symBinAddr: 0x100007CA0, symSize: 0xA4 }
  - { offsetInCU: 0xCDE3, offset: 0x1EA13, size: 0x8, addend: 0x0, symName: __ZNSt3__16vectorINS_4pairINS_12basic_stringIcNS_11char_traitsIcEENS_9allocatorIcEEEE8DataTypeEENS5_IS9_EEE5beginB7v160006Ev, symObjAddr: 0x9B4, symBinAddr: 0x100007D44, symSize: 0x30 }
  - { offsetInCU: 0xCE0B, offset: 0x1EA3B, size: 0x8, addend: 0x0, symName: __ZNKSt3__111__wrap_iterIPNS_4pairINS_12basic_stringIcNS_11char_traitsIcEENS_9allocatorIcEEEE8DataTypeEEEplB7v160006El, symObjAddr: 0x9E4, symBinAddr: 0x100007D74, symSize: 0x3C }
  - { offsetInCU: 0xCE58, offset: 0x1EA88, size: 0x8, addend: 0x0, symName: __ZNSt3__111__wrap_iterIPKNS_4pairINS_12basic_stringIcNS_11char_traitsIcEENS_9allocatorIcEEEE8DataTypeEEEC1B7v160006IPS9_EERKNS0_IT_EEPNS_9enable_ifIXsr14is_convertibleISF_SB_EE5valueEvE4typeE, symObjAddr: 0xA20, symBinAddr: 0x100007DB0, symSize: 0x3C }
  - { offsetInCU: 0xCEA4, offset: 0x1EAD4, size: 0x8, addend: 0x0, symName: __ZN7DbTable6AddRowERKSt16initializer_listINSt3__112basic_stringIcNS1_11char_traitsIcEENS1_9allocatorIcEEEEE, symObjAddr: 0xA5C, symBinAddr: 0x100007DEC, symSize: 0x314 }
  - { offsetInCU: 0xCF4C, offset: 0x1EB7C, size: 0x8, addend: 0x0, symName: __ZNKSt16initializer_listINSt3__112basic_stringIcNS0_11char_traitsIcEENS0_9allocatorIcEEEEE4sizeB7v160006Ev, symObjAddr: 0xD70, symBinAddr: 0x100008100, symSize: 0x18 }
  - { offsetInCU: 0xCF72, offset: 0x1EBA2, size: 0x8, addend: 0x0, symName: __ZNSt3__13mapIjPPvNS_4lessIjEENS_9allocatorINS_4pairIKjS2_EEEEEixERS7_, symObjAddr: 0xD88, symBinAddr: 0x100008118, symSize: 0x80 }
  - { offsetInCU: 0xCFA9, offset: 0x1EBD9, size: 0x8, addend: 0x0, symName: __ZNKSt16initializer_listINSt3__112basic_stringIcNS0_11char_traitsIcEENS0_9allocatorIcEEEEE5beginB7v160006Ev, symObjAddr: 0xE08, symBinAddr: 0x100008198, symSize: 0x18 }
  - { offsetInCU: 0xCFCF, offset: 0x1EBFF, size: 0x8, addend: 0x0, symName: __ZNKSt16initializer_listINSt3__112basic_stringIcNS0_11char_traitsIcEENS0_9allocatorIcEEEEE3endB7v160006Ev, symObjAddr: 0xE20, symBinAddr: 0x1000081B0, symSize: 0x28 }
  - { offsetInCU: 0xCFF5, offset: 0x1EC25, size: 0x8, addend: 0x0, symName: __ZN7DbTable13DeleteRowByIdEj, symObjAddr: 0xE48, symBinAddr: 0x1000081D8, symSize: 0x288 }
  - { offsetInCU: 0xD066, offset: 0x1EC96, size: 0x8, addend: 0x0, symName: __ZNSt3__13mapIjPPvNS_4lessIjEENS_9allocatorINS_4pairIKjS2_EEEEE4findB7v160006ERS7_, symObjAddr: 0x10D0, symBinAddr: 0x100008460, symSize: 0x40 }
  - { offsetInCU: 0xD09B, offset: 0x1ECCB, size: 0x8, addend: 0x0, symName: __ZNKSt3__114__map_iteratorINS_15__tree_iteratorINS_12__value_typeIjPPvEEPNS_11__tree_nodeIS5_S3_EElEEEptB7v160006Ev, symObjAddr: 0x1140, symBinAddr: 0x1000084D0, symSize: 0x2C }
  - { offsetInCU: 0xD0C1, offset: 0x1ECF1, size: 0x8, addend: 0x0, symName: __ZNSt3__13mapIjPPvNS_4lessIjEENS_9allocatorINS_4pairIKjS2_EEEEE5eraseB7v160006ERS7_, symObjAddr: 0x116C, symBinAddr: 0x1000084FC, symSize: 0x2C }
  - { offsetInCU: 0xD0F6, offset: 0x1ED26, size: 0x8, addend: 0x0, symName: __ZN7DbTableC2ERKS_, symObjAddr: 0x1198, symBinAddr: 0x100008528, symSize: 0x374 }
  - { offsetInCU: 0xD1BF, offset: 0x1EDEF, size: 0x8, addend: 0x0, symName: __ZNSt3__16vectorINS_4pairINS_12basic_stringIcNS_11char_traitsIcEENS_9allocatorIcEEEE8DataTypeEENS5_IS9_EEEaSB7v160006ERKSB_, symObjAddr: 0x1564, symBinAddr: 0x10000889C, symSize: 0x68 }
  - { offsetInCU: 0xD1F6, offset: 0x1EE26, size: 0x8, addend: 0x0, symName: __ZNKSt3__13mapIjPPvNS_4lessIjEENS_9allocatorINS_4pairIKjS2_EEEEE5beginB7v160006Ev, symObjAddr: 0x15CC, symBinAddr: 0x100008904, symSize: 0x38 }
  - { offsetInCU: 0xD21C, offset: 0x1EE4C, size: 0x8, addend: 0x0, symName: __ZNKSt3__13mapIjPPvNS_4lessIjEENS_9allocatorINS_4pairIKjS2_EEEEE3endB7v160006Ev, symObjAddr: 0x1604, symBinAddr: 0x10000893C, symSize: 0x38 }
  - { offsetInCU: 0xD242, offset: 0x1EE72, size: 0x8, addend: 0x0, symName: __ZNKSt3__120__map_const_iteratorINS_21__tree_const_iteratorINS_12__value_typeIjPPvEEPNS_11__tree_nodeIS5_S3_EElEEEdeB7v160006Ev, symObjAddr: 0x166C, symBinAddr: 0x1000089A4, symSize: 0x28 }
  - { offsetInCU: 0xD268, offset: 0x1EE98, size: 0x8, addend: 0x0, symName: __ZNSt3__120__map_const_iteratorINS_21__tree_const_iteratorINS_12__value_typeIjPPvEEPNS_11__tree_nodeIS5_S3_EElEEEppB7v160006Ev, symObjAddr: 0x1694, symBinAddr: 0x1000089CC, symSize: 0x2C }
  - { offsetInCU: 0xD28E, offset: 0x1EEBE, size: 0x8, addend: 0x0, symName: __ZNSt3__16vectorINS_4pairINS_12basic_stringIcNS_11char_traitsIcEENS_9allocatorIcEEEE8DataTypeEENS5_IS9_EEED1B7v160006Ev, symObjAddr: 0x16C0, symBinAddr: 0x1000089F8, symSize: 0x2C }
  - { offsetInCU: 0xD2B8, offset: 0x1EEE8, size: 0x8, addend: 0x0, symName: __ZNSt3__13mapIjPPvNS_4lessIjEENS_9allocatorINS_4pairIKjS2_EEEEED1B7v160006Ev, symObjAddr: 0x16EC, symBinAddr: 0x100008A24, symSize: 0x2C }
  - { offsetInCU: 0xD2E2, offset: 0x1EF12, size: 0x8, addend: 0x0, symName: __ZN7DbTableC1ERKS_, symObjAddr: 0x1718, symBinAddr: 0x100008A50, symSize: 0x34 }
  - { offsetInCU: 0xD31C, offset: 0x1EF4C, size: 0x8, addend: 0x0, symName: __ZN7DbTableaSERKS_, symObjAddr: 0x174C, symBinAddr: 0x100008A84, symSize: 0x50C }
  - { offsetInCU: 0xD473, offset: 0x1F0A3, size: 0x8, addend: 0x0, symName: __ZNSt3__13mapIjPPvNS_4lessIjEENS_9allocatorINS_4pairIKjS2_EEEEE5clearB7v160006Ev, symObjAddr: 0x1C58, symBinAddr: 0x100008F90, symSize: 0x24 }
  - { offsetInCU: 0xD499, offset: 0x1F0C9, size: 0x8, addend: 0x0, symName: __ZN7DbTableD2Ev, symObjAddr: 0x1C7C, symBinAddr: 0x100008FB4, symSize: 0x2E8 }
  - { offsetInCU: 0xD549, offset: 0x1F179, size: 0x8, addend: 0x0, symName: __ZNKSt3__13mapIjPPvNS_4lessIjEENS_9allocatorINS_4pairIKjS2_EEEEE4sizeB7v160006Ev, symObjAddr: 0x1FB8, symBinAddr: 0x10000929C, symSize: 0x28 }
  - { offsetInCU: 0xD56F, offset: 0x1F19F, size: 0x8, addend: 0x0, symName: __ZN7DbTableD1Ev, symObjAddr: 0x1FE0, symBinAddr: 0x1000092C4, symSize: 0x2C }
  - { offsetInCU: 0xD59A, offset: 0x1F1CA, size: 0x8, addend: 0x0, symName: __ZlsRNSt3__113basic_ostreamIcNS_11char_traitsIcEEEERK7DbTable, symObjAddr: 0x200C, symBinAddr: 0x1000092F0, symSize: 0x338 }
  - { offsetInCU: 0xD682, offset: 0x1F2B2, size: 0x8, addend: 0x0, symName: __ZNKSt3__16vectorINS_4pairINS_12basic_stringIcNS_11char_traitsIcEENS_9allocatorIcEEEE8DataTypeEENS5_IS9_EEEixB7v160006Em, symObjAddr: 0x2390, symBinAddr: 0x100009628, symSize: 0x24 }
  - { offsetInCU: 0xD6B9, offset: 0x1F2E9, size: 0x8, addend: 0x0, symName: __ZNSt3__16vectorINS_4pairINS_12basic_stringIcNS_11char_traitsIcEENS_9allocatorIcEEEE8DataTypeEENS5_IS9_EEE9__end_capB7v160006Ev, symObjAddr: 0x23B4, symBinAddr: 0x10000964C, symSize: 0x28 }
  - { offsetInCU: 0xD6DF, offset: 0x1F30F, size: 0x8, addend: 0x0, symName: __ZNSt3__16vectorINS_4pairINS_12basic_stringIcNS_11char_traitsIcEENS_9allocatorIcEEEE8DataTypeEENS5_IS9_EEE22__construct_one_at_endB7v160006IJRKS9_EEEvDpOT_, symObjAddr: 0x23DC, symBinAddr: 0x100009674, symSize: 0x90 }
  - { offsetInCU: 0xD72E, offset: 0x1F35E, size: 0x8, addend: 0x0, symName: __ZNSt3__16vectorINS_4pairINS_12basic_stringIcNS_11char_traitsIcEENS_9allocatorIcEEEE8DataTypeEENS5_IS9_EEE21__push_back_slow_pathIRKS9_EEvOT_, symObjAddr: 0x246C, symBinAddr: 0x100009704, symSize: 0xD8 }
  - { offsetInCU: 0xD78C, offset: 0x1F3BC, size: 0x8, addend: 0x0, symName: __ZNSt3__117__compressed_pairIPNS_4pairINS_12basic_stringIcNS_11char_traitsIcEENS_9allocatorIcEEEE8DataTypeEENS5_IS9_EEE5firstB7v160006Ev, symObjAddr: 0x2544, symBinAddr: 0x1000097DC, symSize: 0x24 }
  - { offsetInCU: 0xD7B2, offset: 0x1F3E2, size: 0x8, addend: 0x0, symName: __ZNSt3__122__compressed_pair_elemIPNS_4pairINS_12basic_stringIcNS_11char_traitsIcEENS_9allocatorIcEEEE8DataTypeEELi0ELb0EE5__getB7v160006Ev, symObjAddr: 0x2568, symBinAddr: 0x100009800, symSize: 0x14 }
  - { offsetInCU: 0xD7F1, offset: 0x1F421, size: 0x8, addend: 0x0, symName: __ZNSt3__16vectorINS_4pairINS_12basic_stringIcNS_11char_traitsIcEENS_9allocatorIcEEEE8DataTypeEENS5_IS9_EEE21_ConstructTransactionC1B7v160006ERSB_m, symObjAddr: 0x257C, symBinAddr: 0x100009814, symSize: 0x3C }
  - { offsetInCU: 0xD839, offset: 0x1F469, size: 0x8, addend: 0x0, symName: __ZNSt3__116allocator_traitsINS_9allocatorINS_4pairINS_12basic_stringIcNS_11char_traitsIcEENS1_IcEEEE8DataTypeEEEEE9constructB7v160006IS9_JRKS9_EvvEEvRSA_PT_DpOT0_, symObjAddr: 0x25B8, symBinAddr: 0x100009850, symSize: 0x30 }
  - { offsetInCU: 0xD88D, offset: 0x1F4BD, size: 0x8, addend: 0x0, symName: __ZNSt3__16vectorINS_4pairINS_12basic_stringIcNS_11char_traitsIcEENS_9allocatorIcEEEE8DataTypeEENS5_IS9_EEE7__allocB7v160006Ev, symObjAddr: 0x25E8, symBinAddr: 0x100009880, symSize: 0x28 }
  - { offsetInCU: 0xD8B3, offset: 0x1F4E3, size: 0x8, addend: 0x0, symName: __ZNSt3__16vectorINS_4pairINS_12basic_stringIcNS_11char_traitsIcEENS_9allocatorIcEEEE8DataTypeEENS5_IS9_EEE21_ConstructTransactionD1B7v160006Ev, symObjAddr: 0x2624, symBinAddr: 0x1000098BC, symSize: 0x2C }
  - { offsetInCU: 0xD8DD, offset: 0x1F50D, size: 0x8, addend: 0x0, symName: __ZNSt3__16vectorINS_4pairINS_12basic_stringIcNS_11char_traitsIcEENS_9allocatorIcEEEE8DataTypeEENS5_IS9_EEE21_ConstructTransactionC2B7v160006ERSB_m, symObjAddr: 0x2650, symBinAddr: 0x1000098E8, symSize: 0x44 }
  - { offsetInCU: 0xD925, offset: 0x1F555, size: 0x8, addend: 0x0, symName: __ZNSt3__14pairINS_12basic_stringIcNS_11char_traitsIcEENS_9allocatorIcEEEE8DataTypeEC1ERKS8_, symObjAddr: 0x26D0, symBinAddr: 0x100009968, symSize: 0x34 }
  - { offsetInCU: 0xD95A, offset: 0x1F58A, size: 0x8, addend: 0x0, symName: __ZNSt3__14pairINS_12basic_stringIcNS_11char_traitsIcEENS_9allocatorIcEEEE8DataTypeEC2ERKS8_, symObjAddr: 0x2704, symBinAddr: 0x10000999C, symSize: 0x40 }
  - { offsetInCU: 0xD98F, offset: 0x1F5BF, size: 0x8, addend: 0x0, symName: __ZNSt3__117__compressed_pairIPNS_4pairINS_12basic_stringIcNS_11char_traitsIcEENS_9allocatorIcEEEE8DataTypeEENS5_IS9_EEE6secondB7v160006Ev, symObjAddr: 0x2744, symBinAddr: 0x1000099DC, symSize: 0x24 }
  - { offsetInCU: 0xD9B5, offset: 0x1F5E5, size: 0x8, addend: 0x0, symName: __ZNSt3__122__compressed_pair_elemINS_9allocatorINS_4pairINS_12basic_stringIcNS_11char_traitsIcEENS1_IcEEEE8DataTypeEEEELi1ELb1EE5__getB7v160006Ev, symObjAddr: 0x2768, symBinAddr: 0x100009A00, symSize: 0x14 }
  - { offsetInCU: 0xD9DB, offset: 0x1F60B, size: 0x8, addend: 0x0, symName: __ZNSt3__16vectorINS_4pairINS_12basic_stringIcNS_11char_traitsIcEENS_9allocatorIcEEEE8DataTypeEENS5_IS9_EEE21_ConstructTransactionD2B7v160006Ev, symObjAddr: 0x277C, symBinAddr: 0x100009A14, symSize: 0x20 }
  - { offsetInCU: 0xDA05, offset: 0x1F635, size: 0x8, addend: 0x0, symName: __ZNKSt3__16vectorINS_4pairINS_12basic_stringIcNS_11char_traitsIcEENS_9allocatorIcEEEE8DataTypeEENS5_IS9_EEE11__recommendB7v160006Em, symObjAddr: 0x279C, symBinAddr: 0x100009A34, symSize: 0xB4 }
  - { offsetInCU: 0xDA5A, offset: 0x1F68A, size: 0x8, addend: 0x0, symName: __ZNSt3__114__split_bufferINS_4pairINS_12basic_stringIcNS_11char_traitsIcEENS_9allocatorIcEEEE8DataTypeEERNS5_IS9_EEEC1EmmSB_, symObjAddr: 0x2850, symBinAddr: 0x100009AE8, symSize: 0x44 }
  - { offsetInCU: 0xDAB0, offset: 0x1F6E0, size: 0x8, addend: 0x0, symName: __ZNSt3__114__split_bufferINS_4pairINS_12basic_stringIcNS_11char_traitsIcEENS_9allocatorIcEEEE8DataTypeEERNS5_IS9_EEED1Ev, symObjAddr: 0x29AC, symBinAddr: 0x100009C44, symSize: 0x2C }
  - { offsetInCU: 0xDADC, offset: 0x1F70C, size: 0x8, addend: 0x0, symName: __ZNKSt3__16vectorINS_4pairINS_12basic_stringIcNS_11char_traitsIcEENS_9allocatorIcEEEE8DataTypeEENS5_IS9_EEE8max_sizeEv, symObjAddr: 0x29D8, symBinAddr: 0x100009C70, symSize: 0x60 }
  - { offsetInCU: 0xDB04, offset: 0x1F734, size: 0x8, addend: 0x0, symName: __ZNKSt3__16vectorINS_4pairINS_12basic_stringIcNS_11char_traitsIcEENS_9allocatorIcEEEE8DataTypeEENS5_IS9_EEE20__throw_length_errorB7v160006Ev, symObjAddr: 0x2A38, symBinAddr: 0x100009CD0, symSize: 0x1C }
  - { offsetInCU: 0xDB2A, offset: 0x1F75A, size: 0x8, addend: 0x0, symName: __ZNKSt3__16vectorINS_4pairINS_12basic_stringIcNS_11char_traitsIcEENS_9allocatorIcEEEE8DataTypeEENS5_IS9_EEE8capacityB7v160006Ev, symObjAddr: 0x2A54, symBinAddr: 0x100009CEC, symSize: 0x40 }
  - { offsetInCU: 0xDB5A, offset: 0x1F78A, size: 0x8, addend: 0x0, symName: __ZNSt3__116allocator_traitsINS_9allocatorINS_4pairINS_12basic_stringIcNS_11char_traitsIcEENS1_IcEEEE8DataTypeEEEEE8max_sizeB7v160006ISA_vvEEmRKSA_, symObjAddr: 0x2AEC, symBinAddr: 0x100009D58, symSize: 0x28 }
  - { offsetInCU: 0xDB85, offset: 0x1F7B5, size: 0x8, addend: 0x0, symName: __ZNKSt3__16vectorINS_4pairINS_12basic_stringIcNS_11char_traitsIcEENS_9allocatorIcEEEE8DataTypeEENS5_IS9_EEE7__allocB7v160006Ev, symObjAddr: 0x2B14, symBinAddr: 0x100009D80, symSize: 0x28 }
  - { offsetInCU: 0xDBAB, offset: 0x1F7DB, size: 0x8, addend: 0x0, symName: __ZNSt3__114numeric_limitsIlE3maxB7v160006Ev, symObjAddr: 0x2B3C, symBinAddr: 0x100009DA8, symSize: 0x14 }
  - { offsetInCU: 0xDBBF, offset: 0x1F7EF, size: 0x8, addend: 0x0, symName: __ZNKSt3__117__compressed_pairIPNS_4pairINS_12basic_stringIcNS_11char_traitsIcEENS_9allocatorIcEEEE8DataTypeEENS5_IS9_EEE6secondB7v160006Ev, symObjAddr: 0x2BF4, symBinAddr: 0x100009DBC, symSize: 0x24 }
  - { offsetInCU: 0xDBE5, offset: 0x1F815, size: 0x8, addend: 0x0, symName: __ZNKSt3__122__compressed_pair_elemINS_9allocatorINS_4pairINS_12basic_stringIcNS_11char_traitsIcEENS1_IcEEEE8DataTypeEEEELi1ELb1EE5__getB7v160006Ev, symObjAddr: 0x2C18, symBinAddr: 0x100009DE0, symSize: 0x14 }
  - { offsetInCU: 0xDC0B, offset: 0x1F83B, size: 0x8, addend: 0x0, symName: __ZNSt3__123__libcpp_numeric_limitsIlLb1EE3maxB7v160006Ev, symObjAddr: 0x2C2C, symBinAddr: 0x100009DF4, symSize: 0x8 }
  - { offsetInCU: 0xDC1F, offset: 0x1F84F, size: 0x8, addend: 0x0, symName: __ZNSt12length_errorC1B7v160006EPKc, symObjAddr: 0x2C98, symBinAddr: 0x100009E60, symSize: 0x34 }
  - { offsetInCU: 0xDC57, offset: 0x1F887, size: 0x8, addend: 0x0, symName: __ZNSt12length_errorC2B7v160006EPKc, symObjAddr: 0x2CCC, symBinAddr: 0x100009E94, symSize: 0x4C }
  - { offsetInCU: 0xDC8F, offset: 0x1F8BF, size: 0x8, addend: 0x0, symName: __ZNKSt3__16vectorINS_4pairINS_12basic_stringIcNS_11char_traitsIcEENS_9allocatorIcEEEE8DataTypeEENS5_IS9_EEE9__end_capB7v160006Ev, symObjAddr: 0x2D18, symBinAddr: 0x100009EE0, symSize: 0x28 }
  - { offsetInCU: 0xDCB5, offset: 0x1F8E5, size: 0x8, addend: 0x0, symName: __ZNKSt3__117__compressed_pairIPNS_4pairINS_12basic_stringIcNS_11char_traitsIcEENS_9allocatorIcEEEE8DataTypeEENS5_IS9_EEE5firstB7v160006Ev, symObjAddr: 0x2D40, symBinAddr: 0x100009F08, symSize: 0x24 }
  - { offsetInCU: 0xDCDB, offset: 0x1F90B, size: 0x8, addend: 0x0, symName: __ZNKSt3__122__compressed_pair_elemIPNS_4pairINS_12basic_stringIcNS_11char_traitsIcEENS_9allocatorIcEEEE8DataTypeEELi0ELb0EE5__getB7v160006Ev, symObjAddr: 0x2D64, symBinAddr: 0x100009F2C, symSize: 0x14 }
  - { offsetInCU: 0xDD01, offset: 0x1F931, size: 0x8, addend: 0x0, symName: __ZNSt3__114__split_bufferINS_4pairINS_12basic_stringIcNS_11char_traitsIcEENS_9allocatorIcEEEE8DataTypeEERNS5_IS9_EEEC2EmmSB_, symObjAddr: 0x2DCC, symBinAddr: 0x100009F94, symSize: 0xD4 }
  - { offsetInCU: 0xDD79, offset: 0x1F9A9, size: 0x8, addend: 0x0, symName: __ZNSt3__117__compressed_pairIPNS_4pairINS_12basic_stringIcNS_11char_traitsIcEENS_9allocatorIcEEEE8DataTypeEERNS5_IS9_EEEC1B7v160006IDnSC_EEOT_OT0_, symObjAddr: 0x2EA0, symBinAddr: 0x10000A068, symSize: 0x3C }
  - { offsetInCU: 0xDDD1, offset: 0x1FA01, size: 0x8, addend: 0x0, symName: __ZNSt3__114__split_bufferINS_4pairINS_12basic_stringIcNS_11char_traitsIcEENS_9allocatorIcEEEE8DataTypeEERNS5_IS9_EEE7__allocB7v160006Ev, symObjAddr: 0x2F1C, symBinAddr: 0x10000A0E4, symSize: 0x28 }
  - { offsetInCU: 0xDDF7, offset: 0x1FA27, size: 0x8, addend: 0x0, symName: __ZNSt3__114__split_bufferINS_4pairINS_12basic_stringIcNS_11char_traitsIcEENS_9allocatorIcEEEE8DataTypeEERNS5_IS9_EEE9__end_capB7v160006Ev, symObjAddr: 0x2F44, symBinAddr: 0x10000A10C, symSize: 0x28 }
  - { offsetInCU: 0xDE1D, offset: 0x1FA4D, size: 0x8, addend: 0x0, symName: __ZNSt3__117__compressed_pairIPNS_4pairINS_12basic_stringIcNS_11char_traitsIcEENS_9allocatorIcEEEE8DataTypeEERNS5_IS9_EEEC2B7v160006IDnSC_EEOT_OT0_, symObjAddr: 0x2F6C, symBinAddr: 0x10000A134, symSize: 0x48 }
  - { offsetInCU: 0xDE75, offset: 0x1FAA5, size: 0x8, addend: 0x0, symName: __ZNSt3__122__compressed_pair_elemIRNS_9allocatorINS_4pairINS_12basic_stringIcNS_11char_traitsIcEENS1_IcEEEE8DataTypeEEEELi1ELb0EEC2B7v160006ISB_vEEOT_, symObjAddr: 0x2FD0, symBinAddr: 0x10000A17C, symSize: 0x20 }
  - { offsetInCU: 0xDEB7, offset: 0x1FAE7, size: 0x8, addend: 0x0, symName: __ZNSt3__19allocatorINS_4pairINS_12basic_stringIcNS_11char_traitsIcEENS0_IcEEEE8DataTypeEEE8allocateB7v160006Em, symObjAddr: 0x2FF0, symBinAddr: 0x10000A19C, symSize: 0x58 }
  - { offsetInCU: 0xDEEB, offset: 0x1FB1B, size: 0x8, addend: 0x0, symName: __ZNSt3__117__compressed_pairIPNS_4pairINS_12basic_stringIcNS_11char_traitsIcEENS_9allocatorIcEEEE8DataTypeEERNS5_IS9_EEE6secondB7v160006Ev, symObjAddr: 0x314C, symBinAddr: 0x10000A1F4, symSize: 0x28 }
  - { offsetInCU: 0xDF11, offset: 0x1FB41, size: 0x8, addend: 0x0, symName: __ZNSt3__122__compressed_pair_elemIRNS_9allocatorINS_4pairINS_12basic_stringIcNS_11char_traitsIcEENS1_IcEEEE8DataTypeEEEELi1ELb0EE5__getB7v160006Ev, symObjAddr: 0x3174, symBinAddr: 0x10000A21C, symSize: 0x18 }
  - { offsetInCU: 0xDF37, offset: 0x1FB67, size: 0x8, addend: 0x0, symName: __ZNSt3__117__compressed_pairIPNS_4pairINS_12basic_stringIcNS_11char_traitsIcEENS_9allocatorIcEEEE8DataTypeEERNS5_IS9_EEE5firstB7v160006Ev, symObjAddr: 0x318C, symBinAddr: 0x10000A234, symSize: 0x24 }
  - { offsetInCU: 0xDF5D, offset: 0x1FB8D, size: 0x8, addend: 0x0, symName: __ZNKSt3__16vectorINS_4pairINS_12basic_stringIcNS_11char_traitsIcEENS_9allocatorIcEEEE8DataTypeEENS5_IS9_EEE17__annotate_deleteB7v160006Ev, symObjAddr: 0x31B0, symBinAddr: 0x10000A258, symSize: 0xB8 }
  - { offsetInCU: 0xDF83, offset: 0x1FBB3, size: 0x8, addend: 0x0, symName: __ZNSt3__116reverse_iteratorIPNS_4pairINS_12basic_stringIcNS_11char_traitsIcEENS_9allocatorIcEEEE8DataTypeEEEC1B7v160006ESA_, symObjAddr: 0x3394, symBinAddr: 0x10000A43C, symSize: 0x34 }
  - { offsetInCU: 0xDFBB, offset: 0x1FBEB, size: 0x8, addend: 0x0, symName: __ZNKSt3__116reverse_iteratorIPNS_4pairINS_12basic_stringIcNS_11char_traitsIcEENS_9allocatorIcEEEE8DataTypeEEE4baseB7v160006Ev, symObjAddr: 0x33C8, symBinAddr: 0x10000A470, symSize: 0x18 }
  - { offsetInCU: 0xDFE1, offset: 0x1FC11, size: 0x8, addend: 0x0, symName: __ZNKSt3__16vectorINS_4pairINS_12basic_stringIcNS_11char_traitsIcEENS_9allocatorIcEEEE8DataTypeEENS5_IS9_EEE14__annotate_newB7v160006Em, symObjAddr: 0x341C, symBinAddr: 0x10000A4C4, symSize: 0xAC }
  - { offsetInCU: 0xE016, offset: 0x1FC46, size: 0x8, addend: 0x0, symName: __ZNKSt3__16vectorINS_4pairINS_12basic_stringIcNS_11char_traitsIcEENS_9allocatorIcEEEE8DataTypeEENS5_IS9_EEE31__annotate_contiguous_containerB7v160006EPKvSD_SD_SD_, symObjAddr: 0x34D8, symBinAddr: 0x10000A580, symSize: 0x20 }
  - { offsetInCU: 0xE068, offset: 0x1FC98, size: 0x8, addend: 0x0, symName: __ZNKSt3__16vectorINS_4pairINS_12basic_stringIcNS_11char_traitsIcEENS_9allocatorIcEEEE8DataTypeEENS5_IS9_EEE4dataB7v160006Ev, symObjAddr: 0x34F8, symBinAddr: 0x10000A5A0, symSize: 0x28 }
  - { offsetInCU: 0xE08E, offset: 0x1FCBE, size: 0x8, addend: 0x0, symName: __ZNSt3__129_AllocatorDestroyRangeReverseINS_9allocatorINS_4pairINS_12basic_stringIcNS_11char_traitsIcEENS1_IcEEEE8DataTypeEEEENS_16reverse_iteratorIPS9_EEEC1B7v160006ERSA_RSD_SG_, symObjAddr: 0x356C, symBinAddr: 0x10000A614, symSize: 0x44 }
  - { offsetInCU: 0xE0E5, offset: 0x1FD15, size: 0x8, addend: 0x0, symName: __ZNSt3__116allocator_traitsINS_9allocatorINS_4pairINS_12basic_stringIcNS_11char_traitsIcEENS1_IcEEEE8DataTypeEEEEE9constructB7v160006IS9_JS9_EvvEEvRSA_PT_DpOT0_, symObjAddr: 0x35F8, symBinAddr: 0x10000A6A0, symSize: 0x30 }
  - { offsetInCU: 0xE139, offset: 0x1FD69, size: 0x8, addend: 0x0, symName: __ZNKSt3__116reverse_iteratorIPNS_4pairINS_12basic_stringIcNS_11char_traitsIcEENS_9allocatorIcEEEE8DataTypeEEEdeB7v160006Ev, symObjAddr: 0x364C, symBinAddr: 0x10000A6F4, symSize: 0x28 }
  - { offsetInCU: 0xE16E, offset: 0x1FD9E, size: 0x8, addend: 0x0, symName: __ZNSt3__116reverse_iteratorIPNS_4pairINS_12basic_stringIcNS_11char_traitsIcEENS_9allocatorIcEEEE8DataTypeEEEppB7v160006Ev, symObjAddr: 0x3674, symBinAddr: 0x10000A71C, symSize: 0x20 }
  - { offsetInCU: 0xE194, offset: 0x1FDC4, size: 0x8, addend: 0x0, symName: __ZNSt3__128__exception_guard_exceptionsINS_29_AllocatorDestroyRangeReverseINS_9allocatorINS_4pairINS_12basic_stringIcNS_11char_traitsIcEENS2_IcEEEE8DataTypeEEEENS_16reverse_iteratorIPSA_EEEEE10__completeB7v160006Ev, symObjAddr: 0x3694, symBinAddr: 0x10000A73C, symSize: 0x1C }
  - { offsetInCU: 0xE1BA, offset: 0x1FDEA, size: 0x8, addend: 0x0, symName: __ZNSt3__128__exception_guard_exceptionsINS_29_AllocatorDestroyRangeReverseINS_9allocatorINS_4pairINS_12basic_stringIcNS_11char_traitsIcEENS2_IcEEEE8DataTypeEEEENS_16reverse_iteratorIPSA_EEEEED1B7v160006Ev, symObjAddr: 0x36B0, symBinAddr: 0x10000A758, symSize: 0x2C }
  - { offsetInCU: 0xE1E4, offset: 0x1FE14, size: 0x8, addend: 0x0, symName: __ZNSt3__128__exception_guard_exceptionsINS_29_AllocatorDestroyRangeReverseINS_9allocatorINS_4pairINS_12basic_stringIcNS_11char_traitsIcEENS2_IcEEEE8DataTypeEEEENS_16reverse_iteratorIPSA_EEEEEC1B7v160006ESF_, symObjAddr: 0x36DC, symBinAddr: 0x10000A784, symSize: 0x34 }
  - { offsetInCU: 0xE21D, offset: 0x1FE4D, size: 0x8, addend: 0x0, symName: __ZNSt3__128__exception_guard_exceptionsINS_29_AllocatorDestroyRangeReverseINS_9allocatorINS_4pairINS_12basic_stringIcNS_11char_traitsIcEENS2_IcEEEE8DataTypeEEEENS_16reverse_iteratorIPSA_EEEEEC2B7v160006ESF_, symObjAddr: 0x3710, symBinAddr: 0x10000A7B8, symSize: 0x30 }
  - { offsetInCU: 0xE256, offset: 0x1FE86, size: 0x8, addend: 0x0, symName: __ZNSt3__129_AllocatorDestroyRangeReverseINS_9allocatorINS_4pairINS_12basic_stringIcNS_11char_traitsIcEENS1_IcEEEE8DataTypeEEEENS_16reverse_iteratorIPS9_EEEC2B7v160006ERSA_RSD_SG_, symObjAddr: 0x3740, symBinAddr: 0x10000A7E8, symSize: 0x38 }
  - { offsetInCU: 0xE2AD, offset: 0x1FEDD, size: 0x8, addend: 0x0, symName: __ZNSt3__14pairINS_12basic_stringIcNS_11char_traitsIcEENS_9allocatorIcEEEE8DataTypeEC1EOS8_, symObjAddr: 0x37B4, symBinAddr: 0x10000A85C, symSize: 0x34 }
  - { offsetInCU: 0xE2E2, offset: 0x1FF12, size: 0x8, addend: 0x0, symName: __ZNSt3__14pairINS_12basic_stringIcNS_11char_traitsIcEENS_9allocatorIcEEEE8DataTypeEC2EOS8_, symObjAddr: 0x37E8, symBinAddr: 0x10000A890, symSize: 0x40 }
  - { offsetInCU: 0xE317, offset: 0x1FF47, size: 0x8, addend: 0x0, symName: __ZNSt3__112basic_stringIcNS_11char_traitsIcEENS_9allocatorIcEEEC1B7v160006EOS5_, symObjAddr: 0x3828, symBinAddr: 0x10000A8D0, symSize: 0x34 }
  - { offsetInCU: 0xE350, offset: 0x1FF80, size: 0x8, addend: 0x0, symName: __ZNSt3__112basic_stringIcNS_11char_traitsIcEENS_9allocatorIcEEEC2B7v160006EOS5_, symObjAddr: 0x385C, symBinAddr: 0x10000A904, symSize: 0x88 }
  - { offsetInCU: 0xE389, offset: 0x1FFB9, size: 0x8, addend: 0x0, symName: __ZNSt3__112basic_stringIcNS_11char_traitsIcEENS_9allocatorIcEEE14__default_initB7v160006Ev, symObjAddr: 0x38E4, symBinAddr: 0x10000A98C, symSize: 0x40 }
  - { offsetInCU: 0xE3B4, offset: 0x1FFE4, size: 0x8, addend: 0x0, symName: __ZNSt3__119__to_address_helperINS_16reverse_iteratorIPNS_4pairINS_12basic_stringIcNS_11char_traitsIcEENS_9allocatorIcEEEE8DataTypeEEEEvE6__callB7v160006ERKSC_, symObjAddr: 0x39F0, symBinAddr: 0x10000A9E0, symSize: 0x38 }
  - { offsetInCU: 0xE3D7, offset: 0x20007, size: 0x8, addend: 0x0, symName: __ZNKSt3__116reverse_iteratorIPNS_4pairINS_12basic_stringIcNS_11char_traitsIcEENS_9allocatorIcEEEE8DataTypeEEEptB7v160006Ev, symObjAddr: 0x3A28, symBinAddr: 0x10000AA18, symSize: 0x2C }
  - { offsetInCU: 0xE3FD, offset: 0x2002D, size: 0x8, addend: 0x0, symName: __ZNSt3__128__exception_guard_exceptionsINS_29_AllocatorDestroyRangeReverseINS_9allocatorINS_4pairINS_12basic_stringIcNS_11char_traitsIcEENS2_IcEEEE8DataTypeEEEENS_16reverse_iteratorIPSA_EEEEED2B7v160006Ev, symObjAddr: 0x3B30, symBinAddr: 0x10000AB20, symSize: 0x50 }
  - { offsetInCU: 0xE427, offset: 0x20057, size: 0x8, addend: 0x0, symName: __ZNKSt3__129_AllocatorDestroyRangeReverseINS_9allocatorINS_4pairINS_12basic_stringIcNS_11char_traitsIcEENS1_IcEEEE8DataTypeEEEENS_16reverse_iteratorIPS9_EEEclB7v160006Ev, symObjAddr: 0x3B80, symBinAddr: 0x10000AB70, symSize: 0xB4 }
  - { offsetInCU: 0xE44E, offset: 0x2007E, size: 0x8, addend: 0x0, symName: __ZNSt3__116reverse_iteratorINS0_IPNS_4pairINS_12basic_stringIcNS_11char_traitsIcEENS_9allocatorIcEEEE8DataTypeEEEEEC1B7v160006ESB_, symObjAddr: 0x3CA4, symBinAddr: 0x10000AC94, symSize: 0x3C }
  - { offsetInCU: 0xE486, offset: 0x200B6, size: 0x8, addend: 0x0, symName: __ZNSt3__116allocator_traitsINS_9allocatorINS_4pairINS_12basic_stringIcNS_11char_traitsIcEENS1_IcEEEE8DataTypeEEEEE7destroyB7v160006IS9_vvEEvRSA_PT_, symObjAddr: 0x3D40, symBinAddr: 0x10000AD30, symSize: 0x28 }
  - { offsetInCU: 0xE4C0, offset: 0x200F0, size: 0x8, addend: 0x0, symName: __ZNSt3__116reverse_iteratorINS0_IPNS_4pairINS_12basic_stringIcNS_11char_traitsIcEENS_9allocatorIcEEEE8DataTypeEEEEEppB7v160006Ev, symObjAddr: 0x3D8C, symBinAddr: 0x10000AD7C, symSize: 0x30 }
  - { offsetInCU: 0xE4E6, offset: 0x20116, size: 0x8, addend: 0x0, symName: __ZNKSt3__116reverse_iteratorINS0_IPNS_4pairINS_12basic_stringIcNS_11char_traitsIcEENS_9allocatorIcEEEE8DataTypeEEEEE4baseB7v160006Ev, symObjAddr: 0x3DBC, symBinAddr: 0x10000ADAC, symSize: 0x24 }
  - { offsetInCU: 0xE50C, offset: 0x2013C, size: 0x8, addend: 0x0, symName: __ZNSt3__14pairINS_12basic_stringIcNS_11char_traitsIcEENS_9allocatorIcEEEE8DataTypeED1Ev, symObjAddr: 0x3E28, symBinAddr: 0x10000AE18, symSize: 0x2C }
  - { offsetInCU: 0xE538, offset: 0x20168, size: 0x8, addend: 0x0, symName: __ZNSt3__14pairINS_12basic_stringIcNS_11char_traitsIcEENS_9allocatorIcEEEE8DataTypeED2Ev, symObjAddr: 0x3E54, symBinAddr: 0x10000AE44, symSize: 0x2C }
  - { offsetInCU: 0xE569, offset: 0x20199, size: 0x8, addend: 0x0, symName: __ZNSt3__119__to_address_helperINS_16reverse_iteratorINS1_IPNS_4pairINS_12basic_stringIcNS_11char_traitsIcEENS_9allocatorIcEEEE8DataTypeEEEEEEvE6__callB7v160006ERKSD_, symObjAddr: 0x3E80, symBinAddr: 0x10000AE70, symSize: 0x38 }
  - { offsetInCU: 0xE58C, offset: 0x201BC, size: 0x8, addend: 0x0, symName: __ZNKSt3__116reverse_iteratorINS0_IPNS_4pairINS_12basic_stringIcNS_11char_traitsIcEENS_9allocatorIcEEEE8DataTypeEEEEEptB7v160006Ev, symObjAddr: 0x3EB8, symBinAddr: 0x10000AEA8, symSize: 0x4C }
  - { offsetInCU: 0xE5B2, offset: 0x201E2, size: 0x8, addend: 0x0, symName: __ZNSt3__116reverse_iteratorIPNS_4pairINS_12basic_stringIcNS_11char_traitsIcEENS_9allocatorIcEEEE8DataTypeEEEpLB7v160006El, symObjAddr: 0x3FE0, symBinAddr: 0x10000AFD0, symSize: 0x30 }
  - { offsetInCU: 0xE5E6, offset: 0x20216, size: 0x8, addend: 0x0, symName: __ZNSt3__116reverse_iteratorIPNS_4pairINS_12basic_stringIcNS_11char_traitsIcEENS_9allocatorIcEEEE8DataTypeEEEmmB7v160006Ev, symObjAddr: 0x4010, symBinAddr: 0x10000B000, symSize: 0x20 }
  - { offsetInCU: 0xE60C, offset: 0x2023C, size: 0x8, addend: 0x0, symName: __ZNSt3__116reverse_iteratorINS0_IPNS_4pairINS_12basic_stringIcNS_11char_traitsIcEENS_9allocatorIcEEEE8DataTypeEEEEEC2B7v160006ESB_, symObjAddr: 0x4030, symBinAddr: 0x10000B020, symSize: 0x2C }
  - { offsetInCU: 0xE644, offset: 0x20274, size: 0x8, addend: 0x0, symName: __ZNSt3__116reverse_iteratorIPNS_4pairINS_12basic_stringIcNS_11char_traitsIcEENS_9allocatorIcEEEE8DataTypeEEEC2B7v160006ESA_, symObjAddr: 0x405C, symBinAddr: 0x10000B04C, symSize: 0x28 }
  - { offsetInCU: 0xE67C, offset: 0x202AC, size: 0x8, addend: 0x0, symName: __ZNSt3__114__split_bufferINS_4pairINS_12basic_stringIcNS_11char_traitsIcEENS_9allocatorIcEEEE8DataTypeEERNS5_IS9_EEED2Ev, symObjAddr: 0x4084, symBinAddr: 0x10000B074, symSize: 0x8C }
  - { offsetInCU: 0xE6A8, offset: 0x202D8, size: 0x8, addend: 0x0, symName: __ZNSt3__114__split_bufferINS_4pairINS_12basic_stringIcNS_11char_traitsIcEENS_9allocatorIcEEEE8DataTypeEERNS5_IS9_EEE5clearB7v160006Ev, symObjAddr: 0x4110, symBinAddr: 0x10000B100, symSize: 0x28 }
  - { offsetInCU: 0xE6CE, offset: 0x202FE, size: 0x8, addend: 0x0, symName: __ZNSt3__116allocator_traitsINS_9allocatorINS_4pairINS_12basic_stringIcNS_11char_traitsIcEENS1_IcEEEE8DataTypeEEEEE10deallocateB7v160006ERSA_PS9_m, symObjAddr: 0x4138, symBinAddr: 0x10000B128, symSize: 0x34 }
  - { offsetInCU: 0xE710, offset: 0x20340, size: 0x8, addend: 0x0, symName: __ZNKSt3__114__split_bufferINS_4pairINS_12basic_stringIcNS_11char_traitsIcEENS_9allocatorIcEEEE8DataTypeEERNS5_IS9_EEE8capacityB7v160006Ev, symObjAddr: 0x416C, symBinAddr: 0x10000B15C, symSize: 0x40 }
  - { offsetInCU: 0xE736, offset: 0x20366, size: 0x8, addend: 0x0, symName: __ZNSt3__114__split_bufferINS_4pairINS_12basic_stringIcNS_11char_traitsIcEENS_9allocatorIcEEEE8DataTypeEERNS5_IS9_EEE17__destruct_at_endB7v160006EPS9_, symObjAddr: 0x41AC, symBinAddr: 0x10000B19C, symSize: 0x2C }
  - { offsetInCU: 0xE76A, offset: 0x2039A, size: 0x8, addend: 0x0, symName: __ZNSt3__114__split_bufferINS_4pairINS_12basic_stringIcNS_11char_traitsIcEENS_9allocatorIcEEEE8DataTypeEERNS5_IS9_EEE17__destruct_at_endB7v160006EPS9_NS_17integral_constantIbLb0EEE, symObjAddr: 0x41D8, symBinAddr: 0x10000B1C8, symSize: 0x80 }
  - { offsetInCU: 0xE7AB, offset: 0x203DB, size: 0x8, addend: 0x0, symName: __ZNSt3__19allocatorINS_4pairINS_12basic_stringIcNS_11char_traitsIcEENS0_IcEEEE8DataTypeEEE10deallocateB7v160006EPS8_m, symObjAddr: 0x4258, symBinAddr: 0x10000B248, symSize: 0x40 }
  - { offsetInCU: 0xE7ED, offset: 0x2041D, size: 0x8, addend: 0x0, symName: __ZNKSt3__114__split_bufferINS_4pairINS_12basic_stringIcNS_11char_traitsIcEENS_9allocatorIcEEEE8DataTypeEERNS5_IS9_EEE9__end_capB7v160006Ev, symObjAddr: 0x43A0, symBinAddr: 0x10000B288, symSize: 0x28 }
  - { offsetInCU: 0xE813, offset: 0x20443, size: 0x8, addend: 0x0, symName: __ZNKSt3__117__compressed_pairIPNS_4pairINS_12basic_stringIcNS_11char_traitsIcEENS_9allocatorIcEEEE8DataTypeEERNS5_IS9_EEE5firstB7v160006Ev, symObjAddr: 0x43C8, symBinAddr: 0x10000B2B0, symSize: 0x24 }
  - { offsetInCU: 0xE839, offset: 0x20469, size: 0x8, addend: 0x0, symName: __ZNSt3__112basic_stringIcNS_11char_traitsIcEENS_9allocatorIcEEEC2B7v160006IDnEEPKc, symObjAddr: 0x43EC, symBinAddr: 0x10000B2D4, symSize: 0x60 }
  - { offsetInCU: 0xE877, offset: 0x204A7, size: 0x8, addend: 0x0, symName: __ZNSt16invalid_argumentC2B7v160006EPKc, symObjAddr: 0x459C, symBinAddr: 0x10000B334, symSize: 0x4C }
  - { offsetInCU: 0xE8AF, offset: 0x204DF, size: 0x8, addend: 0x0, symName: __ZNSt12out_of_rangeC2B7v160006EPKc, symObjAddr: 0x45E8, symBinAddr: 0x10000B380, symSize: 0x4C }
  - { offsetInCU: 0xE8E7, offset: 0x20517, size: 0x8, addend: 0x0, symName: __ZNKSt3__16vectorINS_4pairINS_12basic_stringIcNS_11char_traitsIcEENS_9allocatorIcEEEE8DataTypeEENS5_IS9_EEE6cbeginB7v160006Ev, symObjAddr: 0x467C, symBinAddr: 0x10000B414, symSize: 0x2C }
  - { offsetInCU: 0xE90D, offset: 0x2053D, size: 0x8, addend: 0x0, symName: __ZNSt3__16vectorINS_4pairINS_12basic_stringIcNS_11char_traitsIcEENS_9allocatorIcEEEE8DataTypeEENS5_IS9_EEE17__destruct_at_endB7v160006EPS9_, symObjAddr: 0x46A8, symBinAddr: 0x10000B440, symSize: 0x60 }
  - { offsetInCU: 0xE951, offset: 0x20581, size: 0x8, addend: 0x0, symName: __ZNSt3__16vectorINS_4pairINS_12basic_stringIcNS_11char_traitsIcEENS_9allocatorIcEEEE8DataTypeEENS5_IS9_EEE27__invalidate_iterators_pastB7v160006EPS9_, symObjAddr: 0x4748, symBinAddr: 0x10000B4E0, symSize: 0x14 }
  - { offsetInCU: 0xE988, offset: 0x205B8, size: 0x8, addend: 0x0, symName: __ZNSt3__16vectorINS_4pairINS_12basic_stringIcNS_11char_traitsIcEENS_9allocatorIcEEEE8DataTypeEENS5_IS9_EEE11__make_iterB7v160006EPS9_, symObjAddr: 0x475C, symBinAddr: 0x10000B4F4, symSize: 0x34 }
  - { offsetInCU: 0xE9BD, offset: 0x205ED, size: 0x8, addend: 0x0, symName: __ZNKSt3__111__wrap_iterIPKNS_4pairINS_12basic_stringIcNS_11char_traitsIcEENS_9allocatorIcEEEE8DataTypeEEE4baseB7v160006Ev, symObjAddr: 0x4790, symBinAddr: 0x10000B528, symSize: 0x18 }
  - { offsetInCU: 0xE9E3, offset: 0x20613, size: 0x8, addend: 0x0, symName: __ZNKSt3__16vectorINS_4pairINS_12basic_stringIcNS_11char_traitsIcEENS_9allocatorIcEEEE8DataTypeEENS5_IS9_EEE5beginB7v160006Ev, symObjAddr: 0x47A8, symBinAddr: 0x10000B540, symSize: 0x30 }
  - { offsetInCU: 0xEA0B, offset: 0x2063B, size: 0x8, addend: 0x0, symName: __ZNKSt3__16vectorINS_4pairINS_12basic_stringIcNS_11char_traitsIcEENS_9allocatorIcEEEE8DataTypeEENS5_IS9_EEE11__make_iterB7v160006EPKS9_, symObjAddr: 0x47D8, symBinAddr: 0x10000B570, symSize: 0x34 }
  - { offsetInCU: 0xEA40, offset: 0x20670, size: 0x8, addend: 0x0, symName: __ZNSt3__111__wrap_iterIPKNS_4pairINS_12basic_stringIcNS_11char_traitsIcEENS_9allocatorIcEEEE8DataTypeEEEC1B7v160006EPKvSB_, symObjAddr: 0x480C, symBinAddr: 0x10000B5A4, symSize: 0x3C }
  - { offsetInCU: 0xEA86, offset: 0x206B6, size: 0x8, addend: 0x0, symName: __ZNSt3__111__wrap_iterIPKNS_4pairINS_12basic_stringIcNS_11char_traitsIcEENS_9allocatorIcEEEE8DataTypeEEEC2B7v160006EPKvSB_, symObjAddr: 0x4848, symBinAddr: 0x10000B5E0, symSize: 0x24 }
  - { offsetInCU: 0xEACC, offset: 0x206FC, size: 0x8, addend: 0x0, symName: __ZNSt3__16vectorINS_4pairINS_12basic_stringIcNS_11char_traitsIcEENS_9allocatorIcEEEE8DataTypeEENS5_IS9_EEE22__base_destruct_at_endB7v160006EPS9_, symObjAddr: 0x486C, symBinAddr: 0x10000B604, symSize: 0x8C }
  - { offsetInCU: 0xEB10, offset: 0x20740, size: 0x8, addend: 0x0, symName: __ZNKSt3__16vectorINS_4pairINS_12basic_stringIcNS_11char_traitsIcEENS_9allocatorIcEEEE8DataTypeEENS5_IS9_EEE17__annotate_shrinkB7v160006Em, symObjAddr: 0x48F8, symBinAddr: 0x10000B690, symSize: 0xB4 }
  - { offsetInCU: 0xEB68, offset: 0x20798, size: 0x8, addend: 0x0, symName: __ZNKSt3__111__move_loopINS_17_ClassicAlgPolicyEEclB7v160006IPNS_4pairINS_12basic_stringIcNS_11char_traitsIcEENS_9allocatorIcEEEE8DataTypeEESD_SD_EENS4_IT_T1_EESE_T0_SF_, symObjAddr: 0x4B24, symBinAddr: 0x10000B8BC, symSize: 0x90 }
  - { offsetInCU: 0xEBD3, offset: 0x20803, size: 0x8, addend: 0x0, symName: __ZNSt3__119__unwrap_range_implIPNS_4pairINS_12basic_stringIcNS_11char_traitsIcEENS_9allocatorIcEEEE8DataTypeEESA_E8__unwrapB7v160006ESA_SA_, symObjAddr: 0x4C78, symBinAddr: 0x10000BA10, symSize: 0x58 }
  - { offsetInCU: 0xEC09, offset: 0x20839, size: 0x8, addend: 0x0, symName: __ZNSt3__14pairIPNS0_INS_12basic_stringIcNS_11char_traitsIcEENS_9allocatorIcEEEE8DataTypeEES9_EC1B7v160006IS9_S9_LPv0EEEOT_OT0_, symObjAddr: 0x4CD0, symBinAddr: 0x10000BA68, symSize: 0x3C }
  - { offsetInCU: 0xEC67, offset: 0x20897, size: 0x8, addend: 0x0, symName: __ZNSt3__14pairIPNS0_INS_12basic_stringIcNS_11char_traitsIcEENS_9allocatorIcEEEE8DataTypeEES9_EC2B7v160006IS9_S9_LPv0EEEOT_OT0_, symObjAddr: 0x4D0C, symBinAddr: 0x10000BAA4, symSize: 0x34 }
  - { offsetInCU: 0xECC5, offset: 0x208F5, size: 0x8, addend: 0x0, symName: __ZNSt3__18_IterOpsINS_17_ClassicAlgPolicyEE11__iter_moveB7v160006IRPNS_4pairINS_12basic_stringIcNS_11char_traitsIcEENS_9allocatorIcEEEE8DataTypeEEEENS_9enable_ifIXsr12is_referenceIDTdeclsr3stdE7declvalIRT_EEEEE5valueEDTclsr3stdE4movedeclsr3stdE7declvalISH_EEEEE4typeEOSG_, symObjAddr: 0x4D40, symBinAddr: 0x10000BAD8, symSize: 0x28 }
  - { offsetInCU: 0xECF1, offset: 0x20921, size: 0x8, addend: 0x0, symName: __ZNSt3__14pairINS_12basic_stringIcNS_11char_traitsIcEENS_9allocatorIcEEEE8DataTypeEaSB7v160006EOS8_, symObjAddr: 0x4D68, symBinAddr: 0x10000BB00, symSize: 0x40 }
  - { offsetInCU: 0xED26, offset: 0x20956, size: 0x8, addend: 0x0, symName: __ZNSt3__18_IterOpsINS_17_ClassicAlgPolicyEE25__validate_iter_referenceB7v160006IRPNS_4pairINS_12basic_stringIcNS_11char_traitsIcEENS_9allocatorIcEEEE8DataTypeEEEEvv, symObjAddr: 0x4DA8, symBinAddr: 0x10000BB40, symSize: 0x4 }
  - { offsetInCU: 0xED44, offset: 0x20974, size: 0x8, addend: 0x0, symName: __ZNSt3__112basic_stringIcNS_11char_traitsIcEENS_9allocatorIcEEEaSB7v160006EOS5_, symObjAddr: 0x4DAC, symBinAddr: 0x10000BB44, symSize: 0x34 }
  - { offsetInCU: 0xED79, offset: 0x209A9, size: 0x8, addend: 0x0, symName: __ZNSt3__112basic_stringIcNS_11char_traitsIcEENS_9allocatorIcEEE13__move_assignB7v160006ERS5_NS_17integral_constantIbLb1EEE, symObjAddr: 0x4DE0, symBinAddr: 0x10000BB78, symSize: 0xC8 }
  - { offsetInCU: 0xEDBB, offset: 0x209EB, size: 0x8, addend: 0x0, symName: __ZNSt3__116allocator_traitsINS_9allocatorIcEEE10deallocateB7v160006ERS2_Pcm, symObjAddr: 0x4EA8, symBinAddr: 0x10000BC40, symSize: 0x34 }
  - { offsetInCU: 0xEDFD, offset: 0x20A2D, size: 0x8, addend: 0x0, symName: __ZNSt3__112basic_stringIcNS_11char_traitsIcEENS_9allocatorIcEEE7__allocB7v160006Ev, symObjAddr: 0x4EDC, symBinAddr: 0x10000BC74, symSize: 0x24 }
  - { offsetInCU: 0xEE23, offset: 0x20A53, size: 0x8, addend: 0x0, symName: __ZNKSt3__112basic_stringIcNS_11char_traitsIcEENS_9allocatorIcEEE14__get_long_capB7v160006Ev, symObjAddr: 0x4F28, symBinAddr: 0x10000BC98, symSize: 0x30 }
  - { offsetInCU: 0xEE49, offset: 0x20A79, size: 0x8, addend: 0x0, symName: __ZNSt3__112basic_stringIcNS_11char_traitsIcEENS_9allocatorIcEEE19__move_assign_allocB7v160006ERS5_, symObjAddr: 0x4F58, symBinAddr: 0x10000BCC8, symSize: 0x2C }
  - { offsetInCU: 0xEE7E, offset: 0x20AAE, size: 0x8, addend: 0x0, symName: __ZNSt3__112basic_stringIcNS_11char_traitsIcEENS_9allocatorIcEEE16__set_short_sizeB7v160006Em, symObjAddr: 0x4F84, symBinAddr: 0x10000BCF4, symSize: 0x78 }
  - { offsetInCU: 0xEEB3, offset: 0x20AE3, size: 0x8, addend: 0x0, symName: __ZNSt3__111char_traitsIcE6assignERcRKc, symObjAddr: 0x4FFC, symBinAddr: 0x10000BD6C, symSize: 0x24 }
  - { offsetInCU: 0xEEE4, offset: 0x20B14, size: 0x8, addend: 0x0, symName: __ZNSt3__19allocatorIcE10deallocateB7v160006EPcm, symObjAddr: 0x5048, symBinAddr: 0x10000BD90, symSize: 0x40 }
  - { offsetInCU: 0xEF26, offset: 0x20B56, size: 0x8, addend: 0x0, symName: __ZNSt3__117__compressed_pairINS_12basic_stringIcNS_11char_traitsIcEENS_9allocatorIcEEE5__repES5_E6secondB7v160006Ev, symObjAddr: 0x5088, symBinAddr: 0x10000BDD0, symSize: 0x24 }
  - { offsetInCU: 0xEF4C, offset: 0x20B7C, size: 0x8, addend: 0x0, symName: __ZNSt3__122__compressed_pair_elemINS_9allocatorIcEELi1ELb1EE5__getB7v160006Ev, symObjAddr: 0x50AC, symBinAddr: 0x10000BDF4, symSize: 0x14 }
  - { offsetInCU: 0xEF72, offset: 0x20BA2, size: 0x8, addend: 0x0, symName: __ZNSt3__112basic_stringIcNS_11char_traitsIcEENS_9allocatorIcEEE19__move_assign_allocB7v160006ERS5_NS_17integral_constantIbLb1EEE, symObjAddr: 0x50C0, symBinAddr: 0x10000BE08, symSize: 0x38 }
  - { offsetInCU: 0xEFB2, offset: 0x20BE2, size: 0x8, addend: 0x0, symName: __ZNSt3__118__unwrap_iter_implIPNS_4pairINS_12basic_stringIcNS_11char_traitsIcEENS_9allocatorIcEEEE8DataTypeEELb1EE8__unwrapB7v160006ESA_, symObjAddr: 0x510C, symBinAddr: 0x10000BE40, symSize: 0x24 }
  - { offsetInCU: 0xEFD5, offset: 0x20C05, size: 0x8, addend: 0x0, symName: __ZNSt3__119__unwrap_range_implIPNS_4pairINS_12basic_stringIcNS_11char_traitsIcEENS_9allocatorIcEEEE8DataTypeEESA_E8__rewrapB7v160006ESA_SA_, symObjAddr: 0x5130, symBinAddr: 0x10000BE64, symSize: 0x2C }
  - { offsetInCU: 0xF006, offset: 0x20C36, size: 0x8, addend: 0x0, symName: __ZNSt3__118__unwrap_iter_implIPNS_4pairINS_12basic_stringIcNS_11char_traitsIcEENS_9allocatorIcEEEE8DataTypeEELb1EE8__rewrapB7v160006ESA_SA_, symObjAddr: 0x515C, symBinAddr: 0x10000BE90, symSize: 0x50 }
  - { offsetInCU: 0xF037, offset: 0x20C67, size: 0x8, addend: 0x0, symName: __ZNSt3__111__wrap_iterIPNS_4pairINS_12basic_stringIcNS_11char_traitsIcEENS_9allocatorIcEEEE8DataTypeEEEC1B7v160006EPKvSA_, symObjAddr: 0x51AC, symBinAddr: 0x10000BEE0, symSize: 0x3C }
  - { offsetInCU: 0xF07D, offset: 0x20CAD, size: 0x8, addend: 0x0, symName: __ZNSt3__111__wrap_iterIPNS_4pairINS_12basic_stringIcNS_11char_traitsIcEENS_9allocatorIcEEEE8DataTypeEEEC2B7v160006EPKvSA_, symObjAddr: 0x51E8, symBinAddr: 0x10000BF1C, symSize: 0x24 }
  - { offsetInCU: 0xF0C3, offset: 0x20CF3, size: 0x8, addend: 0x0, symName: __ZNSt3__111__wrap_iterIPNS_4pairINS_12basic_stringIcNS_11char_traitsIcEENS_9allocatorIcEEEE8DataTypeEEEpLB7v160006El, symObjAddr: 0x520C, symBinAddr: 0x10000BF40, symSize: 0x28 }
  - { offsetInCU: 0xF0F7, offset: 0x20D27, size: 0x8, addend: 0x0, symName: __ZNSt3__111__wrap_iterIPKNS_4pairINS_12basic_stringIcNS_11char_traitsIcEENS_9allocatorIcEEEE8DataTypeEEEC2B7v160006IPS9_EERKNS0_IT_EEPNS_9enable_ifIXsr14is_convertibleISF_SB_EE5valueEvE4typeE, symObjAddr: 0x5234, symBinAddr: 0x10000BF68, symSize: 0x40 }
  - { offsetInCU: 0xF143, offset: 0x20D73, size: 0x8, addend: 0x0, symName: __ZNKSt3__111__wrap_iterIPNS_4pairINS_12basic_stringIcNS_11char_traitsIcEENS_9allocatorIcEEEE8DataTypeEEE4baseB7v160006Ev, symObjAddr: 0x5274, symBinAddr: 0x10000BFA8, symSize: 0x18 }
  - { offsetInCU: 0xF169, offset: 0x20D99, size: 0x8, addend: 0x0, symName: __ZNSt3__16vectorINS_4pairINS_12basic_stringIcNS_11char_traitsIcEENS_9allocatorIcEEEE8DataTypeEENS5_IS9_EEE19__copy_assign_allocB7v160006ERKSB_, symObjAddr: 0x53DC, symBinAddr: 0x10000BFC0, symSize: 0x2C }
  - { offsetInCU: 0xF19E, offset: 0x20DCE, size: 0x8, addend: 0x0, symName: __ZNSt3__16vectorINS_4pairINS_12basic_stringIcNS_11char_traitsIcEENS_9allocatorIcEEEE8DataTypeEENS5_IS9_EEE6assignIPS9_Li0EEEvT_SE_, symObjAddr: 0x5408, symBinAddr: 0x10000BFEC, symSize: 0x17C }
  - { offsetInCU: 0xF23D, offset: 0x20E6D, size: 0x8, addend: 0x0, symName: __ZNSt3__16vectorINS_4pairINS_12basic_stringIcNS_11char_traitsIcEENS_9allocatorIcEEEE8DataTypeEENS5_IS9_EEE19__copy_assign_allocB7v160006ERKSB_NS_17integral_constantIbLb0EEE, symObjAddr: 0x5584, symBinAddr: 0x10000C168, symSize: 0x14 }
  - { offsetInCU: 0xF279, offset: 0x20EA9, size: 0x8, addend: 0x0, symName: __ZNSt3__16vectorINS_4pairINS_12basic_stringIcNS_11char_traitsIcEENS_9allocatorIcEEEE8DataTypeEENS5_IS9_EEE18__construct_at_endIPS9_Li0EEEvT_SE_m, symObjAddr: 0x5654, symBinAddr: 0x10000C238, symSize: 0x8C }
  - { offsetInCU: 0xF2EC, offset: 0x20F1C, size: 0x8, addend: 0x0, symName: __ZNSt3__16vectorINS_4pairINS_12basic_stringIcNS_11char_traitsIcEENS_9allocatorIcEEEE8DataTypeEENS5_IS9_EEE13__vdeallocateEv, symObjAddr: 0x56E0, symBinAddr: 0x10000C2C4, symSize: 0x8C }
  - { offsetInCU: 0xF314, offset: 0x20F44, size: 0x8, addend: 0x0, symName: __ZNSt3__16vectorINS_4pairINS_12basic_stringIcNS_11char_traitsIcEENS_9allocatorIcEEEE8DataTypeEENS5_IS9_EEE11__vallocateB7v160006Em, symObjAddr: 0x576C, symBinAddr: 0x10000C350, symSize: 0xAC }
  - { offsetInCU: 0xF362, offset: 0x20F92, size: 0x8, addend: 0x0, symName: __ZNKSt3__111__copy_loopINS_17_ClassicAlgPolicyEEclB7v160006IPNS_4pairINS_12basic_stringIcNS_11char_traitsIcEENS_9allocatorIcEEEE8DataTypeEESD_SD_EENS4_IT_T1_EESE_T0_SF_, symObjAddr: 0x5990, symBinAddr: 0x10000C574, symSize: 0x88 }
  - { offsetInCU: 0xF3CD, offset: 0x20FFD, size: 0x8, addend: 0x0, symName: __ZNSt3__14pairINS_12basic_stringIcNS_11char_traitsIcEENS_9allocatorIcEEEE8DataTypeEaSB7v160006ERKS8_, symObjAddr: 0x5A18, symBinAddr: 0x10000C5FC, symSize: 0x40 }
  - { offsetInCU: 0xF402, offset: 0x21032, size: 0x8, addend: 0x0, symName: __ZNSt3__129_AllocatorDestroyRangeReverseINS_9allocatorINS_4pairINS_12basic_stringIcNS_11char_traitsIcEENS1_IcEEEE8DataTypeEEEEPS9_EC1B7v160006ERSA_RSB_SE_, symObjAddr: 0x5B98, symBinAddr: 0x10000C77C, symSize: 0x44 }
  - { offsetInCU: 0xF459, offset: 0x21089, size: 0x8, addend: 0x0, symName: __ZNSt3__116allocator_traitsINS_9allocatorINS_4pairINS_12basic_stringIcNS_11char_traitsIcEENS1_IcEEEE8DataTypeEEEEE9constructB7v160006IS9_JRS9_EvvEEvRSA_PT_DpOT0_, symObjAddr: 0x5BDC, symBinAddr: 0x10000C7C0, symSize: 0x30 }
  - { offsetInCU: 0xF4AD, offset: 0x210DD, size: 0x8, addend: 0x0, symName: __ZNSt3__128__exception_guard_exceptionsINS_29_AllocatorDestroyRangeReverseINS_9allocatorINS_4pairINS_12basic_stringIcNS_11char_traitsIcEENS2_IcEEEE8DataTypeEEEEPSA_EEE10__completeB7v160006Ev, symObjAddr: 0x5C0C, symBinAddr: 0x10000C7F0, symSize: 0x1C }
  - { offsetInCU: 0xF4D3, offset: 0x21103, size: 0x8, addend: 0x0, symName: __ZNSt3__128__exception_guard_exceptionsINS_29_AllocatorDestroyRangeReverseINS_9allocatorINS_4pairINS_12basic_stringIcNS_11char_traitsIcEENS2_IcEEEE8DataTypeEEEEPSA_EEED1B7v160006Ev, symObjAddr: 0x5C28, symBinAddr: 0x10000C80C, symSize: 0x2C }
  - { offsetInCU: 0xF4FD, offset: 0x2112D, size: 0x8, addend: 0x0, symName: __ZNSt3__128__exception_guard_exceptionsINS_29_AllocatorDestroyRangeReverseINS_9allocatorINS_4pairINS_12basic_stringIcNS_11char_traitsIcEENS2_IcEEEE8DataTypeEEEEPSA_EEEC1B7v160006ESD_, symObjAddr: 0x5C54, symBinAddr: 0x10000C838, symSize: 0x34 }
  - { offsetInCU: 0xF536, offset: 0x21166, size: 0x8, addend: 0x0, symName: __ZNSt3__128__exception_guard_exceptionsINS_29_AllocatorDestroyRangeReverseINS_9allocatorINS_4pairINS_12basic_stringIcNS_11char_traitsIcEENS2_IcEEEE8DataTypeEEEEPSA_EEEC2B7v160006ESD_, symObjAddr: 0x5C88, symBinAddr: 0x10000C86C, symSize: 0x30 }
  - { offsetInCU: 0xF56F, offset: 0x2119F, size: 0x8, addend: 0x0, symName: __ZNSt3__129_AllocatorDestroyRangeReverseINS_9allocatorINS_4pairINS_12basic_stringIcNS_11char_traitsIcEENS1_IcEEEE8DataTypeEEEEPS9_EC2B7v160006ERSA_RSB_SE_, symObjAddr: 0x5CB8, symBinAddr: 0x10000C89C, symSize: 0x38 }
  - { offsetInCU: 0xF5C6, offset: 0x211F6, size: 0x8, addend: 0x0, symName: __ZNSt3__128__exception_guard_exceptionsINS_29_AllocatorDestroyRangeReverseINS_9allocatorINS_4pairINS_12basic_stringIcNS_11char_traitsIcEENS2_IcEEEE8DataTypeEEEEPSA_EEED2B7v160006Ev, symObjAddr: 0x5D2C, symBinAddr: 0x10000C910, symSize: 0x50 }
  - { offsetInCU: 0xF5F0, offset: 0x21220, size: 0x8, addend: 0x0, symName: __ZNKSt3__129_AllocatorDestroyRangeReverseINS_9allocatorINS_4pairINS_12basic_stringIcNS_11char_traitsIcEENS1_IcEEEE8DataTypeEEEEPS9_EclB7v160006Ev, symObjAddr: 0x5D7C, symBinAddr: 0x10000C960, symSize: 0x68 }
  - { offsetInCU: 0xF616, offset: 0x21246, size: 0x8, addend: 0x0, symName: __ZNSt3__16vectorINS_4pairINS_12basic_stringIcNS_11char_traitsIcEENS_9allocatorIcEEEE8DataTypeEENS5_IS9_EEE5clearB7v160006Ev, symObjAddr: 0x5E54, symBinAddr: 0x10000CA38, symSize: 0x4C }
  - { offsetInCU: 0xF64B, offset: 0x2127B, size: 0x8, addend: 0x0, symName: __ZNSt3__16vectorINS_4pairINS_12basic_stringIcNS_11char_traitsIcEENS_9allocatorIcEEEE8DataTypeEENS5_IS9_EEE7__clearB7v160006Ev, symObjAddr: 0x5EA0, symBinAddr: 0x10000CA84, symSize: 0x28 }
  - { offsetInCU: 0xF671, offset: 0x212A1, size: 0x8, addend: 0x0, symName: __ZNSt3__16vectorINS_4pairINS_12basic_stringIcNS_11char_traitsIcEENS_9allocatorIcEEEE8DataTypeEENS5_IS9_EEED2B7v160006Ev, symObjAddr: 0x5EC8, symBinAddr: 0x10000CAAC, symSize: 0x44 }
  - { offsetInCU: 0xF69B, offset: 0x212CB, size: 0x8, addend: 0x0, symName: __ZNSt3__16vectorINS_4pairINS_12basic_stringIcNS_11char_traitsIcEENS_9allocatorIcEEEE8DataTypeEENS5_IS9_EEE16__destroy_vectorC1ERSB_, symObjAddr: 0x5F0C, symBinAddr: 0x10000CAF0, symSize: 0x34 }
  - { offsetInCU: 0xF6D4, offset: 0x21304, size: 0x8, addend: 0x0, symName: __ZNSt3__16vectorINS_4pairINS_12basic_stringIcNS_11char_traitsIcEENS_9allocatorIcEEEE8DataTypeEENS5_IS9_EEE16__destroy_vectorclB7v160006Ev, symObjAddr: 0x5F40, symBinAddr: 0x10000CB24, symSize: 0x9C }
  - { offsetInCU: 0xF6FA, offset: 0x2132A, size: 0x8, addend: 0x0, symName: __ZNSt3__16vectorINS_4pairINS_12basic_stringIcNS_11char_traitsIcEENS_9allocatorIcEEEE8DataTypeEENS5_IS9_EEE16__destroy_vectorC2ERSB_, symObjAddr: 0x5FDC, symBinAddr: 0x10000CBC0, symSize: 0x20 }
  - { offsetInCU: 0xF733, offset: 0x21363, size: 0x8, addend: 0x0, symName: __ZNSt3__16__treeINS_12__value_typeIjPPvEENS_19__map_value_compareIjS4_NS_4lessIjEELb1EEENS_9allocatorIS4_EEE5beginB7v160006Ev, symObjAddr: 0x600C, symBinAddr: 0x10000CBF0, symSize: 0x34 }
  - { offsetInCU: 0xF759, offset: 0x21389, size: 0x8, addend: 0x0, symName: __ZNSt3__114__map_iteratorINS_15__tree_iteratorINS_12__value_typeIjPPvEEPNS_11__tree_nodeIS5_S3_EElEEEC1B7v160006ES9_, symObjAddr: 0x6040, symBinAddr: 0x10000CC24, symSize: 0x34 }
  - { offsetInCU: 0xF792, offset: 0x213C2, size: 0x8, addend: 0x0, symName: __ZNSt3__115__tree_iteratorINS_12__value_typeIjPPvEEPNS_11__tree_nodeIS4_S2_EElEC1B7v160006EPNS_15__tree_end_nodeIPNS_16__tree_node_baseIS2_EEEE, symObjAddr: 0x6088, symBinAddr: 0x10000CC58, symSize: 0x34 }
  - { offsetInCU: 0xF7CB, offset: 0x213FB, size: 0x8, addend: 0x0, symName: __ZNSt3__115__tree_iteratorINS_12__value_typeIjPPvEEPNS_11__tree_nodeIS4_S2_EElEC2B7v160006EPNS_15__tree_end_nodeIPNS_16__tree_node_baseIS2_EEEE, symObjAddr: 0x60BC, symBinAddr: 0x10000CC8C, symSize: 0x20 }
  - { offsetInCU: 0xF804, offset: 0x21434, size: 0x8, addend: 0x0, symName: __ZNSt3__114__map_iteratorINS_15__tree_iteratorINS_12__value_typeIjPPvEEPNS_11__tree_nodeIS5_S3_EElEEEC2B7v160006ES9_, symObjAddr: 0x60DC, symBinAddr: 0x10000CCAC, symSize: 0x20 }
  - { offsetInCU: 0xF83D, offset: 0x2146D, size: 0x8, addend: 0x0, symName: __ZNSt3__16__treeINS_12__value_typeIjPPvEENS_19__map_value_compareIjS4_NS_4lessIjEELb1EEENS_9allocatorIS4_EEE3endB7v160006Ev, symObjAddr: 0x60FC, symBinAddr: 0x10000CCCC, symSize: 0x34 }
  - { offsetInCU: 0xF863, offset: 0x21493, size: 0x8, addend: 0x0, symName: __ZNSt3__115__tree_iteratorINS_12__value_typeIjPPvEEPNS_11__tree_nodeIS4_S2_EElEppB7v160006Ev, symObjAddr: 0x620C, symBinAddr: 0x10000CD64, symSize: 0x38 }
  - { offsetInCU: 0xF889, offset: 0x214B9, size: 0x8, addend: 0x0, symName: __ZNKSt3__115__tree_iteratorINS_12__value_typeIjPPvEEPNS_11__tree_nodeIS4_S2_EElEptB7v160006Ev, symObjAddr: 0x6358, symBinAddr: 0x10000CD9C, symSize: 0x2C }
  - { offsetInCU: 0xF8AF, offset: 0x214DF, size: 0x8, addend: 0x0, symName: __ZNSt3__112__value_typeIjPPvE11__get_valueB7v160006Ev, symObjAddr: 0x6384, symBinAddr: 0x10000CDC8, symSize: 0x24 }
  - { offsetInCU: 0xF8D5, offset: 0x21505, size: 0x8, addend: 0x0, symName: __ZNSt3__114pointer_traitsIPNS_12__value_typeIjPPvEEE10pointer_toB7v160006ERS4_, symObjAddr: 0x63A8, symBinAddr: 0x10000CDEC, symSize: 0x14 }
  - { offsetInCU: 0xF8F8, offset: 0x21528, size: 0x8, addend: 0x0, symName: __ZNKSt3__115__tree_iteratorINS_12__value_typeIjPPvEEPNS_11__tree_nodeIS4_S2_EElE8__get_npB7v160006Ev, symObjAddr: 0x63BC, symBinAddr: 0x10000CE00, symSize: 0x18 }
  - { offsetInCU: 0xF91E, offset: 0x2154E, size: 0x8, addend: 0x0, symName: __ZNKSt3__16__treeINS_12__value_typeIjPPvEENS_19__map_value_compareIjS4_NS_4lessIjEELb1EEENS_9allocatorIS4_EEE4sizeB7v160006Ev, symObjAddr: 0x640C, symBinAddr: 0x10000CE50, symSize: 0x28 }
  - { offsetInCU: 0xF944, offset: 0x21574, size: 0x8, addend: 0x0, symName: __ZNKSt3__117__compressed_pairImNS_19__map_value_compareIjNS_12__value_typeIjPPvEENS_4lessIjEELb1EEEE5firstB7v160006Ev, symObjAddr: 0x6434, symBinAddr: 0x10000CE78, symSize: 0x24 }
  - { offsetInCU: 0xF96A, offset: 0x2159A, size: 0x8, addend: 0x0, symName: __ZNKSt3__122__compressed_pair_elemImLi0ELb0EE5__getB7v160006Ev, symObjAddr: 0x6458, symBinAddr: 0x10000CE9C, symSize: 0x14 }
  - { offsetInCU: 0xF99F, offset: 0x215CF, size: 0x8, addend: 0x0, symName: __ZNSt3__16__treeINS_12__value_typeIjPPvEENS_19__map_value_compareIjS4_NS_4lessIjEELb1EEENS_9allocatorIS4_EEE25__emplace_unique_key_argsIjJRKNS_21piecewise_construct_tENS_5tupleIJRKjEEENSG_IJEEEEEENS_4pairINS_15__tree_iteratorIS4_PNS_11__tree_nodeIS4_S2_EElEEbEERKT_DpOT0_, symObjAddr: 0x646C, symBinAddr: 0x10000CEB0, symSize: 0x100 }
  - { offsetInCU: 0xFA75, offset: 0x216A5, size: 0x8, addend: 0x0, symName: __ZNSt3__16__treeINS_12__value_typeIjPPvEENS_19__map_value_compareIjS4_NS_4lessIjEELb1EEENS_9allocatorIS4_EEE12__find_equalIjEERPNS_16__tree_node_baseIS2_EERPNS_15__tree_end_nodeISF_EERKT_, symObjAddr: 0x659C, symBinAddr: 0x10000CFDC, symSize: 0x184 }
  - { offsetInCU: 0xFAE2, offset: 0x21712, size: 0x8, addend: 0x0, symName: __ZNSt3__16__treeINS_12__value_typeIjPPvEENS_19__map_value_compareIjS4_NS_4lessIjEELb1EEENS_9allocatorIS4_EEE16__construct_nodeIJRKNS_21piecewise_construct_tENS_5tupleIJRKjEEENSG_IJEEEEEENS_10unique_ptrINS_11__tree_nodeIS4_S2_EENS_22__tree_node_destructorINS9_ISN_EEEEEEDpOT_, symObjAddr: 0x6720, symBinAddr: 0x10000D160, symSize: 0x120 }
  - { offsetInCU: 0xFB6B, offset: 0x2179B, size: 0x8, addend: 0x0, symName: __ZNSt3__16__treeINS_12__value_typeIjPPvEENS_19__map_value_compareIjS4_NS_4lessIjEELb1EEENS_9allocatorIS4_EEE16__insert_node_atEPNS_15__tree_end_nodeIPNS_16__tree_node_baseIS2_EEEERSF_SF_, symObjAddr: 0x6840, symBinAddr: 0x10000D280, symSize: 0xCC }
  - { offsetInCU: 0xFBC0, offset: 0x217F0, size: 0x8, addend: 0x0, symName: __ZNKSt3__110unique_ptrINS_11__tree_nodeINS_12__value_typeIjPPvEES3_EENS_22__tree_node_destructorINS_9allocatorIS6_EEEEE3getB7v160006Ev, symObjAddr: 0x690C, symBinAddr: 0x10000D34C, symSize: 0x28 }
  - { offsetInCU: 0xFBE6, offset: 0x21816, size: 0x8, addend: 0x0, symName: __ZNSt3__110unique_ptrINS_11__tree_nodeINS_12__value_typeIjPPvEES3_EENS_22__tree_node_destructorINS_9allocatorIS6_EEEEE7releaseB7v160006Ev, symObjAddr: 0x6934, symBinAddr: 0x10000D374, symSize: 0x44 }
  - { offsetInCU: 0xFC1B, offset: 0x2184B, size: 0x8, addend: 0x0, symName: __ZNSt3__110unique_ptrINS_11__tree_nodeINS_12__value_typeIjPPvEES3_EENS_22__tree_node_destructorINS_9allocatorIS6_EEEEED1B7v160006Ev, symObjAddr: 0x6978, symBinAddr: 0x10000D3B8, symSize: 0x2C }
  - { offsetInCU: 0xFC45, offset: 0x21875, size: 0x8, addend: 0x0, symName: __ZNSt3__115__tree_iteratorINS_12__value_typeIjPPvEEPNS_11__tree_nodeIS4_S2_EElEC1B7v160006ES7_, symObjAddr: 0x69A4, symBinAddr: 0x10000D3E4, symSize: 0x34 }
  - { offsetInCU: 0xFC88, offset: 0x218B8, size: 0x8, addend: 0x0, symName: __ZNSt3__14pairINS_15__tree_iteratorINS_12__value_typeIjPPvEEPNS_11__tree_nodeIS5_S3_EElEEbEC1B7v160006IS9_RbLS3_0EEEOT_OT0_, symObjAddr: 0x69D8, symBinAddr: 0x10000D418, symSize: 0x3C }
  - { offsetInCU: 0xFCE6, offset: 0x21916, size: 0x8, addend: 0x0, symName: __ZNKSt3__16__treeINS_12__value_typeIjPPvEENS_19__map_value_compareIjS4_NS_4lessIjEELb1EEENS_9allocatorIS4_EEE6__rootB7v160006Ev, symObjAddr: 0x6A14, symBinAddr: 0x10000D454, symSize: 0x28 }
  - { offsetInCU: 0xFD0C, offset: 0x2193C, size: 0x8, addend: 0x0, symName: __ZNKSt3__16__treeINS_12__value_typeIjPPvEENS_19__map_value_compareIjS4_NS_4lessIjEELb1EEENS_9allocatorIS4_EEE10__root_ptrEv, symObjAddr: 0x6A3C, symBinAddr: 0x10000D47C, symSize: 0x24 }
  - { offsetInCU: 0xFD32, offset: 0x21962, size: 0x8, addend: 0x0, symName: __ZNSt3__16__treeINS_12__value_typeIjPPvEENS_19__map_value_compareIjS4_NS_4lessIjEELb1EEENS_9allocatorIS4_EEE10value_compB7v160006Ev, symObjAddr: 0x6A60, symBinAddr: 0x10000D4A0, symSize: 0x28 }
  - { offsetInCU: 0xFD58, offset: 0x21988, size: 0x8, addend: 0x0, symName: __ZNKSt3__119__map_value_compareIjNS_12__value_typeIjPPvEENS_4lessIjEELb1EEclB7v160006ERKjRKS4_, symObjAddr: 0x6A88, symBinAddr: 0x10000D4C8, symSize: 0x50 }
  - { offsetInCU: 0xFD9C, offset: 0x219CC, size: 0x8, addend: 0x0, symName: __ZNKSt3__119__map_value_compareIjNS_12__value_typeIjPPvEENS_4lessIjEELb1EEclB7v160006ERKS4_RKj, symObjAddr: 0x6AD8, symBinAddr: 0x10000D518, symSize: 0x48 }
  - { offsetInCU: 0xFDE0, offset: 0x21A10, size: 0x8, addend: 0x0, symName: __ZNKSt3__16__treeINS_12__value_typeIjPPvEENS_19__map_value_compareIjS4_NS_4lessIjEELb1EEENS_9allocatorIS4_EEE10__end_nodeB7v160006Ev, symObjAddr: 0x6B20, symBinAddr: 0x10000D560, symSize: 0x2C }
  - { offsetInCU: 0xFE06, offset: 0x21A36, size: 0x8, addend: 0x0, symName: __ZNKSt3__117__compressed_pairINS_15__tree_end_nodeIPNS_16__tree_node_baseIPvEEEENS_9allocatorINS_11__tree_nodeINS_12__value_typeIjPS3_EES3_EEEEE5firstB7v160006Ev, symObjAddr: 0x6B4C, symBinAddr: 0x10000D58C, symSize: 0x24 }
  - { offsetInCU: 0xFE2C, offset: 0x21A5C, size: 0x8, addend: 0x0, symName: __ZNSt3__117__compressed_pairImNS_19__map_value_compareIjNS_12__value_typeIjPPvEENS_4lessIjEELb1EEEE6secondB7v160006Ev, symObjAddr: 0x6B84, symBinAddr: 0x10000D5B0, symSize: 0x24 }
  - { offsetInCU: 0xFE52, offset: 0x21A82, size: 0x8, addend: 0x0, symName: __ZNSt3__122__compressed_pair_elemINS_19__map_value_compareIjNS_12__value_typeIjPPvEENS_4lessIjEELb1EEELi1ELb1EE5__getB7v160006Ev, symObjAddr: 0x6BA8, symBinAddr: 0x10000D5D4, symSize: 0x14 }
  - { offsetInCU: 0xFE78, offset: 0x21AA8, size: 0x8, addend: 0x0, symName: __ZNKSt3__14lessIjEclB7v160006ERKjS3_, symObjAddr: 0x6BBC, symBinAddr: 0x10000D5E8, symSize: 0x34 }
  - { offsetInCU: 0xFEBC, offset: 0x21AEC, size: 0x8, addend: 0x0, symName: __ZNKSt3__112__value_typeIjPPvE11__get_valueB7v160006Ev, symObjAddr: 0x6BF0, symBinAddr: 0x10000D61C, symSize: 0x24 }
  - { offsetInCU: 0xFEE2, offset: 0x21B12, size: 0x8, addend: 0x0, symName: __ZNSt3__16__treeINS_12__value_typeIjPPvEENS_19__map_value_compareIjS4_NS_4lessIjEELb1EEENS_9allocatorIS4_EEE12__node_allocB7v160006Ev, symObjAddr: 0x6C4C, symBinAddr: 0x10000D678, symSize: 0x28 }
  - { offsetInCU: 0xFF08, offset: 0x21B38, size: 0x8, addend: 0x0, symName: __ZNSt3__116allocator_traitsINS_9allocatorINS_11__tree_nodeINS_12__value_typeIjPPvEES4_EEEEE8allocateB7v160006ERS8_m, symObjAddr: 0x6C74, symBinAddr: 0x10000D6A0, symSize: 0x2C }
  - { offsetInCU: 0xFF3B, offset: 0x21B6B, size: 0x8, addend: 0x0, symName: __ZNSt3__122__tree_node_destructorINS_9allocatorINS_11__tree_nodeINS_12__value_typeIjPPvEES4_EEEEEC1B7v160006ERS8_b, symObjAddr: 0x6CA0, symBinAddr: 0x10000D6CC, symSize: 0x48 }
  - { offsetInCU: 0xFF88, offset: 0x21BB8, size: 0x8, addend: 0x0, symName: __ZNSt3__110unique_ptrINS_11__tree_nodeINS_12__value_typeIjPPvEES3_EENS_22__tree_node_destructorINS_9allocatorIS6_EEEEEC1B7v160006ILb1EvEEPS6_NS_16__dependent_typeINS_27__unique_ptr_deleter_sfinaeISA_EEXT_EE20__good_rval_ref_typeE, symObjAddr: 0x6CE8, symBinAddr: 0x10000D714, symSize: 0x3C }
  - { offsetInCU: 0xFFD9, offset: 0x21C09, size: 0x8, addend: 0x0, symName: __ZNSt3__116allocator_traitsINS_9allocatorINS_11__tree_nodeINS_12__value_typeIjPPvEES4_EEEEE9constructB7v160006INS_4pairIKjS5_EEJRKNS_21piecewise_construct_tENS_5tupleIJRSC_EEENSH_IJEEEEvvEEvRS8_PT_DpOT0_, symObjAddr: 0x6D24, symBinAddr: 0x10000D750, symSize: 0x40 }
  - { offsetInCU: 0x10055, offset: 0x21C85, size: 0x8, addend: 0x0, symName: __ZNSt3__122__tree_key_value_typesINS_12__value_typeIjPPvEEE9__get_ptrB7v160006ERS4_, symObjAddr: 0x6D64, symBinAddr: 0x10000D790, symSize: 0x24 }
  - { offsetInCU: 0x10079, offset: 0x21CA9, size: 0x8, addend: 0x0, symName: __ZNKSt3__110unique_ptrINS_11__tree_nodeINS_12__value_typeIjPPvEES3_EENS_22__tree_node_destructorINS_9allocatorIS6_EEEEEptB7v160006Ev, symObjAddr: 0x6D88, symBinAddr: 0x10000D7B4, symSize: 0x28 }
  - { offsetInCU: 0x1009F, offset: 0x21CCF, size: 0x8, addend: 0x0, symName: __ZNSt3__110unique_ptrINS_11__tree_nodeINS_12__value_typeIjPPvEES3_EENS_22__tree_node_destructorINS_9allocatorIS6_EEEEE11get_deleterB7v160006Ev, symObjAddr: 0x6DB0, symBinAddr: 0x10000D7DC, symSize: 0x24 }
  - { offsetInCU: 0x100C5, offset: 0x21CF5, size: 0x8, addend: 0x0, symName: __ZNSt3__117__compressed_pairINS_15__tree_end_nodeIPNS_16__tree_node_baseIPvEEEENS_9allocatorINS_11__tree_nodeINS_12__value_typeIjPS3_EES3_EEEEE6secondB7v160006Ev, symObjAddr: 0x6DD4, symBinAddr: 0x10000D800, symSize: 0x24 }
  - { offsetInCU: 0x100EB, offset: 0x21D1B, size: 0x8, addend: 0x0, symName: __ZNSt3__122__compressed_pair_elemINS_9allocatorINS_11__tree_nodeINS_12__value_typeIjPPvEES4_EEEELi1ELb1EE5__getB7v160006Ev, symObjAddr: 0x6DF8, symBinAddr: 0x10000D824, symSize: 0x14 }
  - { offsetInCU: 0x10111, offset: 0x21D41, size: 0x8, addend: 0x0, symName: __ZNSt3__19allocatorINS_11__tree_nodeINS_12__value_typeIjPPvEES3_EEE8allocateB7v160006Em, symObjAddr: 0x6E0C, symBinAddr: 0x10000D838, symSize: 0x5C }
  - { offsetInCU: 0x1014F, offset: 0x21D7F, size: 0x8, addend: 0x0, symName: __ZNSt3__116allocator_traitsINS_9allocatorINS_11__tree_nodeINS_12__value_typeIjPPvEES4_EEEEE8max_sizeB7v160006IS8_vvEEmRKS8_, symObjAddr: 0x6E68, symBinAddr: 0x10000D894, symSize: 0x28 }
  - { offsetInCU: 0x1017A, offset: 0x21DAA, size: 0x8, addend: 0x0, symName: __ZNSt3__122__tree_node_destructorINS_9allocatorINS_11__tree_nodeINS_12__value_typeIjPPvEES4_EEEEEC2B7v160006ERS8_b, symObjAddr: 0x6E90, symBinAddr: 0x10000D8BC, symSize: 0x38 }
  - { offsetInCU: 0x101C2, offset: 0x21DF2, size: 0x8, addend: 0x0, symName: __ZNSt3__110unique_ptrINS_11__tree_nodeINS_12__value_typeIjPPvEES3_EENS_22__tree_node_destructorINS_9allocatorIS6_EEEEEC2B7v160006ILb1EvEEPS6_NS_16__dependent_typeINS_27__unique_ptr_deleter_sfinaeISA_EEXT_EE20__good_rval_ref_typeE, symObjAddr: 0x6EC8, symBinAddr: 0x10000D8F4, symSize: 0x48 }
  - { offsetInCU: 0x10213, offset: 0x21E43, size: 0x8, addend: 0x0, symName: __ZNSt3__117__compressed_pairIPNS_11__tree_nodeINS_12__value_typeIjPPvEES3_EENS_22__tree_node_destructorINS_9allocatorIS6_EEEEEC1B7v160006IRS7_SB_EEOT_OT0_, symObjAddr: 0x6F10, symBinAddr: 0x10000D93C, symSize: 0x3C }
  - { offsetInCU: 0x1026B, offset: 0x21E9B, size: 0x8, addend: 0x0, symName: __ZNSt3__117__compressed_pairIPNS_11__tree_nodeINS_12__value_typeIjPPvEES3_EENS_22__tree_node_destructorINS_9allocatorIS6_EEEEEC2B7v160006IRS7_SB_EEOT_OT0_, symObjAddr: 0x6F4C, symBinAddr: 0x10000D978, symSize: 0x48 }
  - { offsetInCU: 0x102C3, offset: 0x21EF3, size: 0x8, addend: 0x0, symName: __ZNSt3__122__compressed_pair_elemIPNS_11__tree_nodeINS_12__value_typeIjPPvEES3_EELi0ELb0EEC2B7v160006IRS7_vEEOT_, symObjAddr: 0x6F94, symBinAddr: 0x10000D9C0, symSize: 0x24 }
  - { offsetInCU: 0x10305, offset: 0x21F35, size: 0x8, addend: 0x0, symName: __ZNSt3__122__compressed_pair_elemINS_22__tree_node_destructorINS_9allocatorINS_11__tree_nodeINS_12__value_typeIjPPvEES5_EEEEEELi1ELb0EEC2B7v160006ISA_vEEOT_, symObjAddr: 0x6FB8, symBinAddr: 0x10000D9E4, symSize: 0x24 }
  - { offsetInCU: 0x10347, offset: 0x21F77, size: 0x8, addend: 0x0, symName: __ZNSt3__14pairIKjPPvEC1B7v160006IJRS1_EJEEENS_21piecewise_construct_tENS_5tupleIJDpT_EEENS8_IJDpT0_EEE, symObjAddr: 0x702C, symBinAddr: 0x10000DA58, symSize: 0x44 }
  - { offsetInCU: 0x103AE, offset: 0x21FDE, size: 0x8, addend: 0x0, symName: __ZNSt3__14pairIKjPPvEC1B7v160006IJRS1_EJEJLm0EEJEEENS_21piecewise_construct_tERNS_5tupleIJDpT_EEERNS8_IJDpT0_EEENS_15__tuple_indicesIJXspT1_EEEENSH_IJXspT2_EEEE, symObjAddr: 0x7070, symBinAddr: 0x10000DA9C, symSize: 0x3C }
  - { offsetInCU: 0x1043B, offset: 0x2206B, size: 0x8, addend: 0x0, symName: __ZNSt3__14pairIKjPPvEC2B7v160006IJRS1_EJEJLm0EEJEEENS_21piecewise_construct_tERNS_5tupleIJDpT_EEERNS8_IJDpT0_EEENS_15__tuple_indicesIJXspT1_EEEENSH_IJXspT2_EEEE, symObjAddr: 0x70AC, symBinAddr: 0x10000DAD8, symSize: 0x48 }
  - { offsetInCU: 0x104C8, offset: 0x220F8, size: 0x8, addend: 0x0, symName: __ZNSt3__112__tuple_leafILm0ERKjLb0EE3getB7v160006Ev, symObjAddr: 0x7118, symBinAddr: 0x10000DB44, symSize: 0x18 }
  - { offsetInCU: 0x104EE, offset: 0x2211E, size: 0x8, addend: 0x0, symName: __ZNKSt3__117__compressed_pairIPNS_11__tree_nodeINS_12__value_typeIjPPvEES3_EENS_22__tree_node_destructorINS_9allocatorIS6_EEEEE5firstB7v160006Ev, symObjAddr: 0x7130, symBinAddr: 0x10000DB5C, symSize: 0x24 }
  - { offsetInCU: 0x10514, offset: 0x22144, size: 0x8, addend: 0x0, symName: __ZNKSt3__122__compressed_pair_elemIPNS_11__tree_nodeINS_12__value_typeIjPPvEES3_EELi0ELb0EE5__getB7v160006Ev, symObjAddr: 0x7154, symBinAddr: 0x10000DB80, symSize: 0x14 }
  - { offsetInCU: 0x1053A, offset: 0x2216A, size: 0x8, addend: 0x0, symName: __ZNSt3__117__compressed_pairIPNS_11__tree_nodeINS_12__value_typeIjPPvEES3_EENS_22__tree_node_destructorINS_9allocatorIS6_EEEEE6secondB7v160006Ev, symObjAddr: 0x7168, symBinAddr: 0x10000DB94, symSize: 0x28 }
  - { offsetInCU: 0x10560, offset: 0x22190, size: 0x8, addend: 0x0, symName: __ZNSt3__122__compressed_pair_elemINS_22__tree_node_destructorINS_9allocatorINS_11__tree_nodeINS_12__value_typeIjPPvEES5_EEEEEELi1ELb0EE5__getB7v160006Ev, symObjAddr: 0x7190, symBinAddr: 0x10000DBBC, symSize: 0x14 }
  - { offsetInCU: 0x10586, offset: 0x221B6, size: 0x8, addend: 0x0, symName: __ZNSt3__16__treeINS_12__value_typeIjPPvEENS_19__map_value_compareIjS4_NS_4lessIjEELb1EEENS_9allocatorIS4_EEE4sizeB7v160006Ev, symObjAddr: 0x7420, symBinAddr: 0x10000DBD0, symSize: 0x28 }
  - { offsetInCU: 0x105AC, offset: 0x221DC, size: 0x8, addend: 0x0, symName: __ZNSt3__117__compressed_pairImNS_19__map_value_compareIjNS_12__value_typeIjPPvEENS_4lessIjEELb1EEEE5firstB7v160006Ev, symObjAddr: 0x760C, symBinAddr: 0x10000DBF8, symSize: 0x24 }
  - { offsetInCU: 0x105D2, offset: 0x22202, size: 0x8, addend: 0x0, symName: __ZNSt3__117__compressed_pairIPNS_11__tree_nodeINS_12__value_typeIjPPvEES3_EENS_22__tree_node_destructorINS_9allocatorIS6_EEEEE5firstB7v160006Ev, symObjAddr: 0x7644, symBinAddr: 0x10000DC1C, symSize: 0x24 }
  - { offsetInCU: 0x105F8, offset: 0x22228, size: 0x8, addend: 0x0, symName: __ZNSt3__122__compressed_pair_elemIPNS_11__tree_nodeINS_12__value_typeIjPPvEES3_EELi0ELb0EE5__getB7v160006Ev, symObjAddr: 0x7668, symBinAddr: 0x10000DC40, symSize: 0x14 }
  - { offsetInCU: 0x1061E, offset: 0x2224E, size: 0x8, addend: 0x0, symName: __ZNSt3__110unique_ptrINS_11__tree_nodeINS_12__value_typeIjPPvEES3_EENS_22__tree_node_destructorINS_9allocatorIS6_EEEEED2B7v160006Ev, symObjAddr: 0x767C, symBinAddr: 0x10000DC54, symSize: 0x30 }
  - { offsetInCU: 0x10648, offset: 0x22278, size: 0x8, addend: 0x0, symName: __ZNSt3__110unique_ptrINS_11__tree_nodeINS_12__value_typeIjPPvEES3_EENS_22__tree_node_destructorINS_9allocatorIS6_EEEEE5resetB7v160006EPS6_, symObjAddr: 0x76AC, symBinAddr: 0x10000DC84, symSize: 0x78 }
  - { offsetInCU: 0x1068C, offset: 0x222BC, size: 0x8, addend: 0x0, symName: __ZNSt3__122__tree_node_destructorINS_9allocatorINS_11__tree_nodeINS_12__value_typeIjPPvEES4_EEEEEclB7v160006EPS7_, symObjAddr: 0x7724, symBinAddr: 0x10000DCFC, symSize: 0x90 }
  - { offsetInCU: 0x106C1, offset: 0x222F1, size: 0x8, addend: 0x0, symName: __ZNSt3__116allocator_traitsINS_9allocatorINS_11__tree_nodeINS_12__value_typeIjPPvEES4_EEEEE7destroyB7v160006INS_4pairIKjS5_EEvvEEvRS8_PT_, symObjAddr: 0x77B4, symBinAddr: 0x10000DD8C, symSize: 0x28 }
  - { offsetInCU: 0x106FB, offset: 0x2232B, size: 0x8, addend: 0x0, symName: __ZNSt3__116allocator_traitsINS_9allocatorINS_11__tree_nodeINS_12__value_typeIjPPvEES4_EEEEE10deallocateB7v160006ERS8_PS7_m, symObjAddr: 0x77DC, symBinAddr: 0x10000DDB4, symSize: 0x34 }
  - { offsetInCU: 0x1073D, offset: 0x2236D, size: 0x8, addend: 0x0, symName: __ZNSt3__19allocatorINS_11__tree_nodeINS_12__value_typeIjPPvEES3_EEE10deallocateB7v160006EPS6_m, symObjAddr: 0x7844, symBinAddr: 0x10000DE1C, symSize: 0x44 }
  - { offsetInCU: 0x1077F, offset: 0x223AF, size: 0x8, addend: 0x0, symName: __ZNSt3__115__tree_iteratorINS_12__value_typeIjPPvEEPNS_11__tree_nodeIS4_S2_EElEC2B7v160006ES7_, symObjAddr: 0x7888, symBinAddr: 0x10000DE60, symSize: 0x20 }
  - { offsetInCU: 0x107B8, offset: 0x223E8, size: 0x8, addend: 0x0, symName: __ZNSt3__14pairINS_15__tree_iteratorINS_12__value_typeIjPPvEEPNS_11__tree_nodeIS5_S3_EElEEbEC2B7v160006IS9_RbLS3_0EEEOT_OT0_, symObjAddr: 0x78A8, symBinAddr: 0x10000DE80, symSize: 0x38 }
  - { offsetInCU: 0x10816, offset: 0x22446, size: 0x8, addend: 0x0, symName: __ZNSt3__15tupleIJRKjEEC1B7v160006INS_4_AndELi0EEES2_, symObjAddr: 0x78E0, symBinAddr: 0x10000DEB8, symSize: 0x34 }
  - { offsetInCU: 0x1085E, offset: 0x2248E, size: 0x8, addend: 0x0, symName: __ZNSt3__15tupleIJRKjEEC2B7v160006INS_4_AndELi0EEES2_, symObjAddr: 0x7914, symBinAddr: 0x10000DEEC, symSize: 0x34 }
  - { offsetInCU: 0x108A6, offset: 0x224D6, size: 0x8, addend: 0x0, symName: __ZNSt3__112__tuple_implINS_15__tuple_indicesIJLm0EEEEJRKjEEC1B7v160006IJLm0EEJS4_EJEJEJS4_EEENS1_IJXspT_EEEENS_13__tuple_typesIJDpT0_EEENS1_IJXspT1_EEEENS8_IJDpT2_EEEDpOT3_, symObjAddr: 0x7948, symBinAddr: 0x10000DF20, symSize: 0x34 }
  - { offsetInCU: 0x10937, offset: 0x22567, size: 0x8, addend: 0x0, symName: __ZNSt3__112__tuple_implINS_15__tuple_indicesIJLm0EEEEJRKjEEC2B7v160006IJLm0EEJS4_EJEJEJS4_EEENS1_IJXspT_EEEENS_13__tuple_typesIJDpT0_EEENS1_IJXspT1_EEEENS8_IJDpT2_EEEDpOT3_, symObjAddr: 0x797C, symBinAddr: 0x10000DF54, symSize: 0x34 }
  - { offsetInCU: 0x109C8, offset: 0x225F8, size: 0x8, addend: 0x0, symName: __ZNSt3__112__tuple_leafILm0ERKjLb0EEC2B7v160006IS2_vEEOT_, symObjAddr: 0x79B0, symBinAddr: 0x10000DF88, symSize: 0x20 }
  - { offsetInCU: 0x10A0B, offset: 0x2263B, size: 0x8, addend: 0x0, symName: __ZNSt3__16__treeINS_12__value_typeIjPPvEENS_19__map_value_compareIjS4_NS_4lessIjEELb1EEENS_9allocatorIS4_EEE4findIjEENS_15__tree_iteratorIS4_PNS_11__tree_nodeIS4_S2_EElEERKT_, symObjAddr: 0x79D0, symBinAddr: 0x10000DFA8, symSize: 0xF8 }
  - { offsetInCU: 0x10A5A, offset: 0x2268A, size: 0x8, addend: 0x0, symName: __ZNSt3__16__treeINS_12__value_typeIjPPvEENS_19__map_value_compareIjS4_NS_4lessIjEELb1EEENS_9allocatorIS4_EEE13__lower_boundIjEENS_15__tree_iteratorIS4_PNS_11__tree_nodeIS4_S2_EElEERKT_SG_PNS_15__tree_end_nodeIPNS_16__tree_node_baseIS2_EEEE, symObjAddr: 0x7AC8, symBinAddr: 0x10000E0A0, symSize: 0xA4 }
  - { offsetInCU: 0x10AB8, offset: 0x226E8, size: 0x8, addend: 0x0, symName: __ZNKSt3__115__tree_iteratorINS_12__value_typeIjPPvEEPNS_11__tree_nodeIS4_S2_EElEdeB7v160006Ev, symObjAddr: 0x7B6C, symBinAddr: 0x10000E144, symSize: 0x28 }
  - { offsetInCU: 0x10ADE, offset: 0x2270E, size: 0x8, addend: 0x0, symName: __ZNSt3__114pointer_traitsIPNS_4pairIKjPPvEEE10pointer_toB7v160006ERS5_, symObjAddr: 0x7B94, symBinAddr: 0x10000E16C, symSize: 0x14 }
  - { offsetInCU: 0x10B01, offset: 0x22731, size: 0x8, addend: 0x0, symName: __ZNSt3__16__treeINS_12__value_typeIjPPvEENS_19__map_value_compareIjS4_NS_4lessIjEELb1EEENS_9allocatorIS4_EEE14__erase_uniqueIjEEmRKT_, symObjAddr: 0x7BA8, symBinAddr: 0x10000E180, symSize: 0xA0 }
  - { offsetInCU: 0x10B50, offset: 0x22780, size: 0x8, addend: 0x0, symName: __ZNSt3__16__treeINS_12__value_typeIjPPvEENS_19__map_value_compareIjS4_NS_4lessIjEELb1EEENS_9allocatorIS4_EEE5eraseENS_21__tree_const_iteratorIS4_PNS_11__tree_nodeIS4_S2_EElEE, symObjAddr: 0x7C48, symBinAddr: 0x10000E220, symSize: 0x98 }
  - { offsetInCU: 0x10BB4, offset: 0x227E4, size: 0x8, addend: 0x0, symName: __ZNSt3__121__tree_const_iteratorINS_12__value_typeIjPPvEEPNS_11__tree_nodeIS4_S2_EElEC1B7v160006ENS_15__tree_iteratorIS4_S7_lEE, symObjAddr: 0x7CE0, symBinAddr: 0x10000E2B8, symSize: 0x34 }
  - { offsetInCU: 0x10BED, offset: 0x2281D, size: 0x8, addend: 0x0, symName: __ZNKSt3__121__tree_const_iteratorINS_12__value_typeIjPPvEEPNS_11__tree_nodeIS4_S2_EElE8__get_npB7v160006Ev, symObjAddr: 0x7D14, symBinAddr: 0x10000E2EC, symSize: 0x18 }
  - { offsetInCU: 0x10C13, offset: 0x22843, size: 0x8, addend: 0x0, symName: __ZNSt3__16__treeINS_12__value_typeIjPPvEENS_19__map_value_compareIjS4_NS_4lessIjEELb1EEENS_9allocatorIS4_EEE21__remove_node_pointerEPNS_11__tree_nodeIS4_S2_EE, symObjAddr: 0x7D2C, symBinAddr: 0x10000E304, symSize: 0xAC }
  - { offsetInCU: 0x10C59, offset: 0x22889, size: 0x8, addend: 0x0, symName: __ZNKSt3__121__tree_const_iteratorINS_12__value_typeIjPPvEEPNS_11__tree_nodeIS4_S2_EElEdeB7v160006Ev, symObjAddr: 0x7DD8, symBinAddr: 0x10000E3B0, symSize: 0x28 }
  - { offsetInCU: 0x10C7F, offset: 0x228AF, size: 0x8, addend: 0x0, symName: __ZNSt3__121__tree_const_iteratorINS_12__value_typeIjPPvEEPNS_11__tree_nodeIS4_S2_EElEC2B7v160006ENS_15__tree_iteratorIS4_S7_lEE, symObjAddr: 0x8560, symBinAddr: 0x10000E3D8, symSize: 0x20 }
  - { offsetInCU: 0x10CB8, offset: 0x228E8, size: 0x8, addend: 0x0, symName: __ZNSt3__13mapIjPPvNS_4lessIjEENS_9allocatorINS_4pairIKjS2_EEEEED2B7v160006Ev, symObjAddr: 0x88A8, symBinAddr: 0x10000E3F8, symSize: 0x2C }
  - { offsetInCU: 0x10CE2, offset: 0x22912, size: 0x8, addend: 0x0, symName: __ZNSt3__16__treeINS_12__value_typeIjPPvEENS_19__map_value_compareIjS4_NS_4lessIjEELb1EEENS_9allocatorIS4_EEED1Ev, symObjAddr: 0x88D4, symBinAddr: 0x10000E424, symSize: 0x2C }
  - { offsetInCU: 0x10D0E, offset: 0x2293E, size: 0x8, addend: 0x0, symName: __ZNSt3__16__treeINS_12__value_typeIjPPvEENS_19__map_value_compareIjS4_NS_4lessIjEELb1EEENS_9allocatorIS4_EEED2Ev, symObjAddr: 0x8900, symBinAddr: 0x10000E450, symSize: 0x38 }
  - { offsetInCU: 0x10D3A, offset: 0x2296A, size: 0x8, addend: 0x0, symName: __ZNSt3__16__treeINS_12__value_typeIjPPvEENS_19__map_value_compareIjS4_NS_4lessIjEELb1EEENS_9allocatorIS4_EEE7destroyEPNS_11__tree_nodeIS4_S2_EE, symObjAddr: 0x8938, symBinAddr: 0x10000E488, symSize: 0xA4 }
  - { offsetInCU: 0x10D86, offset: 0x229B6, size: 0x8, addend: 0x0, symName: __ZNKSt3__16__treeINS_12__value_typeIjPPvEENS_19__map_value_compareIjS4_NS_4lessIjEELb1EEENS_9allocatorIS4_EEE5beginB7v160006Ev, symObjAddr: 0x89DC, symBinAddr: 0x10000E52C, symSize: 0x34 }
  - { offsetInCU: 0x10DAC, offset: 0x229DC, size: 0x8, addend: 0x0, symName: __ZNSt3__120__map_const_iteratorINS_21__tree_const_iteratorINS_12__value_typeIjPPvEEPNS_11__tree_nodeIS5_S3_EElEEEC1B7v160006ES9_, symObjAddr: 0x8A10, symBinAddr: 0x10000E560, symSize: 0x34 }
  - { offsetInCU: 0x10DE5, offset: 0x22A15, size: 0x8, addend: 0x0, symName: __ZNKSt3__16__treeINS_12__value_typeIjPPvEENS_19__map_value_compareIjS4_NS_4lessIjEELb1EEENS_9allocatorIS4_EEE12__begin_nodeB7v160006Ev, symObjAddr: 0x8A44, symBinAddr: 0x10000E594, symSize: 0x14 }
  - { offsetInCU: 0x10E0B, offset: 0x22A3B, size: 0x8, addend: 0x0, symName: __ZNSt3__121__tree_const_iteratorINS_12__value_typeIjPPvEEPNS_11__tree_nodeIS4_S2_EElEC1B7v160006EPNS_15__tree_end_nodeIPNS_16__tree_node_baseIS2_EEEE, symObjAddr: 0x8A58, symBinAddr: 0x10000E5A8, symSize: 0x34 }
  - { offsetInCU: 0x10E44, offset: 0x22A74, size: 0x8, addend: 0x0, symName: __ZNSt3__121__tree_const_iteratorINS_12__value_typeIjPPvEEPNS_11__tree_nodeIS4_S2_EElEC2B7v160006EPNS_15__tree_end_nodeIPNS_16__tree_node_baseIS2_EEEE, symObjAddr: 0x8A8C, symBinAddr: 0x10000E5DC, symSize: 0x20 }
  - { offsetInCU: 0x10E7D, offset: 0x22AAD, size: 0x8, addend: 0x0, symName: __ZNSt3__120__map_const_iteratorINS_21__tree_const_iteratorINS_12__value_typeIjPPvEEPNS_11__tree_nodeIS5_S3_EElEEEC2B7v160006ES9_, symObjAddr: 0x8AAC, symBinAddr: 0x10000E5FC, symSize: 0x20 }
  - { offsetInCU: 0x10EB6, offset: 0x22AE6, size: 0x8, addend: 0x0, symName: __ZNKSt3__16__treeINS_12__value_typeIjPPvEENS_19__map_value_compareIjS4_NS_4lessIjEELb1EEENS_9allocatorIS4_EEE3endB7v160006Ev, symObjAddr: 0x8ACC, symBinAddr: 0x10000E61C, symSize: 0x34 }
  - { offsetInCU: 0x10EDC, offset: 0x22B0C, size: 0x8, addend: 0x0, symName: __ZNSt3__121__tree_const_iteratorINS_12__value_typeIjPPvEEPNS_11__tree_nodeIS4_S2_EElEppB7v160006Ev, symObjAddr: 0x8B64, symBinAddr: 0x10000E6B4, symSize: 0x38 }
  - { offsetInCU: 0x10F02, offset: 0x22B32, size: 0x8, addend: 0x0, symName: __ZNKSt3__121__tree_const_iteratorINS_12__value_typeIjPPvEEPNS_11__tree_nodeIS4_S2_EElEptB7v160006Ev, symObjAddr: 0x8B9C, symBinAddr: 0x10000E6EC, symSize: 0x2C }
  - { offsetInCU: 0x10F28, offset: 0x22B58, size: 0x8, addend: 0x0, symName: __ZNSt3__114pointer_traitsIPKNS_12__value_typeIjPPvEEE10pointer_toB7v160006ERS5_, symObjAddr: 0x8BC8, symBinAddr: 0x10000E718, symSize: 0x14 }
  - { offsetInCU: 0x10F4B, offset: 0x22B7B, size: 0x8, addend: 0x0, symName: __ZNSt3__16__treeINS_12__value_typeIjPPvEENS_19__map_value_compareIjS4_NS_4lessIjEELb1EEENS_9allocatorIS4_EEE5clearEv, symObjAddr: 0x8BDC, symBinAddr: 0x10000E72C, symSize: 0x74 }
  - { offsetInCU: 0x495A, offset: 0x2766E, size: 0x8, addend: 0x0, symName: __ZNSt3__1plB7v160006IcNS_11char_traitsIcEENS_9allocatorIcEEEENS_12basic_stringIT_T0_T1_EEPKS6_OS9_, symObjAddr: 0x420, symBinAddr: 0x10000EB94, symSize: 0x44 }
  - { offsetInCU: 0x6ACE, offset: 0x297E2, size: 0x8, addend: 0x0, symName: _main, symObjAddr: 0x0, symBinAddr: 0x10000E7A0, symSize: 0x3F4 }
  - { offsetInCU: 0x6D15, offset: 0x29A29, size: 0x8, addend: 0x0, symName: __ZNSt3__14pairINS_12basic_stringIcNS_11char_traitsIcEENS_9allocatorIcEEEE8DataTypeEC1B7v160006IS6_S7_LPv0EEEOT_OT0_, symObjAddr: 0x464, symBinAddr: 0x10000EBD8, symSize: 0x3C }
  - { offsetInCU: 0x6D78, offset: 0x29A8C, size: 0x8, addend: 0x0, symName: __ZNSt3__14pairINS_12basic_stringIcNS_11char_traitsIcEENS_9allocatorIcEEEE8DataTypeEC2B7v160006IS6_S7_LPv0EEEOT_OT0_, symObjAddr: 0xD60, symBinAddr: 0x10000EC14, symSize: 0x44 }
...
